 libRVO

 Timestamp is 58ab58ef (Mon Feb 20 22:00:31 2017)

 Preferred load address is 0000000180000000

 Start         Length     Name                   Class
 0001:00000000 000000c0H .text$di                CODE
 0001:000000c0 00030570H .text$mn                CODE
 0001:00030630 00000020H .text$mn$00             CODE
 0001:00030650 000008b0H .text$x                 CODE
 0001:00030f00 000000b3H .text$yd                CODE
 0002:00000000 00000270H .idata$5                DATA
 0002:00000270 00000010H .00cfg                  DATA
 0002:00000280 00000008H .CRT$XCA                DATA
 0002:00000288 00000068H .CRT$XCU                DATA
 0002:000002f0 00000008H .CRT$XCZ                DATA
 0002:000002f8 00000008H .CRT$XIA                DATA
 0002:00000300 00000018H .CRT$XIC                DATA
 0002:00000318 00000008H .CRT$XIZ                DATA
 0002:00000320 00000008H .CRT$XPA                DATA
 0002:00000328 00000010H .CRT$XPX                DATA
 0002:00000338 00000008H .CRT$XPXA               DATA
 0002:00000340 00000008H .CRT$XPZ                DATA
 0002:00000348 00000008H .CRT$XTA                DATA
 0002:00000350 00000010H .CRT$XTZ                DATA
 0002:00000360 00010208H .rdata                  DATA
 0002:00010568 00000404H .rdata$r                DATA
 0002:0001096c 000003ecH .rdata$zzzdbg           DATA
 0002:00010d58 00000008H .rtc$IAA                DATA
 0002:00010d60 00000008H .rtc$IZZ                DATA
 0002:00010d68 00000008H .rtc$TAA                DATA
 0002:00010d70 00000010H .rtc$TZZ                DATA
 0002:00010d80 000023b0H .xdata                  DATA
 0002:00013130 00000294H .xdata$x                DATA
 0002:000133c4 00000020H .didat$2                DATA
 0002:000133e4 00000024H .didat$3                DATA
 0002:00013408 00000190H .didat$4                DATA
 0002:00013598 00000dc8H .didat$6                DATA
 0002:00014360 00000190H .didat$7                DATA
 0002:000144f0 00000050H .edata                  DATA
 0002:00014540 00000014H .idata$2                DATA
 0002:00014554 00000014H .idata$3                DATA
 0002:00014568 00000270H .idata$4                DATA
 0002:000147d8 000005b2H .idata$6                DATA
 0003:00000000 000010b0H .data                   DATA
 0003:000010b0 00000168H .data$r                 DATA
 0003:00001218 00000198H .didat$5                DATA
 0003:000013b0 0000135cH .bss                    DATA
 0004:00000000 00002448H .pdata                  DATA
 0005:00000000 00000084H .gfids$x                DATA
 0005:00000084 00000058H .gfids$y                DATA
 0006:00000000 00000060H .rsrc$01                DATA
 0006:00000060 00000180H .rsrc$02                DATA

  Address         Publics by Value              Rva+Base               Lib:Object

 0000:00000000       __guard_longjmp_count      0000000000000000     <absolute>
 0000:00000000       __guard_longjmp_table      0000000000000000     <absolute>
 0000:00000000       __guard_iat_table          0000000000000000     <absolute>
 0000:00000000       __guard_iat_count          0000000000000000     <absolute>
 0000:00000000       __dynamic_value_reloc_table 0000000000000000     <absolute>
 0000:00000000       __guard_fids_count         0000000000000000     <absolute>
 0000:00000000       ___safe_se_handler_table   0000000000000000     <absolute>
 0000:00000000       ___safe_se_handler_count   0000000000000000     <absolute>
 0000:00000000       __guard_fids_table         0000000000000000     <absolute>
 0000:00000100       __guard_flags              0000000000000100     <absolute>
 0000:00000000       __ImageBase                0000000180000000     <linker-defined>
 0001:000000c0       __local_stdio_printf_options 00000001800010c0 f i libRVO_wrap.obj
 0001:000000d0       sprintf                    00000001800010d0 f i libRVO_wrap.obj
 0001:00000130       ??0exception@stdext@@QEAA@AEBV01@@Z 0000000180001130 f i libRVO_wrap.obj
 0001:00000150       ?what@exception@stdext@@UEBAPEBDXZ 0000000180001150 f i libRVO_wrap.obj
 0001:00000170       __except_validate_context_record 0000000180001170 f i libvcruntime:jbcxrval.obj
 0001:00000170       _guard_check_icall_nop     0000000180001170 f i LIBCMT:guard_support.obj
 0001:00000170       ?_Doraise@exception@stdext@@MEBAXXZ 0000000180001170 f i libRVO_wrap.obj
 0001:00000180       ??_Eout_of_range@std@@UEAAPEAXI@Z 0000000180001180 f i * CIL library *:* CIL module *
 0001:00000180       ??_Gout_of_range@std@@UEAAPEAXI@Z 0000000180001180 f i libRVO_wrap.obj
 0001:00000180       ??_Elogic_error@std@@UEAAPEAXI@Z 0000000180001180 f i * CIL library *:* CIL module *
 0001:00000180       ??_Gexception@stdext@@UEAAPEAXI@Z 0000000180001180 f i libRVO_wrap.obj
 0001:00000180       ??_Glogic_error@std@@UEAAPEAXI@Z 0000000180001180 f i libRVO_wrap.obj
 0001:00000180       ??_Eexception@stdext@@UEAAPEAXI@Z 0000000180001180 f i * CIL library *:* CIL module *
 0001:000001b0       ??1out_of_range@std@@UEAA@XZ 00000001800011b0 f i libRVO_wrap.obj
 0001:00000330       ?error@V8ErrorHandler@@UEAAXHPEBD@Z 0000000180001330 f i libRVO_wrap.obj
 0001:00000390       ??_EV8ErrorHandler@@UEAAPEAXI@Z 0000000180001390 f i * CIL library *:* CIL module *
 0001:00000390       ??_GV8ErrorHandler@@UEAAPEAXI@Z 0000000180001390 f i libRVO_wrap.obj
 0001:000003c0       ?error@OverloadErrorHandler@@UEAAXHPEBD@Z 00000001800013c0 f i libRVO_wrap.obj
 0001:00000440       ??0SWIGV8_Proxy@@QEAA@XZ   0000000180001440 f i libRVO_wrap.obj
 0001:00000f70       ?distSqPointLineSegment@RVO@@YAMAEBVVector2@1@00@Z 0000000180001f70 f i libRVO_wrap.obj
 0001:00001180       ??0out_of_range@std@@QEAA@AEBV01@@Z 0000000180002180 f i libRVO_wrap.obj
 0001:000011a0       ??0logic_error@std@@QEAA@AEBV01@@Z 00000001800021a0 f i libRVO_wrap.obj
 0001:00001560       ??_GOverloadErrorHandler@@UEAAPEAXI@Z 0000000180002560 f i libRVO_wrap.obj
 0001:00001560       ??_EOverloadErrorHandler@@UEAAPEAXI@Z 0000000180002560 f i * CIL library *:* CIL module *
 0001:00012530       libRVO_initialize          0000000180013530 f   libRVO_wrap.obj
 0001:000157d0       ?push_back@?$vector@NV?$allocator@N@std@@@std@@QEAAXAEBN@Z 00000001800167d0 f i libRVO_wrap.obj
 0001:00015860       ??0?$vector@NV?$allocator@N@std@@@std@@QEAA@_K@Z 0000000180016860 f i libRVO_wrap.obj
 0001:000158e0       ?push_back@?$vector@HV?$allocator@H@std@@@std@@QEAAXAEBH@Z 00000001800168e0 f i libRVO_wrap.obj
 0001:00015970       ??0?$vector@HV?$allocator@H@std@@@std@@QEAA@_K@Z 0000000180016970 f i libRVO_wrap.obj
 0001:000159f0       ?push_back@?$vector@VLine@RVO@@V?$allocator@VLine@RVO@@@std@@@std@@QEAAXAEBVLine@RVO@@@Z 00000001800169f0 f i libRVO_wrap.obj
 0001:00015a80       ??0?$vector@VLine@RVO@@V?$allocator@VLine@RVO@@@std@@@std@@QEAA@_K@Z 0000000180016a80 f i libRVO_wrap.obj
 0001:00015b10       ?push_back@?$vector@VVector2@RVO@@V?$allocator@VVector2@RVO@@@std@@@std@@QEAAXAEBVVector2@RVO@@@Z 0000000180016b10 f i libRVO_wrap.obj
 0001:00015ba0       ??0?$vector@VVector2@RVO@@V?$allocator@VVector2@RVO@@@std@@@std@@QEAA@_K@Z 0000000180016ba0 f i libRVO_wrap.obj
 0001:00015c30       ?_Reserve@?$vector@PEAVObstacle@RVO@@V?$allocator@PEAVObstacle@RVO@@@std@@@std@@IEAAX_K@Z 0000000180016c30 f i KdTree.obj
 0001:00015c30       ?_Reserve@?$vector@NV?$allocator@N@std@@@std@@IEAAX_K@Z 0000000180016c30 f i libRVO_wrap.obj
 0001:00015c30       ?_Reserve@?$vector@PEAVAgent@RVO@@V?$allocator@PEAVAgent@RVO@@@std@@@std@@IEAAX_K@Z 0000000180016c30 f i KdTree.obj
 0001:00015cc0       ?_Reallocate@?$vector@PEAVAgent@RVO@@V?$allocator@PEAVAgent@RVO@@@std@@@std@@IEAAX_K@Z 0000000180016cc0 f i KdTree.obj
 0001:00015cc0       ?_Reallocate@?$vector@NV?$allocator@N@std@@@std@@IEAAX_K@Z 0000000180016cc0 f i libRVO_wrap.obj
 0001:00015cc0       ?_Reallocate@?$vector@PEAVObstacle@RVO@@V?$allocator@PEAVObstacle@RVO@@@std@@@std@@IEAAX_K@Z 0000000180016cc0 f i KdTree.obj
 0001:00015da0       ?_Reserve@?$vector@HV?$allocator@H@std@@@std@@IEAAX_K@Z 0000000180016da0 f i libRVO_wrap.obj
 0001:00015e30       ?_Reallocate@?$vector@HV?$allocator@H@std@@@std@@IEAAX_K@Z 0000000180016e30 f i libRVO_wrap.obj
 0001:00015f10       ?_Tidy@?$vector@VLine@RVO@@V?$allocator@VLine@RVO@@@std@@@std@@IEAAXXZ 0000000180016f10 f i libRVO_wrap.obj
 0001:00015f10       ?_Tidy@?$vector@U?$pair@MPEBVAgent@RVO@@@std@@V?$allocator@U?$pair@MPEBVAgent@RVO@@@std@@@2@@std@@IEAAXXZ 0000000180016f10 f i libRVO_wrap.obj
 0001:00015f10       ?_Tidy@?$vector@U?$pair@MPEBVObstacle@RVO@@@std@@V?$allocator@U?$pair@MPEBVObstacle@RVO@@@std@@@2@@std@@IEAAXXZ 0000000180016f10 f i libRVO_wrap.obj
 0001:00015fa0       ?_Reserve@?$vector@U?$pair@MPEBVAgent@RVO@@@std@@V?$allocator@U?$pair@MPEBVAgent@RVO@@@std@@@2@@std@@IEAAX_K@Z 0000000180016fa0 f i Agent.obj
 0001:00015fa0       ?_Reserve@?$vector@U?$pair@MPEBVObstacle@RVO@@@std@@V?$allocator@U?$pair@MPEBVObstacle@RVO@@@std@@@2@@std@@IEAAX_K@Z 0000000180016fa0 f i Agent.obj
 0001:00015fa0       ?_Reserve@?$vector@VLine@RVO@@V?$allocator@VLine@RVO@@@std@@@std@@IEAAX_K@Z 0000000180016fa0 f i libRVO_wrap.obj
 0001:00016030       ?_Reallocate@?$vector@U?$pair@MPEBVAgent@RVO@@@std@@V?$allocator@U?$pair@MPEBVAgent@RVO@@@std@@@2@@std@@IEAAX_K@Z 0000000180017030 f i Agent.obj
 0001:00016030       ?_Reallocate@?$vector@U?$pair@MPEBVObstacle@RVO@@@std@@V?$allocator@U?$pair@MPEBVObstacle@RVO@@@std@@@2@@std@@IEAAX_K@Z 0000000180017030 f i Agent.obj
 0001:00016030       ?_Reallocate@?$vector@VLine@RVO@@V?$allocator@VLine@RVO@@@std@@@std@@IEAAX_K@Z 0000000180017030 f i libRVO_wrap.obj
 0001:00016180       ?_Reserve@?$vector@VVector2@RVO@@V?$allocator@VVector2@RVO@@@std@@@std@@IEAAX_K@Z 0000000180017180 f i libRVO_wrap.obj
 0001:00016210       ?_Reallocate@?$vector@VVector2@RVO@@V?$allocator@VVector2@RVO@@@std@@@std@@IEAAX_K@Z 0000000180017210 f i libRVO_wrap.obj
 0001:00016310       ?deallocate@?$_Wrap_alloc@V?$allocator@N@std@@@std@@QEAAXPEAN_K@Z 0000000180017310 f i libRVO_wrap.obj
 0001:00016310       ?deallocate@?$_Wrap_alloc@V?$allocator@VVector2@RVO@@@std@@@std@@QEAAXPEAVVector2@RVO@@_K@Z 0000000180017310 f i libRVO_wrap.obj
 0001:00016310       ?deallocate@?$_Wrap_alloc@V?$allocator@PEAVAgent@RVO@@@std@@@std@@QEAAXPEAPEAVAgent@RVO@@_K@Z 0000000180017310 f i KdTree.obj
 0001:00016310       ?deallocate@?$_Wrap_alloc@V?$allocator@PEAVObstacle@RVO@@@std@@@std@@QEAAXPEAPEAVObstacle@RVO@@_K@Z 0000000180017310 f i KdTree.obj
 0001:00016380       ?allocate@?$_Wrap_alloc@V?$allocator@VVector2@RVO@@@std@@@std@@QEAAPEAVVector2@RVO@@_K@Z 0000000180017380 f i libRVO_wrap.obj
 0001:00016380       ?allocate@?$_Wrap_alloc@V?$allocator@PEAVObstacle@RVO@@@std@@@std@@QEAAPEAPEAVObstacle@RVO@@_K@Z 0000000180017380 f i KdTree.obj
 0001:00016380       ?allocate@?$_Wrap_alloc@V?$allocator@N@std@@@std@@QEAAPEAN_K@Z 0000000180017380 f i libRVO_wrap.obj
 0001:000163f0       ?deallocate@?$_Wrap_alloc@V?$allocator@H@std@@@std@@QEAAXPEAH_K@Z 00000001800173f0 f i libRVO_wrap.obj
 0001:00016460       ?allocate@?$_Wrap_alloc@V?$allocator@H@std@@@std@@QEAAPEAH_K@Z 0000000180017460 f i libRVO_wrap.obj
 0001:000164d0       ?allocate@?$_Wrap_alloc@V?$allocator@VLine@RVO@@@std@@@std@@QEAAPEAVLine@RVO@@_K@Z 00000001800174d0 f i libRVO_wrap.obj
 0001:00016540       ?computeNewVelocity@Agent@RVO@@AEAAXXZ 0000000180017540 f   Agent.obj
 0001:00017740       ?insertAgentNeighbor@Agent@RVO@@AEAAXPEBV12@AEAM@Z 0000000180018740 f   Agent.obj
 0001:000178b0       ?insertObstacleNeighbor@Agent@RVO@@AEAAXPEBVObstacle@2@M@Z 00000001800188b0 f   Agent.obj
 0001:000179f0       ?linearProgram1@RVO@@YA_NAEBV?$vector@VLine@RVO@@V?$allocator@VLine@RVO@@@std@@@std@@_KMAEBVVector2@1@_NAEAV41@@Z 00000001800189f0 f   Agent.obj
 0001:00017ce0       ?linearProgram2@RVO@@YA_KAEBV?$vector@VLine@RVO@@V?$allocator@VLine@RVO@@@std@@@std@@MAEBVVector2@1@_NAEAV41@@Z 0000000180018ce0 f   Agent.obj
 0001:00017e70       ?linearProgram3@RVO@@YAXAEBV?$vector@VLine@RVO@@V?$allocator@VLine@RVO@@@std@@@std@@_K1MAEAVVector2@1@@Z 0000000180018e70 f   Agent.obj
 0001:00018540       ??1KdTree@RVO@@AEAA@XZ     0000000180019540 f   KdTree.obj
 0001:000185f0       ?buildAgentTree@KdTree@RVO@@AEAAXXZ 00000001800195f0 f   KdTree.obj
 0001:00018710       ?buildAgentTreeRecursive@KdTree@RVO@@AEAAX_K00@Z 0000000180019710 f   KdTree.obj
 0001:00018cf0       ?buildObstacleTree@KdTree@RVO@@AEAAXXZ 0000000180019cf0 f   KdTree.obj
 0001:00018e90       ?buildObstacleTreeRecursive@KdTree@RVO@@AEAAPEAVObstacleTreeNode@12@AEBV?$vector@PEAVObstacle@RVO@@V?$allocator@PEAVObstacle@RVO@@@std@@@std@@@Z 0000000180019e90 f   KdTree.obj
 0001:00019b20       ?deleteObstacleTree@KdTree@RVO@@AEAAXPEAVObstacleTreeNode@12@@Z 000000018001ab20 f   KdTree.obj
 0001:00019b70       ?queryAgentTreeRecursive@KdTree@RVO@@AEBAXPEAVAgent@2@AEAM_K@Z 000000018001ab70 f   KdTree.obj
 0001:00019d80       ?queryObstacleTreeRecursive@KdTree@RVO@@AEBAXPEAVAgent@2@MPEBVObstacleTreeNode@12@@Z 000000018001ad80 f   KdTree.obj
 0001:00019ea0       ?queryVisibilityRecursive@KdTree@RVO@@AEBA_NAEBVVector2@2@0MPEBVObstacleTreeNode@12@@Z 000000018001aea0 f   KdTree.obj
 0001:0001a170       ?resize@?$vector@VAgentTreeNode@KdTree@RVO@@V?$allocator@VAgentTreeNode@KdTree@RVO@@@std@@@std@@QEAAX_K@Z 000000018001b170 f i KdTree.obj
 0001:0001a280       ?_Reserve@?$vector@VAgentTreeNode@KdTree@RVO@@V?$allocator@VAgentTreeNode@KdTree@RVO@@@std@@@std@@IEAAX_K@Z 000000018001b280 f i KdTree.obj
 0001:0001a350       ?deallocate@?$_Wrap_alloc@V?$allocator@VAgentTreeNode@KdTree@RVO@@@std@@@std@@QEAAXPEAVAgentTreeNode@KdTree@RVO@@_K@Z 000000018001b350 f i KdTree.obj
 0001:0001a3c0       ?_Reallocate@?$vector@VAgentTreeNode@KdTree@RVO@@V?$allocator@VAgentTreeNode@KdTree@RVO@@@std@@@std@@IEAAX_K@Z 000000018001b3c0 f i KdTree.obj
 0001:0001a4e0       ??0RVOSimulator@RVO@@QEAA@MM_KMMMMAEBVVector2@1@@Z 000000018001b4e0 f   RVOSimulator.obj
 0001:0001a630       ??1RVOSimulator@RVO@@QEAA@XZ 000000018001b630 f   RVOSimulator.obj
 0001:0001a860       ?addAgent@RVOSimulator@RVO@@QEAA_KAEBVVector2@2@@Z 000000018001b860 f   RVOSimulator.obj
 0001:0001aa00       ?addAgent@RVOSimulator@RVO@@QEAA_KAEBVVector2@2@M_KMMMM0@Z 000000018001ba00 f   RVOSimulator.obj
 0001:0001aba0       ?addObstacle@RVOSimulator@RVO@@QEAA_KAEBV?$vector@VVector2@RVO@@V?$allocator@VVector2@RVO@@@std@@@std@@@Z 000000018001bba0 f   RVOSimulator.obj
 0001:0001ae70       ?doStep@RVOSimulator@RVO@@QEAAXXZ 000000018001be70 f   RVOSimulator.obj
 0001:0001aff0       ?setAgentDefaults@RVOSimulator@RVO@@QEAAXM_KMMMMAEBVVector2@2@@Z 000000018001bff0 f   RVOSimulator.obj
 0001:0001b14c       __imp_load_?Global@Context@v8@@QEAA?AV?$Local@VObject@v8@@@2@XZ 000000018001c14c f   node:node.exe
 0001:0001b158       __tailMerge_node_exe       000000018001c158 f i node:node.exe
 0001:0001b1d1       __imp_load_?Value@External@v8@@QEBAPEAXXZ 000000018001c1d1 f   node:node.exe
 0001:0001b1dd       __imp_load_?New@External@v8@@SA?AV?$Local@VExternal@v8@@@2@PEAVIsolate@2@PEAX@Z 000000018001c1dd f   node:node.exe
 0001:0001b1e9       __imp_load_?NewFromUnsigned@Integer@v8@@SA?AV?$Local@VInteger@v8@@@2@PEAVIsolate@2@I@Z 000000018001c1e9 f   node:node.exe
 0001:0001b1f5       __imp_load_?New@Integer@v8@@SA?AV?$Local@VInteger@v8@@@2@PEAVIsolate@2@H@Z 000000018001c1f5 f   node:node.exe
 0001:0001b201       __imp_load_?ReportExternalAllocationLimitReached@Isolate@v8@@AEAAXXZ 000000018001c201 f   node:node.exe
 0001:0001b20d       __imp_load_?ThrowException@Isolate@v8@@QEAA?AV?$Local@VValue@v8@@@2@V32@@Z 000000018001c20d f   node:node.exe
 0001:0001b219       __imp_load_?GetCurrentContext@Isolate@v8@@QEAA?AV?$Local@VContext@v8@@@2@XZ 000000018001c219 f   node:node.exe
 0001:0001b225       __imp_load_?GetCurrent@Isolate@v8@@SAPEAV12@XZ 000000018001c225 f   node:node.exe
 0001:0001b231       __imp_load_?CreateHandle@HandleScope@v8@@KAPEAPEAVObject@internal@2@PEAVIsolate@42@PEAV342@@Z 000000018001c231 f   node:node.exe
 0001:0001b23d       __imp_load_??1HandleScope@v8@@QEAA@XZ 000000018001c23d f   node:node.exe
 0001:0001b249       __imp_load_??0HandleScope@v8@@QEAA@PEAVIsolate@1@@Z 000000018001c249 f   node:node.exe
 0001:0001b255       __imp_load_?Set@Template@v8@@QEAAXV?$Local@VName@v8@@@2@V?$Local@VData@v8@@@2@W4PropertyAttribute@2@@Z 000000018001c255 f   node:node.exe
 0001:0001b261       __imp_load_?Error@Exception@v8@@SA?AV?$Local@VValue@v8@@@2@V?$Local@VString@v8@@@2@@Z 000000018001c261 f   node:node.exe
 0001:0001b26d       __imp_load_?SetHiddenPrototype@FunctionTemplate@v8@@QEAAX_N@Z 000000018001c26d f   node:node.exe
 0001:0001b279       __imp_load_?SetClassName@FunctionTemplate@v8@@QEAAXV?$Local@VString@v8@@@2@@Z 000000018001c279 f   node:node.exe
 0001:0001b285       __imp_load_?PrototypeTemplate@FunctionTemplate@v8@@QEAA?AV?$Local@VObjectTemplate@v8@@@2@XZ 000000018001c285 f   node:node.exe
 0001:0001b291       __imp_load_?Inherit@FunctionTemplate@v8@@QEAAXV?$Local@VFunctionTemplate@v8@@@2@@Z 000000018001c291 f   node:node.exe
 0001:0001b29d       __imp_load_?InstanceTemplate@FunctionTemplate@v8@@QEAA?AV?$Local@VObjectTemplate@v8@@@2@XZ 000000018001c29d f   node:node.exe
 0001:0001b2a9       __imp_load_?SetCallHandler@FunctionTemplate@v8@@QEAAXP6AXAEBV?$FunctionCallbackInfo@VValue@v8@@@2@@ZV?$Local@VValue@v8@@@2@PEAVFastAccessorBuilder@experimental@2@@Z 000000018001c2a9 f   node:node.exe
 0001:0001b2b5       __imp_load_?GetFunction@FunctionTemplate@v8@@QEAA?AV?$Local@VFunction@v8@@@2@XZ 000000018001c2b5 f   node:node.exe
 0001:0001b2c1       __imp_load_?New@FunctionTemplate@v8@@SA?AV?$Local@VFunctionTemplate@v8@@@2@PEAVIsolate@2@P6AXAEBV?$FunctionCallbackInfo@VValue@v8@@@2@@ZV?$Local@VValue@v8@@@2@V?$Local@VSignature@v8@@@2@H@Z 000000018001c2c1 f   node:node.exe
 0001:0001b2cd       __imp_load_?ClearWeak@V8@v8@@CAPEAXPEAPEAVObject@internal@2@@Z 000000018001c2cd f   node:node.exe
 0001:0001b2d9       __imp_load_?MakeWeak@V8@v8@@CAXPEAPEAVObject@internal@2@PEAXP6AXAEBV?$WeakCallbackData@VValue@v8@@X@2@@Z@Z 000000018001c2d9 f   node:node.exe
 0001:0001b2e5       __imp_load_?DisposeGlobal@V8@v8@@CAXPEAPEAVObject@internal@2@@Z 000000018001c2e5 f   node:node.exe
 0001:0001b2f1       __imp_load_?GlobalizeReference@V8@v8@@CAPEAPEAVObject@internal@2@PEAVIsolate@42@PEAPEAV342@@Z 000000018001c2f1 f   node:node.exe
 0001:0001b2fd       __imp_load_?IntegerValue@Value@v8@@QEBA_JXZ 000000018001c2fd f   node:node.exe
 0001:0001b309       __imp_load_?NumberValue@Value@v8@@QEBANXZ 000000018001c309 f   node:node.exe
 0001:0001b315       __imp_load_?BooleanValue@Value@v8@@QEBA_NXZ 000000018001c315 f   node:node.exe
 0001:0001b321       __imp_load_?IsNumber@Value@v8@@QEBA_NXZ 000000018001c321 f   node:node.exe
 0001:0001b32d       __imp_load_?IsBoolean@Value@v8@@QEBA_NXZ 000000018001c32d f   node:node.exe
 0001:0001b339       __imp_load_?IsObject@Value@v8@@QEBA_NXZ 000000018001c339 f   node:node.exe
 0001:0001b345       __imp_load_?Escape@EscapableHandleScope@v8@@AEAAPEAPEAVObject@internal@2@PEAPEAV342@@Z 000000018001c345 f   node:node.exe
 0001:0001b351       __imp_load_??0EscapableHandleScope@v8@@QEAA@PEAVIsolate@1@@Z 000000018001c351 f   node:node.exe
 0001:0001b35d       __imp_load_?NewFromUtf8@String@v8@@SA?AV?$Local@VString@v8@@@2@PEAVIsolate@2@PEBDW4NewStringType@12@H@Z 000000018001c35d f   node:node.exe
 0001:0001b369       __imp_load_?WriteUtf8@String@v8@@QEBAHPEADHPEAHH@Z 000000018001c369 f   node:node.exe
 0001:0001b375       __imp_load_?New@Number@v8@@SA?AV?$Local@VNumber@v8@@@2@PEAVIsolate@2@N@Z 000000018001c375 f   node:node.exe
 0001:0001b381       __imp_load_?SlowGetAlignedPointerFromInternalField@Object@v8@@AEAAPEAXH@Z 000000018001c381 f   node:node.exe
 0001:0001b38d       __imp_load_?GetHiddenValue@Object@v8@@QEAA?AV?$Local@VValue@v8@@@2@V?$Local@VString@v8@@@2@@Z 000000018001c38d f   node:node.exe
 0001:0001b399       __imp_load_?SetHiddenValue@Object@v8@@QEAA_NV?$Local@VString@v8@@@2@V?$Local@VValue@v8@@@2@@Z 000000018001c399 f   node:node.exe
 0001:0001b3a5       __imp_load_?SetAlignedPointerInInternalField@Object@v8@@QEAAXHPEAX@Z 000000018001c3a5 f   node:node.exe
 0001:0001b3b1       __imp_load_?InternalFieldCount@Object@v8@@QEAAHXZ 000000018001c3b1 f   node:node.exe
 0001:0001b3bd       __imp_load_?SetAccessor@Object@v8@@QEAA_NV?$Local@VString@v8@@@2@P6AX0AEBV?$PropertyCallbackInfo@VValue@v8@@@2@@ZP6AX0V?$Local@VValue@v8@@@2@AEBV?$PropertyCallbackInfo@X@2@@Z3W4AccessControl@2@W4PropertyAttribute@2@@Z 000000018001c3bd f   node:node.exe
 0001:0001b3c9       __imp_load_?Set@Object@v8@@QEAA_NV?$Local@VValue@v8@@@2@0@Z 000000018001c3c9 f   node:node.exe
 0001:0001b3d5       __imp_load_?SetInternalFieldCount@ObjectTemplate@v8@@QEAAXH@Z 000000018001c3d5 f   node:node.exe
 0001:0001b3e1       __imp_load_?SetAccessor@ObjectTemplate@v8@@QEAAXV?$Local@VString@v8@@@2@P6AX0AEBV?$PropertyCallbackInfo@VValue@v8@@@2@@ZP6AX0V?$Local@VValue@v8@@@2@AEBV?$PropertyCallbackInfo@X@2@@Z3W4AccessControl@2@W4PropertyAttribute@2@V?$Local@VAccessorSignature@v8@@@2@@Z 000000018001c3e1 f   node:node.exe
 0001:0001b3ed       __imp_load_?NewInstance@ObjectTemplate@v8@@QEAA?AV?$Local@VObject@v8@@@2@XZ 000000018001c3ed f   node:node.exe
 0001:0001b3f9       __imp_load_node_module_register 000000018001c3f9 f   node:node.exe
 0001:0001b405       __imp_load_?ToObject@Value@v8@@QEBA?AV?$Local@VObject@v8@@@2@XZ 000000018001c405 f   node:node.exe
 0001:0001b414       ??0bad_alloc@std@@QEAA@AEBV01@@Z 000000018001c414 f i libcpmt:xthrow.obj
 0001:0001b454       ??0bad_alloc@std@@QEAA@XZ  000000018001c454 f i libcpmt:xthrow.obj
 0001:0001b474       ??0exception@std@@QEAA@AEBV01@@Z 000000018001c474 f i libcpmt:xthrow.obj
 0001:0001b4ac       ??0length_error@std@@QEAA@AEBV01@@Z 000000018001c4ac f i libcpmt:xthrow.obj
 0001:0001b4ec       ??0length_error@std@@QEAA@PEBD@Z 000000018001c4ec f i libcpmt:xthrow.obj
 0001:0001b538       ??1bad_alloc@std@@UEAA@XZ  000000018001c538 f i libcpmt:xthrow.obj
 0001:0001b538       ??1length_error@std@@UEAA@XZ 000000018001c538 f i libcpmt:xthrow.obj
 0001:0001b538       ??1bad_exception@std@@UEAA@XZ 000000018001c538 f i libvcruntime:frame.obj
 0001:0001b538       ??1bad_array_new_length@std@@UEAA@XZ 000000018001c538 f i LIBCMT:throw_bad_alloc.obj
 0001:0001b54c       ??_Ebad_exception@std@@UEAAPEAXI@Z 000000018001c54c f i libvcruntime:frame.obj
 0001:0001b54c       ??_Gbad_exception@std@@UEAAPEAXI@Z 000000018001c54c f i libvcruntime:frame.obj
 0001:0001b54c       ??_Ebad_alloc@std@@UEAAPEAXI@Z 000000018001c54c f i libcpmt:xthrow.obj
 0001:0001b54c       ??_Elength_error@std@@UEAAPEAXI@Z 000000018001c54c f i libcpmt:xthrow.obj
 0001:0001b54c       ??_Gbad_alloc@std@@UEAAPEAXI@Z 000000018001c54c f i libcpmt:xthrow.obj
 0001:0001b54c       ??_Eexception@std@@UEAAPEAXI@Z 000000018001c54c f i libcpmt:xthrow.obj
 0001:0001b54c       ??_Gbad_array_new_length@std@@UEAAPEAXI@Z 000000018001c54c f i LIBCMT:throw_bad_alloc.obj
 0001:0001b54c       ??_Glength_error@std@@UEAAPEAXI@Z 000000018001c54c f i libcpmt:xthrow.obj
 0001:0001b54c       ??_Ebad_array_new_length@std@@UEAAPEAXI@Z 000000018001c54c f i LIBCMT:throw_bad_alloc.obj
 0001:0001b54c       ??_Gexception@std@@UEAAPEAXI@Z 000000018001c54c f i libcpmt:xthrow.obj
 0001:0001b590       ?_Xbad_alloc@std@@YAXXZ    000000018001c590 f   libcpmt:xthrow.obj
 0001:0001b590       ?__scrt_throw_std_bad_alloc@@YAXXZ 000000018001c590 f   LIBCMT:throw_bad_alloc.obj
 0001:0001b5b0       ?_Xlength_error@std@@YAXPEBD@Z 000000018001c5b0 f   libcpmt:xthrow.obj
 0001:0001b5d4       ?what@exception@std@@UEBAPEBDXZ 000000018001c5d4 f i libcpmt:xthrow.obj
 0001:0001b600       __security_check_cookie    000000018001c600 f   LIBCMT:_amdsecgs_.obj
 0001:0001b624       ??2@YAPEAX_K@Z             000000018001c624 f   LIBCMT:new_scalar.obj
 0001:0001b660       __scrt_acquire_startup_lock 000000018001c660 f   LIBCMT:utility.obj
 0001:0001b69c       __scrt_dllmain_after_initialize_c 000000018001c69c f   LIBCMT:utility.obj
 0001:0001b6d0       __scrt_dllmain_before_initialize_c 000000018001c6d0 f   LIBCMT:utility.obj
 0001:0001b6e8       __scrt_dllmain_crt_thread_attach 000000018001c6e8 f   LIBCMT:utility.obj
 0001:0001b710       __scrt_dllmain_crt_thread_detach 000000018001c710 f   LIBCMT:utility.obj
 0001:0001b728       __scrt_dllmain_exception_filter 000000018001c728 f   LIBCMT:utility.obj
 0001:0001b78c       __scrt_dllmain_uninitialize_c 000000018001c78c f   LIBCMT:utility.obj
 0001:0001b7bc       __scrt_dllmain_uninitialize_critical 000000018001c7bc f   LIBCMT:utility.obj
 0001:0001b7d0       __scrt_initialize_crt      000000018001c7d0 f   LIBCMT:utility.obj
 0001:0001b81c       __scrt_initialize_onexit_tables 000000018001c81c f   LIBCMT:utility.obj
 0001:0001b8e8       __scrt_is_nonwritable_in_current_image 000000018001c8e8 f   LIBCMT:utility.obj
 0001:0001b984       __scrt_release_startup_lock 000000018001c984 f   LIBCMT:utility.obj
 0001:0001b9a8       __scrt_uninitialize_crt    000000018001c9a8 f   LIBCMT:utility.obj
 0001:0001b9d4       _onexit                    000000018001c9d4 f   LIBCMT:utility.obj
 0001:0001ba24       atexit                     000000018001ca24 f   LIBCMT:utility.obj
 0001:0001ba3c       ??3@YAXPEAX@Z              000000018001ca3c f   LIBCMT:delete_scalar.obj
 0001:0001ba44       ??3@YAXPEAX_K@Z            000000018001ca44 f   LIBCMT:delete_scalar_size.obj
 0001:0001ba4c       ??_Gtype_info@@UEAAPEAXI@Z 000000018001ca4c f i LIBCMT:std_type_info_static.obj
 0001:0001ba4c       ??_Etype_info@@UEAAPEAXI@Z 000000018001ca4c f i LIBCMT:std_type_info_static.obj
 0001:0001bdc4       _DllMainCRTStartup         000000018001cdc4 f   LIBCMT:dll_dllmain.obj
 0001:0001be04       __raise_securityfailure    000000018001ce04 f   LIBCMT:gs_report.obj
 0001:0001be38       __report_gsfailure         000000018001ce38 f   LIBCMT:gs_report.obj
 0001:0001bf0c       __report_rangecheckfailure 000000018001cf0c f   LIBCMT:gs_report.obj
 0001:0001bf20       __report_securityfailure   000000018001cf20 f   LIBCMT:gs_report.obj
 0001:0001c0a0       ??0bad_array_new_length@std@@QEAA@AEBV01@@Z 000000018001d0a0 f i LIBCMT:throw_bad_alloc.obj
 0001:0001c0e0       ??0bad_array_new_length@std@@QEAA@XZ 000000018001d0e0 f i LIBCMT:throw_bad_alloc.obj
 0001:0001c100       ?__scrt_throw_std_bad_array_new_length@@YAXXZ 000000018001d100 f   LIBCMT:throw_bad_alloc.obj
 0001:0001c120       __isa_available_init       000000018001d120 f   LIBCMT:_cpu_disp_.obj
 0001:0001c2e8       DllMain                    000000018001d2e8 f   LIBCMT:dll_dllmain_stub.obj
 0001:0001c2e8       _get_startup_argv_mode     000000018001d2e8 f   LIBCMT:argv_mode.obj
 0001:0001c2f0       __scrt_is_ucrt_dll_in_use  000000018001d2f0 f   LIBCMT:ucrt_detection.obj
 0001:0001c2fc       __crt_debugger_hook        000000018001d2fc f   LIBCMT:utility_desktop.obj
 0001:0001c304       __scrt_fastfail            000000018001d304 f   LIBCMT:utility_desktop.obj
 0001:0001c44c       _guard_check_icall         000000018001d44c f i LIBCMT:checkcfg.obj
 0001:0001c454       __security_init_cookie     000000018001d454 f   LIBCMT:gs_support.obj
 0001:0001c500       ?__scrt_initialize_type_info@@YAXXZ 000000018001d500 f   LIBCMT:tncleanup.obj
 0001:0001c510       ?__scrt_uninitialize_type_info@@YAXXZ 000000018001d510 f   LIBCMT:tncleanup.obj
 0001:0001c51c       __local_stdio_scanf_options 000000018001d51c f i LIBCMT:default_local_stdio_options.obj
 0001:0001c524       __scrt_initialize_default_local_stdio_options 000000018001d524 f   LIBCMT:default_local_stdio_options.obj
 0001:0001c540       __scrt_get_dyn_tls_init_callback 000000018001d540 f   LIBCMT:dyn_tls_init.obj
 0001:0001c548       _RTC_Initialize            000000018001d548 f   LIBCMT:_initsect_.obj
 0001:0001c594       _RTC_Terminate             000000018001d594 f   LIBCMT:_initsect_.obj
 0001:0001c5f0       memmove                    000000018001d5f0 f   libvcruntime:memcpy.obj
 0001:0001c5f0       memcpy                     000000018001d5f0 f   libvcruntime:memcpy.obj
 0001:0001ca28       __std_exception_copy       000000018001da28 f   libvcruntime:std_exception.obj
 0001:0001cab8       __std_exception_destroy    000000018001dab8 f   libvcruntime:std_exception.obj
 0001:0001cae0       _CxxThrowException         000000018001dae0 f   libvcruntime:throw.obj
 0001:0001cbb8       __vcrt_initialize          000000018001dbb8 f   libvcruntime:initialization.obj
 0001:0001cbec       __vcrt_thread_attach       000000018001dbec f   libvcruntime:initialization.obj
 0001:0001cc00       __vcrt_thread_detach       000000018001dc00 f   libvcruntime:initialization.obj
 0001:0001cc14       __vcrt_uninitialize        000000018001dc14 f   libvcruntime:initialization.obj
 0001:0001cc34       __vcrt_uninitialize_critical 000000018001dc34 f   libvcruntime:initialization.obj
 0001:0001cc44       __C_specific_handler       000000018001dc44 f   libvcruntime:_chandler_.obj
 0001:0001ce50       memset                     000000018001de50 f   libvcruntime:memset.obj
 0001:0001cff0       __std_type_info_compare    000000018001dff0 f   libvcruntime:std_type_info.obj
 0001:0001d018       __std_type_info_destroy_list 000000018001e018 f   libvcruntime:std_type_info.obj
 0001:0001d044       __vcrt_freefls             000000018001e044 f   libvcruntime:per_thread_data.obj
 0001:0001d064       __vcrt_freeptd             000000018001e064 f   libvcruntime:per_thread_data.obj
 0001:0001d0b4       __vcrt_getptd              000000018001e0b4 f   libvcruntime:per_thread_data.obj
 0001:0001d0d0       __vcrt_getptd_noexit       000000018001e0d0 f   libvcruntime:per_thread_data.obj
 0001:0001d188       __vcrt_initialize_ptd      000000018001e188 f   libvcruntime:per_thread_data.obj
 0001:0001d1c8       __vcrt_uninitialize_ptd    000000018001e1c8 f   libvcruntime:per_thread_data.obj
 0001:0001d1ec       __vcrt_initialize_locks    000000018001e1ec f   libvcruntime:locks.obj
 0001:0001d234       __vcrt_uninitialize_locks  000000018001e234 f   libvcruntime:locks.obj
 0001:0001d434       __vcrt_FlsAlloc            000000018001e434 f   libvcruntime:winapi_downlevel.obj
 0001:0001d488       __vcrt_FlsFree             000000018001e488 f   libvcruntime:winapi_downlevel.obj
 0001:0001d4dc       __vcrt_FlsGetValue         000000018001e4dc f   libvcruntime:winapi_downlevel.obj
 0001:0001d530       __vcrt_FlsSetValue         000000018001e530 f   libvcruntime:winapi_downlevel.obj
 0001:0001d598       __vcrt_InitializeCriticalSectionEx 000000018001e598 f   libvcruntime:winapi_downlevel.obj
 0001:0001d610       __vcrt_initialize_winapi_thunks 000000018001e610 f   libvcruntime:winapi_downlevel.obj
 0001:0001d65c       __vcrt_uninitialize_winapi_thunks 000000018001e65c f   libvcruntime:winapi_downlevel.obj
 0001:0001d69c       __vcrt_initialize_pure_virtual_call_handler 000000018001e69c f   libvcruntime:purevirt_data.obj
 0001:0001d6d0       _local_unwind              000000018001e6d0 f   libvcruntime:_jmpuwind_.obj
 0001:0001d700       _NLG_Notify                000000018001e700 f   libvcruntime:_jmpuwind_.obj
 0001:0001d720       __NLG_Dispatch2            000000018001e720 f   libvcruntime:_jmpuwind_.obj
 0001:0001d730       __NLG_Return2              000000018001e730 f   libvcruntime:_jmpuwind_.obj
 0001:0001d734       __acrt_call_reportfault    000000018001e734 f   libucrt:invalid_parameter.obj
 0001:0001d890       __acrt_initialize_invalid_parameter_handler 000000018001e890 f   libucrt:invalid_parameter.obj
 0001:0001d898       _invalid_parameter         000000018001e898 f   libucrt:invalid_parameter.obj
 0001:0001d940       _invalid_parameter_noinfo  000000018001e940 f   libucrt:invalid_parameter.obj
 0001:0001d960       _invalid_parameter_noinfo_noreturn 000000018001e960 f   libucrt:invalid_parameter.obj
 0001:0001d990       _invoke_watson             000000018001e990 f   libucrt:invalid_parameter.obj
 0001:0001d9d8       _finite                    000000018001e9d8 f   libucrt:_finite.obj
 0001:0001da04       ??$?RV<lambda_7b91131dde12e1c3dfc74ff76b3f2eac>@@AEAV<lambda_dd75445284c072d0bd3768540cc698fa>@@V<lambda_16bc4ecb55b4718497c16bceaea2ceaf>@@@?$__crt_seh_guarded_call@H@@QEAAH$$QEAV<lambda_7b91131dde12e1c3dfc74ff76b3f2eac>@@AEAV<lambda_dd75445284c072d0bd3768540cc698fa>@@$$QEAV<lambda_16bc4ecb55b4718497c16bceaea2ceaf>@@@Z 000000018001ea04 f i libucrt:output.obj
 0001:0001da44       ??$ensure_buffer_is_big_enough@D@formatting_buffer@__crt_stdio_output@@QEAA_N_K@Z 000000018001ea44 f i libucrt:output.obj
 0001:0001daf0       ??$is_wide_character_specifier@D@__crt_stdio_output@@YA_N_KDW4length_modifier@0@@Z 000000018001eaf0 f i libucrt:output.obj
 0001:0001db20       ??$is_wide_character_specifier@_W@__crt_stdio_output@@YA_N_K_WW4length_modifier@0@@Z 000000018001eb20 f i libucrt:output.obj
 0001:0001db64       ??$type_case_integer_parse_into_buffer@I@?$output_processor@_WV?$stream_output_adapter@_W@__crt_stdio_output@@V?$standard_base@_WV?$stream_output_adapter@_W@__crt_stdio_output@@@2@@__crt_stdio_output@@AEAAXII_N@Z 000000018001eb64 f i libucrt:output.obj
 0001:0001db64       ??$type_case_integer_parse_into_buffer@I@?$output_processor@DV?$string_output_adapter@D@__crt_stdio_output@@V?$standard_base@DV?$string_output_adapter@D@__crt_stdio_output@@@2@@__crt_stdio_output@@AEAAXII_N@Z 000000018001eb64 f i libucrt:output.obj
 0001:0001db64       ??$type_case_integer_parse_into_buffer@I@?$output_processor@_WV?$string_output_adapter@_W@__crt_stdio_output@@V?$standard_base@_WV?$string_output_adapter@_W@__crt_stdio_output@@@2@@__crt_stdio_output@@AEAAXII_N@Z 000000018001eb64 f i libucrt:output.obj
 0001:0001dc00       ??$type_case_integer_parse_into_buffer@_K@?$output_processor@_WV?$stream_output_adapter@_W@__crt_stdio_output@@V?$standard_base@_WV?$stream_output_adapter@_W@__crt_stdio_output@@@2@@__crt_stdio_output@@AEAAX_KI_N@Z 000000018001ec00 f i libucrt:output.obj
 0001:0001dc00       ??$type_case_integer_parse_into_buffer@_K@?$output_processor@_WV?$string_output_adapter@_W@__crt_stdio_output@@V?$standard_base@_WV?$string_output_adapter@_W@__crt_stdio_output@@@2@@__crt_stdio_output@@AEAAX_KI_N@Z 000000018001ec00 f i libucrt:output.obj
 0001:0001dc00       ??$type_case_integer_parse_into_buffer@_K@?$output_processor@DV?$string_output_adapter@D@__crt_stdio_output@@V?$standard_base@DV?$string_output_adapter@D@__crt_stdio_output@@@2@@__crt_stdio_output@@AEAAX_KI_N@Z 000000018001ec00 f i libucrt:output.obj
 0001:0001dc9c       ??$write_multiple_characters@V?$stream_output_adapter@_W@__crt_stdio_output@@D@__crt_stdio_output@@YAXAEBV?$stream_output_adapter@_W@0@DHQEAH@Z 000000018001ec9c f i libucrt:output.obj
 0001:0001dd2c       ??$write_multiple_characters@V?$string_output_adapter@D@__crt_stdio_output@@D@__crt_stdio_output@@YAXAEBV?$string_output_adapter@D@0@DHQEAH@Z 000000018001ed2c f i libucrt:output.obj
 0001:0001dd88       ??$write_multiple_characters@V?$string_output_adapter@_W@__crt_stdio_output@@D@__crt_stdio_output@@YAXAEBV?$string_output_adapter@_W@0@DHQEAH@Z 000000018001ed88 f i libucrt:output.obj
 0001:0001ddf8       ??0?$output_processor@DV?$string_output_adapter@D@__crt_stdio_output@@V?$standard_base@DV?$string_output_adapter@D@__crt_stdio_output@@@2@@__crt_stdio_output@@QEAA@AEBV?$string_output_adapter@D@1@_KQEBDQEAU__crt_locale_pointers@@QEAD@Z 000000018001edf8 f i libucrt:output.obj
 0001:0001de74       ??0?$output_processor@_WV?$string_output_adapter@_W@__crt_stdio_output@@V?$standard_base@_WV?$string_output_adapter@_W@__crt_stdio_output@@@2@@__crt_stdio_output@@QEAA@AEBV?$string_output_adapter@_W@1@_KQEB_WQEAU__crt_locale_pointers@@QEAD@Z 000000018001ee74 f i libucrt:output.obj
 0001:0001de74       ??0?$output_processor@_WV?$stream_output_adapter@_W@__crt_stdio_output@@V?$standard_base@_WV?$stream_output_adapter@_W@__crt_stdio_output@@@2@@__crt_stdio_output@@QEAA@AEBV?$stream_output_adapter@_W@1@_KQEB_WQEAU__crt_locale_pointers@@QEAD@Z 000000018001ee74 f i libucrt:output.obj
 0001:0001def4       ??0_LocaleUpdate@@QEAA@QEAU__crt_locale_pointers@@@Z 000000018001eef4 f i libucrt:output.obj
 0001:0001e074       ?force_decimal_point@__crt_stdio_output@@YAXPEADQEAU__crt_locale_pointers@@@Z 000000018001f074 f i libucrt:output.obj
 0001:0001e0e4       ?parse_int_from_format_string@?$output_processor@DV?$string_output_adapter@D@__crt_stdio_output@@V?$standard_base@DV?$string_output_adapter@D@__crt_stdio_output@@@2@@__crt_stdio_output@@AEAA_NQEAH@Z 000000018001f0e4 f i libucrt:output.obj
 0001:0001e168       ?parse_int_from_format_string@?$output_processor@_WV?$stream_output_adapter@_W@__crt_stdio_output@@V?$standard_base@_WV?$stream_output_adapter@_W@__crt_stdio_output@@@2@@__crt_stdio_output@@AEAA_NQEAH@Z 000000018001f168 f i libucrt:output.obj
 0001:0001e168       ?parse_int_from_format_string@?$output_processor@_WV?$string_output_adapter@_W@__crt_stdio_output@@V?$standard_base@_WV?$string_output_adapter@_W@__crt_stdio_output@@@2@@__crt_stdio_output@@AEAA_NQEAH@Z 000000018001f168 f i libucrt:output.obj
 0001:0001e1e8       ?process@?$output_processor@DV?$string_output_adapter@D@__crt_stdio_output@@V?$standard_base@DV?$string_output_adapter@D@__crt_stdio_output@@@2@@__crt_stdio_output@@QEAAHXZ 000000018001f1e8 f i libucrt:output.obj
 0001:0001e3ec       ?process@?$output_processor@_WV?$stream_output_adapter@_W@__crt_stdio_output@@V?$standard_base@_WV?$stream_output_adapter@_W@__crt_stdio_output@@@2@@__crt_stdio_output@@QEAAHXZ 000000018001f3ec f i libucrt:output.obj
 0001:0001e664       ?process@?$output_processor@_WV?$string_output_adapter@_W@__crt_stdio_output@@V?$standard_base@_WV?$string_output_adapter@_W@__crt_stdio_output@@@2@@__crt_stdio_output@@QEAAHXZ 000000018001f664 f i libucrt:output.obj
 0001:0001e8e0       ?state_case_normal@?$output_processor@DV?$string_output_adapter@D@__crt_stdio_output@@V?$standard_base@DV?$string_output_adapter@D@__crt_stdio_output@@@2@@__crt_stdio_output@@AEAA_NXZ 000000018001f8e0 f i libucrt:output.obj
 0001:0001e954       ?state_case_normal_tchar@?$output_processor@DV?$string_output_adapter@D@__crt_stdio_output@@V?$standard_base@DV?$string_output_adapter@D@__crt_stdio_output@@@2@@__crt_stdio_output@@AEAA_ND@Z 000000018001f954 f i libucrt:output.obj
 0001:0001e9ec       ?state_case_size@?$output_processor@DV?$string_output_adapter@D@__crt_stdio_output@@V?$standard_base@DV?$string_output_adapter@D@__crt_stdio_output@@@2@@__crt_stdio_output@@AEAA_NXZ 000000018001f9ec f i libucrt:output.obj
 0001:0001eb68       ?state_case_size@?$output_processor@_WV?$stream_output_adapter@_W@__crt_stdio_output@@V?$standard_base@_WV?$stream_output_adapter@_W@__crt_stdio_output@@@2@@__crt_stdio_output@@AEAA_NXZ 000000018001fb68 f i libucrt:output.obj
 0001:0001ed0c       ?state_case_size@?$output_processor@_WV?$string_output_adapter@_W@__crt_stdio_output@@V?$standard_base@_WV?$string_output_adapter@_W@__crt_stdio_output@@@2@@__crt_stdio_output@@AEAA_NXZ 000000018001fd0c f i libucrt:output.obj
 0001:0001eeb0       ?state_case_type@?$output_processor@DV?$string_output_adapter@D@__crt_stdio_output@@V?$standard_base@DV?$string_output_adapter@D@__crt_stdio_output@@@2@@__crt_stdio_output@@AEAA_NXZ 000000018001feb0 f i libucrt:output.obj
 0001:0001f12c       ?state_case_type@?$output_processor@_WV?$stream_output_adapter@_W@__crt_stdio_output@@V?$standard_base@_WV?$stream_output_adapter@_W@__crt_stdio_output@@@2@@__crt_stdio_output@@AEAA_NXZ 000000018002012c f i libucrt:output.obj
 0001:0001f3f8       ?state_case_type@?$output_processor@_WV?$string_output_adapter@_W@__crt_stdio_output@@V?$standard_base@_WV?$string_output_adapter@_W@__crt_stdio_output@@@2@@__crt_stdio_output@@AEAA_NXZ 00000001800203f8 f i libucrt:output.obj
 0001:0001f6c4       ?type_case_Z@?$output_processor@DV?$string_output_adapter@D@__crt_stdio_output@@V?$standard_base@DV?$string_output_adapter@D@__crt_stdio_output@@@2@@__crt_stdio_output@@AEAA_NXZ 00000001800206c4 f i libucrt:output.obj
 0001:0001f744       ?type_case_Z@?$output_processor@_WV?$stream_output_adapter@_W@__crt_stdio_output@@V?$standard_base@_WV?$stream_output_adapter@_W@__crt_stdio_output@@@2@@__crt_stdio_output@@AEAA_NXZ 0000000180020744 f i libucrt:output.obj
 0001:0001f744       ?type_case_Z@?$output_processor@_WV?$string_output_adapter@_W@__crt_stdio_output@@V?$standard_base@_WV?$string_output_adapter@_W@__crt_stdio_output@@@2@@__crt_stdio_output@@AEAA_NXZ 0000000180020744 f i libucrt:output.obj
 0001:0001f7c4       ?type_case_a@?$output_processor@DV?$string_output_adapter@D@__crt_stdio_output@@V?$standard_base@DV?$string_output_adapter@D@__crt_stdio_output@@@2@@__crt_stdio_output@@AEAA_NXZ 00000001800207c4 f i libucrt:output.obj
 0001:0001f9e0       ?type_case_a@?$output_processor@_WV?$string_output_adapter@_W@__crt_stdio_output@@V?$standard_base@_WV?$string_output_adapter@_W@__crt_stdio_output@@@2@@__crt_stdio_output@@AEAA_NXZ 00000001800209e0 f i libucrt:output.obj
 0001:0001f9e0       ?type_case_a@?$output_processor@_WV?$stream_output_adapter@_W@__crt_stdio_output@@V?$standard_base@_WV?$stream_output_adapter@_W@__crt_stdio_output@@@2@@__crt_stdio_output@@AEAA_NXZ 00000001800209e0 f i libucrt:output.obj
 0001:0001fc24       ?type_case_c_tchar@?$output_processor@DV?$string_output_adapter@D@__crt_stdio_output@@V?$standard_base@DV?$string_output_adapter@D@__crt_stdio_output@@@2@@__crt_stdio_output@@AEAA_ND@Z 0000000180020c24 f i libucrt:output.obj
 0001:0001fcd8       ?type_case_c_tchar@?$output_processor@_WV?$stream_output_adapter@_W@__crt_stdio_output@@V?$standard_base@_WV?$stream_output_adapter@_W@__crt_stdio_output@@@2@@__crt_stdio_output@@AEAA_N_W@Z 0000000180020cd8 f i libucrt:output.obj
 0001:0001fcd8       ?type_case_c_tchar@?$output_processor@_WV?$string_output_adapter@_W@__crt_stdio_output@@V?$standard_base@_WV?$string_output_adapter@_W@__crt_stdio_output@@@2@@__crt_stdio_output@@AEAA_N_W@Z 0000000180020cd8 f i libucrt:output.obj
 0001:0001fd80       ?type_case_integer@?$output_processor@DV?$string_output_adapter@D@__crt_stdio_output@@V?$standard_base@DV?$string_output_adapter@D@__crt_stdio_output@@@2@@__crt_stdio_output@@AEAA_NI_N@Z 0000000180020d80 f i libucrt:output.obj
 0001:0001fd80       ?type_case_integer@?$output_processor@_WV?$stream_output_adapter@_W@__crt_stdio_output@@V?$standard_base@_WV?$stream_output_adapter@_W@__crt_stdio_output@@@2@@__crt_stdio_output@@AEAA_NI_N@Z 0000000180020d80 f i libucrt:output.obj
 0001:0001fd80       ?type_case_integer@?$output_processor@_WV?$string_output_adapter@_W@__crt_stdio_output@@V?$standard_base@_WV?$string_output_adapter@_W@__crt_stdio_output@@@2@@__crt_stdio_output@@AEAA_NI_N@Z 0000000180020d80 f i libucrt:output.obj
 0001:0001ff20       ?type_case_n@?$output_processor@_WV?$string_output_adapter@_W@__crt_stdio_output@@V?$standard_base@_WV?$string_output_adapter@_W@__crt_stdio_output@@@2@@__crt_stdio_output@@AEAA_NXZ 0000000180020f20 f i libucrt:output.obj
 0001:0001ff20       ?type_case_n@?$output_processor@_WV?$stream_output_adapter@_W@__crt_stdio_output@@V?$standard_base@_WV?$stream_output_adapter@_W@__crt_stdio_output@@@2@@__crt_stdio_output@@AEAA_NXZ 0000000180020f20 f i libucrt:output.obj
 0001:0001ff20       ?type_case_n@?$output_processor@DV?$string_output_adapter@D@__crt_stdio_output@@V?$standard_base@DV?$string_output_adapter@D@__crt_stdio_output@@@2@@__crt_stdio_output@@AEAA_NXZ 0000000180020f20 f i libucrt:output.obj
 0001:0001fffc       ?type_case_s@?$output_processor@DV?$string_output_adapter@D@__crt_stdio_output@@V?$standard_base@DV?$string_output_adapter@D@__crt_stdio_output@@@2@@__crt_stdio_output@@AEAA_NXZ 0000000180020ffc f i libucrt:output.obj
 0001:0002008c       ?type_case_s@?$output_processor@_WV?$string_output_adapter@_W@__crt_stdio_output@@V?$standard_base@_WV?$string_output_adapter@_W@__crt_stdio_output@@@2@@__crt_stdio_output@@AEAA_NXZ 000000018002108c f i libucrt:output.obj
 0001:0002008c       ?type_case_s@?$output_processor@_WV?$stream_output_adapter@_W@__crt_stdio_output@@V?$standard_base@_WV?$stream_output_adapter@_W@__crt_stdio_output@@@2@@__crt_stdio_output@@AEAA_NXZ 000000018002108c f i libucrt:output.obj
 0001:00020154       ?write_stored_string_tchar@?$output_processor@DV?$string_output_adapter@D@__crt_stdio_output@@V?$standard_base@DV?$string_output_adapter@D@__crt_stdio_output@@@2@@__crt_stdio_output@@AEAA_ND@Z 0000000180021154 f i libucrt:output.obj
 0001:0002022c       ?write_stored_string_tchar@?$output_processor@_WV?$stream_output_adapter@_W@__crt_stdio_output@@V?$standard_base@_WV?$stream_output_adapter@_W@__crt_stdio_output@@@2@@__crt_stdio_output@@AEAA_N_W@Z 000000018002122c f i libucrt:output.obj
 0001:00020318       ?write_stored_string_tchar@?$output_processor@_WV?$string_output_adapter@_W@__crt_stdio_output@@V?$standard_base@_WV?$string_output_adapter@_W@__crt_stdio_output@@@2@@__crt_stdio_output@@AEAA_N_W@Z 0000000180021318 f i libucrt:output.obj
 0001:00020408       ?write_string@?$stream_output_adapter@_W@__crt_stdio_output@@QEBAXQEB_WHQEAH1@Z 0000000180021408 f i libucrt:output.obj
 0001:00020514       ?write_string@?$string_output_adapter@D@__crt_stdio_output@@QEBAXQEBDHQEAH1@Z 0000000180021514 f i libucrt:output.obj
 0001:000205d0       ?write_string@?$string_output_adapter@_W@__crt_stdio_output@@QEBAXQEB_WHQEAH1@Z 00000001800215d0 f i libucrt:output.obj
 0001:00020690       __stdio_common_vfwprintf   0000000180021690 f   libucrt:output.obj
 0001:0002071c       __stdio_common_vsprintf    000000018002171c f   libucrt:output.obj
 0001:00020950       __stdio_common_vswprintf   0000000180021950 f   libucrt:output.obj
 0001:00021570       ??$ftprintf@PEAU_iobuf@@PEB_WAEBQEB_WAEBQEB_WAEBI@?$__crt_char_traits@_W@@SAH$$QEAPEAU_iobuf@@$$QEAPEB_WAEBQEB_W2AEBI@Z 0000000180022570 f i libucrt:assert.obj
 0001:00021598       _wassert                   0000000180022598 f   libucrt:assert.obj
 0001:0002161c       fwprintf                   000000018002261c f i libucrt:assert.obj
 0001:00021660       swprintf                   0000000180022660 f i libucrt:assert.obj
 0001:000216b4       __ascii_stricmp            00000001800226b4 f   libucrt:stricmp.obj
 0001:000216f0       _stricmp                   00000001800226f0 f   libucrt:stricmp.obj
 0001:00021738       _stricmp_l                 0000000180022738 f   libucrt:stricmp.obj
 0001:000217ec       __acrt_initialize_new_handler 00000001800227ec f   libucrt:new_handler.obj
 0001:000217f4       _callnewh                  00000001800227f4 f   libucrt:new_handler.obj
 0001:00021834       _query_new_handler         0000000180022834 f   libucrt:new_handler.obj
 0001:00021868       malloc                     0000000180022868 f   libucrt:malloc.obj
 0001:00021870       _seh_filter_dll            0000000180022870 f   libucrt:exception_filter.obj
 0001:00021884       _seh_filter_exe            0000000180022884 f   libucrt:exception_filter.obj
 0001:00021c44       __acrt_initialize_thread_local_exit_callback 0000000180022c44 f   libucrt:exit.obj
 0001:00021c4c       _cexit                     0000000180022c4c f   libucrt:exit.obj
 0001:00021c5c       _exit                      0000000180022c5c f   libucrt:exit.obj
 0001:00021c68       _is_c_termination_complete 0000000180022c68 f   libucrt:exit.obj
 0001:00021e2c       __acrt_allocate_buffer_for_argv 0000000180022e2c f   libucrt:argv_parsing.obj
 0001:00021e90       _configure_narrow_argv     0000000180022e90 f   libucrt:argv_parsing.obj
 0001:000221ec       __dcrt_uninitialize_environments_nolock 00000001800231ec f   libucrt:environment_initialization.obj
 0001:00022224       _initialize_narrow_environment 0000000180023224 f   libucrt:environment_initialization.obj
 0001:0002222c       ??$?RV<lambda_b8c45f8f788dd370798f47cfe8ac3a86>@@AEAV<lambda_4e60a939b0d047cfe11ddc22648dfba9>@@V<lambda_332c3edc96d0294ec56c57d38c1cdfd5>@@@?$__crt_seh_guarded_call@H@@QEAAH$$QEAV<lambda_b8c45f8f788dd370798f47cfe8ac3a86>@@AEAV<lambda_4e60a939b0d047cfe11ddc22648dfba9>@@$$QEAV<lambda_332c3edc96d0294ec56c57d38c1cdfd5>@@@Z 000000018002322c f i libucrt:onexit.obj
 0001:00022268       ??$?RV<lambda_e24bbb7b643b32fcea6fa61b31d4c984>@@AEAV<lambda_275893d493268fdec8709772e3fcec0e>@@V<lambda_9d71df4d7cf3f480f8d633942495c3b0>@@@?$__crt_seh_guarded_call@H@@QEAAH$$QEAV<lambda_e24bbb7b643b32fcea6fa61b31d4c984>@@AEAV<lambda_275893d493268fdec8709772e3fcec0e>@@$$QEAV<lambda_9d71df4d7cf3f480f8d633942495c3b0>@@@Z 0000000180023268 f i libucrt:onexit.obj
 0001:000225e4       _crt_atexit                00000001800235e4 f   libucrt:onexit.obj
 0001:000225f4       _execute_onexit_table      00000001800235f4 f   libucrt:onexit.obj
 0001:00022630       _initialize_onexit_table   0000000180023630 f   libucrt:onexit.obj
 0001:00022670       _register_onexit_function  0000000180023670 f   libucrt:onexit.obj
 0001:00022700       __acrt_uninitialize_command_line 0000000180023700 f   libucrt:argv_data.obj
 0001:000227f0       __acrt_initialize          00000001800237f0 f   libucrt:initialization.obj
 0001:00022804       __acrt_thread_attach       0000000180023804 f   libucrt:initialization.obj
 0001:00022818       __acrt_thread_detach       0000000180023818 f   libucrt:initialization.obj
 0001:00022828       __acrt_uninitialize        0000000180023828 f   libucrt:initialization.obj
 0001:0002283c       __acrt_uninitialize_critical 000000018002383c f   libucrt:initialization.obj
 0001:0002284c       free                       000000018002384c f   libucrt:free.obj
 0001:00022854       _initterm                  0000000180023854 f   libucrt:initterm.obj
 0001:000228cc       _initterm_e                00000001800238cc f   libucrt:initterm.obj
 0001:00022918       terminate                  0000000180023918 f   libucrt:terminate.obj
 0001:00022940       strcpy_s                   0000000180023940 f   libucrt:strcpy_s.obj
 0001:000229a0       _free_base                 00000001800239a0 f   libucrt:free_base.obj
 0001:000229e0       _malloc_base               00000001800239e0 f   libucrt:malloc_base.obj
 0001:00022a40       abort                      0000000180023a40 f   libucrt:abort.obj
 0001:00022a98       _calloc_base               0000000180023a98 f   libucrt:calloc_base.obj
 0001:00022b10       ??$is_overflow_condition@K@__crt_strtox@@YA_NIK@Z 0000000180023b10 f i libucrt:atox.obj
 0001:00022b3c       ??$parse_integer@KV?$c_string_character_source@D@__crt_strtox@@@__crt_strtox@@YAKQEAU__crt_locale_pointers@@V?$c_string_character_source@D@0@H_N@Z 0000000180023b3c f i libucrt:atox.obj
 0001:00022e50       ??$parse_integer@KV?$c_string_character_source@_W@__crt_strtox@@@__crt_strtox@@YAKQEAU__crt_locale_pointers@@V?$c_string_character_source@_W@0@H_N@Z 0000000180023e50 f i libucrt:atox.obj
 0001:00023524       ??$?RV<lambda_46352004c1216016012b18bd6f87e700>@@AEAV<lambda_3bd07e1a1191394380780325891bf33f>@@V<lambda_334532d3f185bcaa59b5be82d7d22bff>@@@?$__crt_seh_guarded_call@X@@QEAAX$$QEAV<lambda_46352004c1216016012b18bd6f87e700>@@AEAV<lambda_3bd07e1a1191394380780325891bf33f>@@$$QEAV<lambda_334532d3f185bcaa59b5be82d7d22bff>@@@Z 0000000180024524 f i libucrt:per_thread_data.obj
 0001:00023584       ??$?RV<lambda_5e887d1dcbef67a5eb4283622ba103bf>@@AEAV<lambda_4466841279450cc726390878d4a41900>@@V<lambda_341c25c0346d94847f1f3c463c57e077>@@@?$__crt_seh_guarded_call@X@@QEAAX$$QEAV<lambda_5e887d1dcbef67a5eb4283622ba103bf>@@AEAV<lambda_4466841279450cc726390878d4a41900>@@$$QEAV<lambda_341c25c0346d94847f1f3c463c57e077>@@@Z 0000000180024584 f i libucrt:per_thread_data.obj
 0001:000235cc       ??$?RV<lambda_72d1df2b273a38828b1ce30cbf4cdab5>@@AEAV<lambda_876a65b173b8412d3a47c70a915b0cf4>@@V<lambda_41932305e351933ebe8f8be3ed8bb5dc>@@@?$__crt_seh_guarded_call@X@@QEAAX$$QEAV<lambda_72d1df2b273a38828b1ce30cbf4cdab5>@@AEAV<lambda_876a65b173b8412d3a47c70a915b0cf4>@@$$QEAV<lambda_41932305e351933ebe8f8be3ed8bb5dc>@@@Z 00000001800245cc f i libucrt:per_thread_data.obj
 0001:0002360c       ??$?RV<lambda_fb3a7dec4e47f37f22dae91bb15c9095>@@AEAV<lambda_698284760c8add0bfb0756c19673e34b>@@V<lambda_dfb8eca1e75fef3034a8fb18dd509707>@@@?$__crt_seh_guarded_call@X@@QEAAX$$QEAV<lambda_fb3a7dec4e47f37f22dae91bb15c9095>@@AEAV<lambda_698284760c8add0bfb0756c19673e34b>@@$$QEAV<lambda_dfb8eca1e75fef3034a8fb18dd509707>@@@Z 000000018002460c f i libucrt:per_thread_data.obj
 0001:0002389c       __acrt_freeptd             000000018002489c f   libucrt:per_thread_data.obj
 0001:000238e0       __acrt_getptd              00000001800248e0 f   libucrt:per_thread_data.obj
 0001:00023974       __acrt_getptd_noexit       0000000180024974 f   libucrt:per_thread_data.obj
 0001:00023a14       __acrt_initialize_ptd      0000000180024a14 f   libucrt:per_thread_data.obj
 0001:00023a50       __acrt_uninitialize_ptd    0000000180024a50 f   libucrt:per_thread_data.obj
 0001:00023a74       isdigit                    0000000180024a74 f i libucrt:_ctype.obj
 0001:00023b38       _tolower_l                 0000000180024b38 f   libucrt:tolower_toupper.obj
 0001:00023c78       tolower                    0000000180024c78 f   libucrt:tolower_toupper.obj
 0001:00023ca4       __acrt_errno_from_os_error 0000000180024ca4 f   libucrt:errno.obj
 0001:00023cec       __acrt_errno_map_os_error  0000000180024cec f   libucrt:errno.obj
 0001:00023d3c       __doserrno                 0000000180024d3c f   libucrt:errno.obj
 0001:00023d5c       _errno                     0000000180024d5c f   libucrt:errno.obj
 0001:00023d7c       ??$make_c_string_character_source@DPEAPEAD@__crt_strtox@@YA?AV?$c_string_character_source@D@0@QEBDQEAPEAD@Z 0000000180024d7c f i libucrt:strtox.obj
 0001:00023d7c       ??$make_c_string_character_source@_WPEAPEA_W@__crt_strtox@@YA?AV?$c_string_character_source@_W@0@QEB_WQEAPEA_W@Z 0000000180024d7c f i libucrt:strtox.obj
 0001:00023d90       strtol                     0000000180024d90 f   libucrt:strtox.obj
 0001:00023dc0       wcstol                     0000000180024dc0 f   libucrt:strtox.obj
 0001:00023df0       _mbtowc_l                  0000000180024df0 f   libucrt:mbtowc.obj
 0001:00023f38       mbtowc                     0000000180024f38 f   libucrt:mbtowc.obj
 0001:00023f40       _wctomb_s_l                0000000180024f40 f   libucrt:wctomb.obj
 0001:000240c4       wctomb_s                   00000001800250c4 f   libucrt:wctomb.obj
 0001:000240d8       strnlen                    00000001800250d8 f   libucrt:strnlen.obj
 0001:00024234       wcsnlen                    0000000180025234 f   libucrt:strnlen.obj
 0001:00024424       __acrt_update_locale_info  0000000180025424 f   libucrt:locale_update.obj
 0001:00024458       __acrt_update_multibyte_info 0000000180025458 f   libucrt:locale_update.obj
 0001:0002448c       ?__acrt_fp_classify@@YA?AW4__acrt_fp_class@@AEBN@Z 000000018002548c f i libucrt:cvt.obj
 0001:00024ec4       __acrt_fp_format           0000000180025ec4 f   libucrt:cvt.obj
 0001:00025108       _fputwc_nolock             0000000180026108 f   libucrt:fputwc.obj
 0001:00025284       _fileno                    0000000180026284 f   libucrt:fileno.obj
 0001:000252ac       __acrt_initialize_stdio    00000001800262ac f   libucrt:_file.obj
 0001:000253cc       __acrt_iob_func            00000001800263cc f   libucrt:_file.obj
 0001:000253e0       __acrt_uninitialize_stdio  00000001800263e0 f   libucrt:_file.obj
 0001:0002543c       _lock_file                 000000018002643c f   libucrt:_file.obj
 0001:00025448       _unlock_file               0000000180026448 f   libucrt:_file.obj
 0001:00025454       _fputc_nolock              0000000180026454 f   libucrt:fputc.obj
 0001:0002546c       _get_printf_count_output   000000018002646c f   libucrt:printf_count_output.obj
 0001:00025484       __acrt_stdio_begin_temporary_buffering_nolock 0000000180026484 f   libucrt:_sftbuf.obj
 0001:00025554       __acrt_stdio_end_temporary_buffering_nolock 0000000180026554 f   libucrt:_sftbuf.obj
 0001:00025590       __acrt_set_locale_changed  0000000180026590 f   libucrt:wsetlocale.obj
 0001:0002559c       __acrt_uninitialize_locale 000000018002659c f   libucrt:wsetlocale.obj
 0001:000257cc       __acrt_initialize_lowio    00000001800267cc f   libucrt:ioinit.obj
 0001:00025808       __acrt_uninitialize_lowio  0000000180026808 f   libucrt:ioinit.obj
 0001:00025848       _query_app_type            0000000180026848 f   libucrt:report_runtime_error.obj
 0001:00025978       _itow_s                    0000000180026978 f   libucrt:xtoa.obj
 0001:00025998       _set_error_mode            0000000180026998 f   libucrt:set_error_mode.obj
 0001:000259d8       wcscat_s                   00000001800269d8 f   libucrt:wcscat_s.obj
 0001:00025a58       wcscpy_s                   0000000180026a58 f   libucrt:wcscpy_s.obj
 0001:00025ac0       wcsncat_s                  0000000180026ac0 f   libucrt:wcsncat_s.obj
 0001:00025be8       __acrt_show_wide_message_box 0000000180026be8 f   libucrt:crtmbox.obj
 0001:00025d04       __acrt_stdio_flush_nolock  0000000180026d04 f   libucrt:fflush.obj
 0001:00025d7c       _fflush_nolock             0000000180026d7c f   libucrt:fflush.obj
 0001:00025dc8       _flushall                  0000000180026dc8 f   libucrt:fflush.obj
 0001:00025eb8       fflush                     0000000180026eb8 f   libucrt:fflush.obj
 0001:00025efc       ??$?RV<lambda_7a5ef57ff966f610505f1d28a3d40618>@@AEAV<lambda_b721fa326cdb32351d23dfa67958c160>@@V<lambda_5e0fb27672408a07956fe59e48ccb2aa>@@@?$__crt_seh_guarded_call@H@@QEAAH$$QEAV<lambda_7a5ef57ff966f610505f1d28a3d40618>@@AEAV<lambda_b721fa326cdb32351d23dfa67958c160>@@$$QEAV<lambda_5e0fb27672408a07956fe59e48ccb2aa>@@@Z 0000000180026efc f i libucrt:setvbuf.obj
 0001:0002602c       setvbuf                    000000018002702c f   libucrt:setvbuf.obj
 0001:000260cc       ??$?RV<lambda_c36588078e9f5dfd39652860aa6b3aaf>@@AEAV<lambda_ec61778202f4f5fc7e7711acc23c3bca>@@V<lambda_dc9d2797ccde5d239b4a0efae8ebd7db>@@@?$__crt_seh_guarded_call@P6AXH@Z@@QEAAP6AXH@Z$$QEAV<lambda_c36588078e9f5dfd39652860aa6b3aaf>@@AEAV<lambda_ec61778202f4f5fc7e7711acc23c3bca>@@$$QEAV<lambda_dc9d2797ccde5d239b4a0efae8ebd7db>@@@Z 00000001800270cc f i libucrt:signal.obj
 0001:00026114       __acrt_get_sigabrt_handler 0000000180027114 f   libucrt:signal.obj
 0001:00026144       __acrt_initialize_signal_handlers 0000000180027144 f   libucrt:signal.obj
 0001:00026164       raise                      0000000180027164 f   libucrt:signal.obj
 0001:00026400       __acrt_initialize_locks    0000000180027400 f   libucrt:locks.obj
 0001:00026448       __acrt_lock                0000000180027448 f   libucrt:locks.obj
 0001:00026464       __acrt_uninitialize_locks  0000000180027464 f   libucrt:locks.obj
 0001:0002649c       __acrt_unlock              000000018002749c f   libucrt:locks.obj
 0001:00026658       __acrt_FlsAlloc            0000000180027658 f   libucrt:winapi_thunks.obj
 0001:000266b0       __acrt_FlsFree             00000001800276b0 f   libucrt:winapi_thunks.obj
 0001:00026708       __acrt_FlsGetValue         0000000180027708 f   libucrt:winapi_thunks.obj
 0001:00026760       __acrt_FlsSetValue         0000000180027760 f   libucrt:winapi_thunks.obj
 0001:000267c8       __acrt_InitializeCriticalSectionEx 00000001800277c8 f   libucrt:winapi_thunks.obj
 0001:00026840       __acrt_LCMapStringEx       0000000180027840 f   libucrt:winapi_thunks.obj
 0001:00026930       __acrt_LocaleNameToLCID    0000000180027930 f   libucrt:winapi_thunks.obj
 0001:00026998       __acrt_MessageBoxW         0000000180027998 f   libucrt:winapi_thunks.obj
 0001:00026a20       __acrt_can_show_message_box 0000000180027a20 f   libucrt:winapi_thunks.obj
 0001:00026a7c       __acrt_get_parent_window   0000000180027a7c f   libucrt:winapi_thunks.obj
 0001:00026b0c       __acrt_initialize_winapi_thunks 0000000180027b0c f   libucrt:winapi_thunks.obj
 0001:00026b44       __acrt_is_interactive      0000000180027b44 f   libucrt:winapi_thunks.obj
 0001:00026c18       __acrt_is_packaged_app     0000000180027c18 f   libucrt:winapi_thunks.obj
 0001:00026ca0       __acrt_uninitialize_winapi_thunks 0000000180027ca0 f   libucrt:winapi_thunks.obj
 0001:000271c0       ?expand_if_necessary@?$argument_list@D@?A0xca0879c4@@AEAAHXZ 00000001800281c0 f i libucrt:argv_wildcards.obj
 0001:00027288       __acrt_expand_narrow_argv_wildcards 0000000180028288 f   libucrt:argv_wildcards.obj
 0001:00027290       ??$?RV<lambda_99476a1ad63dd22509b5d3e65b0ffc95>@@AEAV<lambda_ad1ced32f4ac17aa236e5ef05d6b3b7c>@@V<lambda_f7424dd8d45958661754dc4f2697e9c3>@@@?$__crt_seh_guarded_call@X@@QEAAX$$QEAV<lambda_99476a1ad63dd22509b5d3e65b0ffc95>@@AEAV<lambda_ad1ced32f4ac17aa236e5ef05d6b3b7c>@@$$QEAV<lambda_f7424dd8d45958661754dc4f2697e9c3>@@@Z 0000000180028290 f i libucrt:mbctype.obj
 0001:0002798c       __acrt_initialize_multibyte 000000018002898c f   libucrt:mbctype.obj
 0001:000279b4       __acrt_update_thread_multibyte_data 00000001800289b4 f   libucrt:mbctype.obj
 0001:00027a74       _setmbcp_nolock            0000000180028a74 f   libucrt:mbctype.obj
 0001:00027d94       _ismbblead                 0000000180028d94 f   libucrt:ismbbyte.obj
 0001:00027da8       __acrt_initialize_command_line 0000000180028da8 f   libucrt:argv_data.obj
 0001:00027dd0       __dcrt_get_narrow_environment_from_os 0000000180028dd0 f   libucrt:get_environment_from_os.obj
 0001:00027ed4       _recalloc                  0000000180028ed4 f   libucrt:recalloc.obj
 0001:00027edc       _recalloc_base             0000000180028edc f   libucrt:recalloc.obj
 0001:00027f74       __acrt_initialize_heap     0000000180028f74 f   libucrt:heap_handle.obj
 0001:00027f90       __acrt_uninitialize_heap   0000000180028f90 f   libucrt:heap_handle.obj
 0001:00027f9c       __acrt_execute_initializers 0000000180028f9c f   libucrt:shared_initialization.obj
 0001:00028030       __acrt_execute_uninitializers 0000000180029030 f   libucrt:shared_initialization.obj
 0001:00028080       __acrt_has_user_matherr    0000000180029080 f   libucrt:matherr.obj
 0001:000280a0       __acrt_initialize_user_matherr 00000001800290a0 f   libucrt:matherr.obj
 0001:000280a8       __acrt_invoke_user_matherr 00000001800290a8 f   libucrt:matherr.obj
 0001:000280f0       _query_new_mode            00000001800290f0 f   libucrt:new_mode.obj
 0001:000280f8       __pctype_func              00000001800290f8 f   libucrt:ctype.obj
 0001:00028128       iswctype                   0000000180029128 f   libucrt:iswctype.obj
 0001:00028198       _isctype_l                 0000000180029198 f   libucrt:isctype.obj
 0001:000282a8       __acrt_add_locale_ref      00000001800292a8 f   libucrt:locale_refcounting.obj
 0001:00028334       __acrt_free_locale         0000000180029334 f   libucrt:locale_refcounting.obj
 0001:000284ac       __acrt_locale_add_lc_time_reference 00000001800294ac f   libucrt:locale_refcounting.obj
 0001:000284d4       __acrt_locale_free_lc_time_if_unreferenced 00000001800294d4 f   libucrt:locale_refcounting.obj
 0001:0002850c       __acrt_locale_release_lc_time_reference 000000018002950c f   libucrt:locale_refcounting.obj
 0001:00028534       __acrt_release_locale_ref  0000000180029534 f   libucrt:locale_refcounting.obj
 0001:000285dc       __acrt_update_thread_locale_data 00000001800295dc f   libucrt:locale_refcounting.obj
 0001:0002864c       _updatetlocinfoEx_nolock   000000018002964c f   libucrt:locale_refcounting.obj
 0001:000286b4       _isleadbyte_l              00000001800296b4 f i libucrt:_wctype.obj
 0001:00028a50       __acrt_LCMapStringA        0000000180029a50 f   libucrt:lcmapstringa.obj
 0001:00028ae8       __acrt_fp_strflt_to_string 0000000180029ae8 f   libucrt:_fptostr.obj
 0001:00028bb0       ?divide@__crt_strtox@@YA_KAEAUbig_integer@1@AEBU21@@Z 0000000180029bb0 f i libucrt:cfout.obj
 0001:00029080       __acrt_fltout              000000018002a080 f   libucrt:cfout.obj
 0001:0002a684       __acrt_stdio_flush_and_write_narrow_nolock 000000018002b684 f   libucrt:_flsbuf.obj
 0001:0002a76c       __acrt_stdio_flush_and_write_wide_nolock 000000018002b76c f   libucrt:_flsbuf.obj
 0001:0002a858       _fcloseall                 000000018002b858 f   libucrt:closeall.obj
 0001:0002a90c       __acrt_stdio_free_buffer_nolock 000000018002b90c f   libucrt:_freebuf.obj
 0001:0002a94c       _isatty                    000000018002b94c f   libucrt:isatty.obj
 0001:0002a9ac       __acrt_locale_free_monetary 000000018002b9ac f   libucrt:initmon.obj
 0001:0002aab8       __acrt_locale_free_numeric 000000018002bab8 f   libucrt:initnum.obj
 0001:0002ab7c       __acrt_locale_free_time    000000018002bb7c f   libucrt:inittime.obj
 0001:0002ac84       __acrt_GetStringTypeA      000000018002bc84 f   libucrt:getstringtypea.obj
 0001:0002ae38       __acrt_lowio_create_handle_array 000000018002be38 f   libucrt:osfinfo.obj
 0001:0002aed0       __acrt_lowio_destroy_handle_array 000000018002bed0 f   libucrt:osfinfo.obj
 0001:0002af20       __acrt_lowio_ensure_fh_exists 000000018002bf20 f   libucrt:osfinfo.obj
 0001:0002afd8       __acrt_lowio_lock_fh       000000018002bfd8 f   libucrt:osfinfo.obj
 0001:0002affc       __acrt_lowio_unlock_fh     000000018002bffc f   libucrt:osfinfo.obj
 0001:0002b020       _free_osfhnd               000000018002c020 f   libucrt:osfinfo.obj
 0001:0002b0dc       _get_osfhandle             000000018002c0dc f   libucrt:osfinfo.obj
 0001:0002b154       ??$?RV<lambda_b521505b218e5242e90febf6bfebc422>@@AEAV<lambda_6978c1fb23f02e42e1d9e99668cc68aa>@@V<lambda_314360699dd331753a4119843814e9a7>@@@?$__crt_seh_guarded_call@H@@QEAAH$$QEAV<lambda_b521505b218e5242e90febf6bfebc422>@@AEAV<lambda_6978c1fb23f02e42e1d9e99668cc68aa>@@$$QEAV<lambda_314360699dd331753a4119843814e9a7>@@@Z 000000018002c154 f i libucrt:commit.obj
 0001:0002b1e0       _commit                    000000018002c1e0 f   libucrt:commit.obj
 0001:0002b814       _write                     000000018002c814 f   libucrt:write.obj
 0001:0002b900       _write_nolock              000000018002c900 f   libucrt:write.obj
 0001:0002bcac       __acrt_DownlevelLocaleNameToLCID 000000018002ccac f   libucrt:lcidtoname_downlevel.obj
 0001:0002bdb0       qsort                      000000018002cdb0 f   libucrt:qsort.obj
 0001:0002c0e4       strncpy_s                  000000018002d0e4 f   libucrt:strncpy_s.obj
 0001:0002c1b8       strpbrk                    000000018002d1b8 f   libucrt:strpbrk.obj
 0001:0002c258       _mbsdec                    000000018002d258 f   libucrt:mbsdec.obj
 0001:0002c260       _mbsdec_l                  000000018002d260 f   libucrt:mbsdec.obj
 0001:0002c310       _msize                     000000018002d310 f   libucrt:msize.obj
 0001:0002c34c       _realloc_base              000000018002d34c f   libucrt:realloc_base.obj
 0001:0002c3d0       __strncnt                  000000018002d3d0 f   libucrt:strncnt.obj
 0001:0002c3e8       fegetenv                   000000018002d3e8 f   libucrt:fegetenv.obj
 0001:0002c408       fesetenv                   000000018002d408 f   libucrt:fesetenv.obj
 0001:0002c454       feholdexcept               000000018002d454 f   libucrt:feholdexcept.obj
 0001:0002c4a4       ceil                       000000018002d4a4 f   libucrt:ceil.obj
 0001:0002c570       log10                      000000018002d570 f   libucrt:log10.obj
 0001:0002cca8       _lseeki64                  000000018002dca8 f   libucrt:lseek.obj
 0001:0002ccb0       _lseeki64_nolock           000000018002dcb0 f   libucrt:lseek.obj
 0001:0002ccb8       __acrt_stdio_allocate_buffer_nolock 000000018002dcb8 f   libucrt:_getbuf.obj
 0001:0002cd1c       _fclose_nolock             000000018002dd1c f   libucrt:fclose.obj
 0001:0002cda0       fclose                     000000018002dda0 f   libucrt:fclose.obj
 0001:0002ce0c       _putwch_nolock             000000018002de0c f   libucrt:putwch.obj
 0001:0002ce68       _getfpcontrolword          000000018002de68 f   libucrt:_fenvutils.obj
 0001:0002ce80       _getfpstatusword           000000018002de80 f   libucrt:_fenvutils.obj
 0001:0002ce94       _setfpcontrolword          000000018002de94 f   libucrt:_fenvutils.obj
 0001:0002cea0       _setfpstatusword           000000018002dea0 f   libucrt:_fenvutils.obj
 0001:0002cef0       _clearfp                   000000018002def0 f   libucrt:ieee.obj
 0001:0002cf44       _controlfp                 000000018002df44 f   libucrt:ieee.obj
 0001:0002cf50       _statusfp                  000000018002df50 f   libucrt:ieee.obj
 0001:0002d354       _handle_error              000000018002e354 f   libucrt:libm_error.obj
 0001:0002d47c       _handle_errorf             000000018002e47c f   libucrt:libm_error.obj
 0001:0002d5b0       _handle_nan                000000018002e5b0 f   libucrt:libm_error.obj
 0001:0002d5cc       _handle_nanf               000000018002e5cc f   libucrt:libm_error.obj
 0001:0002d5e0       __acrt_initialize_fma3     000000018002e5e0 f   libucrt:fma3_available.obj
 0001:0002d650       _log10_special             000000018002e650 f   libucrt:log_special.obj
 0001:0002d708       ??$?RV<lambda_bfedae4ebbf01fab1bb6dcc6a9e276e0>@@AEAV<lambda_2fe9b910cf3cbf4a0ab98a02ba45b3ec>@@V<lambda_237c231691f317818eb88cc1d5d642d6>@@@?$__crt_seh_guarded_call@H@@QEAAH$$QEAV<lambda_bfedae4ebbf01fab1bb6dcc6a9e276e0>@@AEAV<lambda_2fe9b910cf3cbf4a0ab98a02ba45b3ec>@@$$QEAV<lambda_237c231691f317818eb88cc1d5d642d6>@@@Z 000000018002e708 f i libucrt:close.obj
 0001:0002d77c       _close                     000000018002e77c f   libucrt:close.obj
 0001:0002d820       _close_nolock              000000018002e820 f   libucrt:close.obj
 0001:0002d8dc       ?__acrt_stdio_free_stream@@YAXV__crt_stdio_stream@@@Z 000000018002e8dc f   libucrt:stream.obj
 0001:0002d920       __dcrt_lowio_initialize_console_output 000000018002e920 f   libucrt:initcon.obj
 0001:0002d95c       __dcrt_terminate_console_output 000000018002e95c f   libucrt:initcon.obj
 0001:0002d990       _get_fpsr                  000000018002e990 f   libucrt:fpsr.obj
 0001:0002d9a0       _set_fpsr                  000000018002e9a0 f   libucrt:fpsr.obj
 0001:0002d9aa       _fclrf                     000000018002e9aa f   libucrt:fpsr.obj
 0001:0002d9be       _frnd                      000000018002e9be f   libucrt:fpsr.obj
 0001:0002d9e0       _raise_exc                 000000018002e9e0 f   libucrt:fpexcept.obj
 0001:0002da08       _raise_exc_ex              000000018002ea08 f   libucrt:fpexcept.obj
 0001:0002dd10       _raise_excf                000000018002ed10 f   libucrt:fpexcept.obj
 0001:0002dd3c       _set_errno_from_matherr    000000018002ed3c f   libucrt:fpexcept.obj
 0001:0002dd6c       _clrfp                     000000018002ed6c f   libucrt:fpctrl.obj
 0001:0002dd8c       _ctrlfp                    000000018002ed8c f   libucrt:fpctrl.obj
 0001:0002de08       _set_statfp                000000018002ee08 f   libucrt:fpctrl.obj
 0001:0002de28       _statfp                    000000018002ee28 f   libucrt:fpctrl.obj
 0001:0002de3a       IsProcessorFeaturePresent  000000018002ee3a f   kernel32:KERNEL32.dll
 0001:0002de40       RtlUnwindEx                000000018002ee40 f   kernel32:KERNEL32.dll
 0001:0002de48       ?DloadAcquireSectionWriteAccess@@YAXXZ 000000018002ee48 f i DelayImp:delayhlp.obj
 0001:0002df04       ?DloadGetSRWLockFunctionPointers@@YAEXZ 000000018002ef04 f i DelayImp:delayhlp.obj
 0001:0002dfa0       ?DloadMakePermanentImageCommit@@YAXPEAX_K@Z 000000018002efa0 f i DelayImp:delayhlp.obj
 0001:0002e038       ?DloadObtainSection@@YAPEAXPEAK0@Z 000000018002f038 f i DelayImp:delayhlp.obj
 0001:0002e0d0       ?DloadProtectSection@@YAXKPEAK@Z 000000018002f0d0 f i DelayImp:delayhlp.obj
 0001:0002e160       ?DloadReleaseSectionWriteAccess@@YAXXZ 000000018002f160 f i DelayImp:delayhlp.obj
 0001:0002e204       __delayLoadHelper2         000000018002f204 f   DelayImp:delayhlp.obj
 0001:0002e500       _FindPESection             000000018002f500 f   LIBCMT:pesect.obj
 0001:0002e550       _IsNonwritableInCurrentImage 000000018002f550 f   LIBCMT:pesect.obj
 0001:0002e5a0       _ValidateImageBase         000000018002f5a0 f   LIBCMT:pesect.obj
 0001:0002e5d0       __GSHandlerCheck           000000018002f5d0 f   LIBCMT:_gshandler_.obj
 0001:0002e5f0       __GSHandlerCheckCommon     000000018002f5f0 f   LIBCMT:_gshandler_.obj
 0001:0002e660       __chkstk                   000000018002f660 f   LIBCMT:_chkstk_.obj
 0001:0002e660       _alloca_probe              000000018002f660 f   LIBCMT:_chkstk_.obj
 0001:0002e6b4       strrchr                    000000018002f6b4 f   libvcruntime:strrchr.obj
 0001:0002e810       memcmp                     000000018002f810 f   libvcruntime:memcmp.obj
 0001:0002e8d8       ?_ExecutionInCatch@@YAHPEAU_xDISPATCHER_CONTEXT@@PEBU_s_FuncInfo@@@Z 000000018002f8d8 f   libvcruntime:trnsctrl.obj
 0001:0002e94c       ?_GetEstablisherFrame@@YAPEA_KPEA_KPEAU_xDISPATCHER_CONTEXT@@PEBU_s_FuncInfo@@0@Z 000000018002f94c f   libvcruntime:trnsctrl.obj
 0001:0002ea18       ?_GetRangeOfTrysToCheck@@YAPEBU_s_TryBlockMapEntry@@PEA_KPEBU_s_FuncInfo@@HHPEAI2PEAU_xDISPATCHER_CONTEXT@@@Z 000000018002fa18 f   libvcruntime:trnsctrl.obj
 0001:0002eb44       ?__FrameUnwindToEmptyState@@YAXPEA_KPEAU_xDISPATCHER_CONTEXT@@PEBU_s_FuncInfo@@@Z 000000018002fb44 f   libvcruntime:trnsctrl.obj
 0001:0002ebd8       ?__SehTransFilter@@YAHPEAU_EXCEPTION_POINTERS@@PEAUEHExceptionRecord@@PEA_KPEAU_CONTEXT@@PEAU_xDISPATCHER_CONTEXT@@PEBU_s_FuncInfo@@PEAH@Z 000000018002fbd8 f   libvcruntime:trnsctrl.obj
 0001:0002ec70       _CallSETranslator          000000018002fc70 f   libvcruntime:trnsctrl.obj
 0001:0002ecc8       _CreateFrameInfo           000000018002fcc8 f   libvcruntime:trnsctrl.obj
 0001:0002ed04       _FindAndUnlinkFrame        000000018002fd04 f   libvcruntime:trnsctrl.obj
 0001:0002ed5c       _GetImageBase              000000018002fd5c f   libvcruntime:trnsctrl.obj
 0001:0002ed70       _GetThrowImageBase         000000018002fd70 f   libvcruntime:trnsctrl.obj
 0001:0002ed84       _IsExceptionObjectToBeDestroyed 000000018002fd84 f   libvcruntime:trnsctrl.obj
 0001:0002edb4       _SetImageBase              000000018002fdb4 f   libvcruntime:trnsctrl.obj
 0001:0002edcc       _SetThrowImageBase         000000018002fdcc f   libvcruntime:trnsctrl.obj
 0001:0002ede4       _UnwindNestedFrames        000000018002fde4 f   libvcruntime:trnsctrl.obj
 0001:0002ef08       __CxxFrameHandler3         000000018002ff08 f   libvcruntime:trnsctrl.obj
 0001:0002ef88       ?__GetCurrentState@@YAHPEA_KPEAU_xDISPATCHER_CONTEXT@@PEBU_s_FuncInfo@@@Z 000000018002ff88 f   libvcruntime:ehstate.obj
 0001:0002efb0       ?__GetUnwindTryBlock@@YAHPEA_KPEAU_xDISPATCHER_CONTEXT@@PEBU_s_FuncInfo@@@Z 000000018002ffb0 f   libvcruntime:ehstate.obj
 0001:0002efdc       ?__SetState@@YAXPEA_KPEAU_xDISPATCHER_CONTEXT@@PEBU_s_FuncInfo@@H@Z 000000018002ffdc f   libvcruntime:ehstate.obj
 0001:0002efe8       ?__SetUnwindTryBlock@@YAXPEA_KPEAU_xDISPATCHER_CONTEXT@@PEBU_s_FuncInfo@@H@Z 000000018002ffe8 f   libvcruntime:ehstate.obj
 0001:0002f024       ?__StateFromControlPc@@YAHPEBU_s_FuncInfo@@PEAU_xDISPATCHER_CONTEXT@@@Z 0000000180030024 f   libvcruntime:ehstate.obj
 0001:0002f02c       ?__StateFromIp@@YAHPEBU_s_FuncInfo@@PEAU_xDISPATCHER_CONTEXT@@_J@Z 000000018003002c f   libvcruntime:ehstate.obj
 0001:0002f098       __DestructExceptionObject  0000000180030098 f   libvcruntime:frame.obj
 0001:0002f120       ??0bad_exception@std@@QEAA@AEBV01@@Z 0000000180030120 f i libvcruntime:frame.obj
 0001:0002f160       ??0bad_exception@std@@QEAA@XZ 0000000180030160 f i libvcruntime:frame.obj
 0001:0002fadc       ?_CallMemberFunction0@@YAXPEAXP6AX0@Z@Z 0000000180030adc f i libvcruntime:frame.obj
 0001:0002fae0       ?_CallMemberFunction1@@YAXPEAXP6AX0@Z0@Z 0000000180030ae0 f i libvcruntime:frame.obj
 0001:0002faec       ?_CallMemberFunction2@@YAXPEAXP6AX0@Z0H@Z 0000000180030aec f i libvcruntime:frame.obj
 0001:0002fafc       __AdjustPointer            0000000180030afc f   libvcruntime:frame.obj
 0001:0002fb20       __BuildCatchObject         0000000180030b20 f   libvcruntime:frame.obj
 0001:0002fbe4       __BuildCatchObjectHelper   0000000180030be4 f   libvcruntime:frame.obj
 0001:0002fdc4       __CxxCallCatchBlock        0000000180030dc4 f   libvcruntime:frame.obj
 0001:0002ffb0       __FrameUnwindFilter        0000000180030fb0 f   libvcruntime:frame.obj
 0001:0002fffc       __FrameUnwindToState       0000000180030ffc f   libvcruntime:frame.obj
 0001:00030190       __InternalCxxFrameHandler  0000000180031190 f   libvcruntime:frame.obj
 0001:000303e8       __TypeMatch                00000001800313e8 f   libvcruntime:frame.obj
 0001:00030540       _CallSettingFrame          0000000180031540 f   libvcruntime:handlers.obj
 0001:00030580       sqrtf                      0000000180031580 f   libucrt:sqrtf.obj
 0001:00030640       _guard_dispatch_icall_nop  0000000180031640 f   LIBCMT:_guard_dispatch_.obj
 0002:00000000       __imp_GetModuleHandleA     0000000180032000     kernel32:KERNEL32.dll
 0002:00000008       __imp_RtlCaptureContext    0000000180032008     kernel32:KERNEL32.dll
 0002:00000010       __imp_RtlLookupFunctionEntry 0000000180032010     kernel32:KERNEL32.dll
 0002:00000018       __imp_RtlVirtualUnwind     0000000180032018     kernel32:KERNEL32.dll
 0002:00000020       __imp_UnhandledExceptionFilter 0000000180032020     kernel32:KERNEL32.dll
 0002:00000028       __imp_SetUnhandledExceptionFilter 0000000180032028     kernel32:KERNEL32.dll
 0002:00000030       __imp_GetCurrentProcess    0000000180032030     kernel32:KERNEL32.dll
 0002:00000038       __imp_TerminateProcess     0000000180032038     kernel32:KERNEL32.dll
 0002:00000040       __imp_IsProcessorFeaturePresent 0000000180032040     kernel32:KERNEL32.dll
 0002:00000048       __imp_IsDebuggerPresent    0000000180032048     kernel32:KERNEL32.dll
 0002:00000050       __imp_GetStartupInfoW      0000000180032050     kernel32:KERNEL32.dll
 0002:00000058       __imp_GetModuleHandleW     0000000180032058     kernel32:KERNEL32.dll
 0002:00000060       __imp_QueryPerformanceCounter 0000000180032060     kernel32:KERNEL32.dll
 0002:00000068       __imp_GetCurrentProcessId  0000000180032068     kernel32:KERNEL32.dll
 0002:00000070       __imp_GetCurrentThreadId   0000000180032070     kernel32:KERNEL32.dll
 0002:00000078       __imp_GetSystemTimeAsFileTime 0000000180032078     kernel32:KERNEL32.dll
 0002:00000080       __imp_InitializeSListHead  0000000180032080     kernel32:KERNEL32.dll
 0002:00000088       __imp_RtlPcToFileHeader    0000000180032088     kernel32:KERNEL32.dll
 0002:00000090       __imp_RaiseException       0000000180032090     kernel32:KERNEL32.dll
 0002:00000098       __imp_RtlUnwindEx          0000000180032098     kernel32:KERNEL32.dll
 0002:000000a0       __imp_InterlockedFlushSList 00000001800320a0     kernel32:KERNEL32.dll
 0002:000000a8       __imp_GetLastError         00000001800320a8     kernel32:KERNEL32.dll
 0002:000000b0       __imp_SetLastError         00000001800320b0     kernel32:KERNEL32.dll
 0002:000000b8       __imp_EnterCriticalSection 00000001800320b8     kernel32:KERNEL32.dll
 0002:000000c0       __imp_LeaveCriticalSection 00000001800320c0     kernel32:KERNEL32.dll
 0002:000000c8       __imp_DeleteCriticalSection 00000001800320c8     kernel32:KERNEL32.dll
 0002:000000d0       __imp_InitializeCriticalSectionAndSpinCount 00000001800320d0     kernel32:KERNEL32.dll
 0002:000000d8       __imp_TlsAlloc             00000001800320d8     kernel32:KERNEL32.dll
 0002:000000e0       __imp_TlsGetValue          00000001800320e0     kernel32:KERNEL32.dll
 0002:000000e8       __imp_TlsSetValue          00000001800320e8     kernel32:KERNEL32.dll
 0002:000000f0       __imp_TlsFree              00000001800320f0     kernel32:KERNEL32.dll
 0002:000000f8       __imp_FreeLibrary          00000001800320f8     kernel32:KERNEL32.dll
 0002:00000100       __imp_GetProcAddress       0000000180032100     kernel32:KERNEL32.dll
 0002:00000108       __imp_LoadLibraryExW       0000000180032108     kernel32:KERNEL32.dll
 0002:00000110       __imp_GetStdHandle         0000000180032110     kernel32:KERNEL32.dll
 0002:00000118       __imp_GetFileType          0000000180032118     kernel32:KERNEL32.dll
 0002:00000120       __imp_GetModuleFileNameA   0000000180032120     kernel32:KERNEL32.dll
 0002:00000128       __imp_GetModuleFileNameW   0000000180032128     kernel32:KERNEL32.dll
 0002:00000130       __imp_GetModuleHandleExW   0000000180032130     kernel32:KERNEL32.dll
 0002:00000138       __imp_WriteConsoleW        0000000180032138     kernel32:KERNEL32.dll
 0002:00000140       __imp_ExitProcess          0000000180032140     kernel32:KERNEL32.dll
 0002:00000148       __imp_MultiByteToWideChar  0000000180032148     kernel32:KERNEL32.dll
 0002:00000150       __imp_WideCharToMultiByte  0000000180032150     kernel32:KERNEL32.dll
 0002:00000158       __imp_HeapFree             0000000180032158     kernel32:KERNEL32.dll
 0002:00000160       __imp_HeapAlloc            0000000180032160     kernel32:KERNEL32.dll
 0002:00000168       __imp_GetACP               0000000180032168     kernel32:KERNEL32.dll
 0002:00000170       __imp_WriteFile            0000000180032170     kernel32:KERNEL32.dll
 0002:00000178       __imp_OutputDebugStringW   0000000180032178     kernel32:KERNEL32.dll
 0002:00000180       __imp_CloseHandle          0000000180032180     kernel32:KERNEL32.dll
 0002:00000188       __imp_WaitForSingleObjectEx 0000000180032188     kernel32:KERNEL32.dll
 0002:00000190       __imp_CreateThread         0000000180032190     kernel32:KERNEL32.dll
 0002:00000198       __imp_LCMapStringW         0000000180032198     kernel32:KERNEL32.dll
 0002:000001a0       __imp_FindClose            00000001800321a0     kernel32:KERNEL32.dll
 0002:000001a8       __imp_FindFirstFileExA     00000001800321a8     kernel32:KERNEL32.dll
 0002:000001b0       __imp_FindNextFileA        00000001800321b0     kernel32:KERNEL32.dll
 0002:000001b8       __imp_IsValidCodePage      00000001800321b8     kernel32:KERNEL32.dll
 0002:000001c0       __imp_GetOEMCP             00000001800321c0     kernel32:KERNEL32.dll
 0002:000001c8       __imp_GetCPInfo            00000001800321c8     kernel32:KERNEL32.dll
 0002:000001d0       __imp_GetCommandLineA      00000001800321d0     kernel32:KERNEL32.dll
 0002:000001d8       __imp_GetCommandLineW      00000001800321d8     kernel32:KERNEL32.dll
 0002:000001e0       __imp_GetEnvironmentStringsW 00000001800321e0     kernel32:KERNEL32.dll
 0002:000001e8       __imp_FreeEnvironmentStringsW 00000001800321e8     kernel32:KERNEL32.dll
 0002:000001f0       __imp_GetProcessHeap       00000001800321f0     kernel32:KERNEL32.dll
 0002:000001f8       __imp_GetStringTypeW       00000001800321f8     kernel32:KERNEL32.dll
 0002:00000200       __imp_SetStdHandle         0000000180032200     kernel32:KERNEL32.dll
 0002:00000208       __imp_FlushFileBuffers     0000000180032208     kernel32:KERNEL32.dll
 0002:00000210       __imp_GetConsoleCP         0000000180032210     kernel32:KERNEL32.dll
 0002:00000218       __imp_GetConsoleMode       0000000180032218     kernel32:KERNEL32.dll
 0002:00000220       __imp_HeapSize             0000000180032220     kernel32:KERNEL32.dll
 0002:00000228       __imp_HeapReAlloc          0000000180032228     kernel32:KERNEL32.dll
 0002:00000230       __imp_SetFilePointerEx     0000000180032230     kernel32:KERNEL32.dll
 0002:00000238       __imp_CreateFileW          0000000180032238     kernel32:KERNEL32.dll
 0002:00000240       __imp_GetSystemInfo        0000000180032240     kernel32:KERNEL32.dll
 0002:00000248       __imp_VirtualProtect       0000000180032248     kernel32:KERNEL32.dll
 0002:00000250       __imp_VirtualQuery         0000000180032250     kernel32:KERNEL32.dll
 0002:00000258       __imp_LoadLibraryExA       0000000180032258     kernel32:KERNEL32.dll
 0002:00000260       __imp_EncodePointer        0000000180032260     kernel32:KERNEL32.dll
 0002:00000268       \177KERNEL32_NULL_THUNK_DATA 0000000180032268     kernel32:KERNEL32.dll
 0002:00000270       __guard_check_icall_fptr   0000000180032270     LIBCMT:guard_support.obj
 0002:00000278       __guard_dispatch_icall_fptr 0000000180032278     LIBCMT:guard_support.obj
 0002:00000280       __xc_a                     0000000180032280     LIBCMT:initializers.obj
 0002:00000288       _register_libRVO_          0000000180032288     libRVO_wrap.obj
 0002:000002f0       __xc_z                     00000001800322f0     LIBCMT:initializers.obj
 0002:000002f8       __xi_a                     00000001800322f8     LIBCMT:initializers.obj
 0002:00000300       __acrt_stdio_initializer   0000000180032300     libucrt:stdio_initializer.obj
 0002:00000308       __acrt_multibyte_initializer 0000000180032308     libucrt:multibyte_initializer.obj
 0002:00000310       __acrt_tran_fma3_initializer 0000000180032310     libucrt:fma3_initializer.obj
 0002:00000318       __xi_z                     0000000180032318     LIBCMT:initializers.obj
 0002:00000320       __xp_a                     0000000180032320     LIBCMT:initializers.obj
 0002:00000328       __acrt_locale_terminator   0000000180032328     libucrt:locale_initializer.obj
 0002:00000330       __dcrt_console_output_terminator 0000000180032330     libucrt:console_output_initializer.obj
 0002:00000338       __acrt_stdio_terminator    0000000180032338     libucrt:stdio_initializer.obj
 0002:00000340       __xp_z                     0000000180032340     LIBCMT:initializers.obj
 0002:00000348       __xt_a                     0000000180032348     LIBCMT:initializers.obj
 0002:00000350       __xt_z                     0000000180032350     LIBCMT:initializers.obj
 0002:00000360       __sz_node_exe              0000000180032360     node:node.exe
 0002:00000378       ??_7exception@std@@6B@     0000000180032378     libcpmt:xthrow.obj
 0002:00000388       ??_C@_0BC@EOODALEL@Unknown?5exception?$AA@ 0000000180032388     libcpmt:xthrow.obj
 0002:000003a8       ??_7bad_alloc@std@@6B@     00000001800323a8     libcpmt:xthrow.obj
 0002:000003b8       ??_C@_0P@GHFPNOJB@bad?5allocation?$AA@ 00000001800323b8     libcpmt:xthrow.obj
 0002:000003d0       ??_7logic_error@std@@6B@   00000001800323d0     libcpmt:xthrow.obj
 0002:000003e8       ??_7length_error@std@@6B@  00000001800323e8     libcpmt:xthrow.obj
 0002:00000400       ??_7out_of_range@std@@6B@  0000000180032400     libcpmt:xthrow.obj
 0002:00000418       ??_7type_info@@6B@         0000000180032418     LIBCMT:std_type_info_static.obj
 0002:00000420       _pDefaultRawDllMain        0000000180032420     LIBCMT:dll_dllmain.obj
 0002:00000420       _pRawDllMain               0000000180032420     LIBCMT:dll_dllmain.obj
 0002:00000440       ??_7bad_array_new_length@std@@6B@ 0000000180032440     LIBCMT:throw_bad_alloc.obj
 0002:00000450       ??_C@_0BF@KINCDENJ@bad?5array?5new?5length?$AA@ 0000000180032450     LIBCMT:throw_bad_alloc.obj
 0002:000004d0       ??_C@_1BC@DNHGCMLG@?$AAa?$AAd?$AAv?$AAa?$AAp?$AAi?$AA3?$AA2?$AA?$AA@ 00000001800324d0     libvcruntime:winapi_downlevel.obj
 0002:000004e8       ??_C@_1DM@KHCHBNEB@?$AAa?$AAp?$AAi?$AA?9?$AAm?$AAs?$AA?9?$AAw?$AAi?$AAn?$AA?9?$AAc?$AAo?$AAr?$AAe?$AA?9?$AAf?$AAi?$AAb?$AAe?$AAr?$AAs?$AA?9?$AAl?$AA1?$AA?9?$AA1?$AA?9?$AA1?$AA?$AA@ 00000001800324e8     libvcruntime:winapi_downlevel.obj
 0002:00000528       ??_C@_1DK@LPPGFMPP@?$AAa?$AAp?$AAi?$AA?9?$AAm?$AAs?$AA?9?$AAw?$AAi?$AAn?$AA?9?$AAc?$AAo?$AAr?$AAe?$AA?9?$AAs?$AAy?$AAn?$AAc?$AAh?$AA?9?$AAl?$AA1?$AA?9?$AA2?$AA?9?$AA0?$AA?$AA@ 0000000180032528     libvcruntime:winapi_downlevel.obj
 0002:00000568       ??_C@_1BC@GDMECMAK@?$AAk?$AAe?$AAr?$AAn?$AAe?$AAl?$AA3?$AA2?$AA?$AA@ 0000000180032568     libvcruntime:winapi_downlevel.obj
 0002:00000588       ??_C@_08KNHFBNJ@FlsAlloc?$AA@ 0000000180032588     libvcruntime:winapi_downlevel.obj
 0002:000005a0       ??_C@_07PEJMOBNF@FlsFree?$AA@ 00000001800325a0     libvcruntime:winapi_downlevel.obj
 0002:000005b0       ??_C@_0M@GDNOONDI@FlsGetValue?$AA@ 00000001800325b0     libvcruntime:winapi_downlevel.obj
 0002:000005c8       ??_C@_0M@JCPCPOEF@FlsSetValue?$AA@ 00000001800325c8     libvcruntime:winapi_downlevel.obj
 0002:000005e0       ??_C@_0BM@HCFOFFN@InitializeCriticalSectionEx?$AA@ 00000001800325e0     libvcruntime:winapi_downlevel.obj
 0002:00000920       ??_C@_08EHJDFFNH@__based?$CI?$AA@ 0000000180032920     libvcruntime:undname.obj
 0002:00000930       ??_C@_07KOLFKCDI@__cdecl?$AA@ 0000000180032930     libvcruntime:undname.obj
 0002:00000938       ??_C@_08GHMPAG@__pascal?$AA@ 0000000180032938     libvcruntime:undname.obj
 0002:00000948       ??_C@_09IFJBGAPI@__stdcall?$AA@ 0000000180032948     libvcruntime:undname.obj
 0002:00000958       ??_C@_0L@NPHFGOKO@__thiscall?$AA@ 0000000180032958     libvcruntime:undname.obj
 0002:00000968       ??_C@_0L@JMKHOMEK@__fastcall?$AA@ 0000000180032968     libvcruntime:undname.obj
 0002:00000978       ??_C@_0N@BCKKPABJ@__vectorcall?$AA@ 0000000180032978     libvcruntime:undname.obj
 0002:00000988       ??_C@_09HIJEGCPM@__clrcall?$AA@ 0000000180032988     libvcruntime:undname.obj
 0002:00000994       ??_C@_06GHPCKEAG@__eabi?$AA@ 0000000180032994     libvcruntime:undname.obj
 0002:000009a0       ??_C@_07JOMMBBKO@__ptr64?$AA@ 00000001800329a0     libvcruntime:undname.obj
 0002:000009a8       ??_C@_0L@PILCLIHE@__restrict?$AA@ 00000001800329a8     libvcruntime:undname.obj
 0002:000009b8       ??_C@_0M@GFIIJFMG@__unaligned?$AA@ 00000001800329b8     libvcruntime:undname.obj
 0002:000009c8       ??_C@_09DHDLOLLB@restrict?$CI?$AA@ 00000001800329c8     libvcruntime:undname.obj
 0002:000009d2       ??_C@_00CNPNBAHC@?$AA@     00000001800329d2     libvcruntime:undname.obj
 0002:000009d4       ??_C@_04NIHEBCM@?5new?$AA@ 00000001800329d4     libvcruntime:undname.obj
 0002:000009e0       ??_C@_07FPCDHGMM@?5delete?$AA@ 00000001800329e0     libvcruntime:undname.obj
 0002:000009e8       ??_C@_01NEMOKFLO@?$DN?$AA@ 00000001800329e8     libvcruntime:undname.obj
 0002:000009ec       ??_C@_02GPIOPFAK@?$DO?$DO?$AA@ 00000001800329ec     libvcruntime:undname.obj
 0002:000009f0       ??_C@_02FODMEDOG@?$DM?$DM?$AA@ 00000001800329f0     libvcruntime:undname.obj
 0002:000009f4       ??_C@_01DCLJPIOD@?$CB?$AA@ 00000001800329f4     libvcruntime:undname.obj
 0002:000009f8       ??_C@_02EGOFBIJA@?$DN?$DN?$AA@ 00000001800329f8     libvcruntime:undname.obj
 0002:000009fc       ??_C@_02FDNJECIE@?$CB?$DN?$AA@ 00000001800329fc     libvcruntime:undname.obj
 0002:00000a00       ??_C@_02GPECMEKF@?$FL?$FN?$AA@ 0000000180032a00     libvcruntime:undname.obj
 0002:00000a08       ??_C@_08LHJFAFGD@operator?$AA@ 0000000180032a08     libvcruntime:undname.obj
 0002:00000a14       ??_C@_02HBOOOICD@?9?$DO?$AA@ 0000000180032a14     libvcruntime:undname.obj
 0002:00000a18       ??_C@_01NBENCBCI@?$CK?$AA@ 0000000180032a18     libvcruntime:undname.obj
 0002:00000a1c       ??_C@_02ECNGHCIF@?$CL?$CL?$AA@ 0000000180032a1c     libvcruntime:undname.obj
 0002:00000a20       ??_C@_02BAABKJLB@?9?9?$AA@ 0000000180032a20     libvcruntime:undname.obj
 0002:00000a24       ??_C@_01JOAMLHOP@?9?$AA@   0000000180032a24     libvcruntime:undname.obj
 0002:00000a28       ??_C@_01MIFGBAGJ@?$CL?$AA@ 0000000180032a28     libvcruntime:undname.obj
 0002:00000a2c       ??_C@_01HNPIGOCE@?$CG?$AA@ 0000000180032a2c     libvcruntime:undname.obj
 0002:00000a30       ??_C@_03MNHNFDLC@?9?$DO?$CK?$AA@ 0000000180032a30     libvcruntime:undname.obj
 0002:00000a34       ??_C@_01KMDKNFGN@?1?$AA@   0000000180032a34     libvcruntime:undname.obj
 0002:00000a38       ??_C@_01FGNFDNOH@?$CF?$AA@ 0000000180032a38     libvcruntime:undname.obj
 0002:00000a3c       ??_C@_01MNNFJEPP@?$DM?$AA@ 0000000180032a3c     libvcruntime:undname.obj
 0002:00000a40       ??_C@_02EHCHHCKH@?$DM?$DN?$AA@ 0000000180032a40     libvcruntime:undname.obj
 0002:00000a44       ??_C@_01PPODPGHN@?$DO?$AA@ 0000000180032a44     libvcruntime:undname.obj
 0002:00000a48       ??_C@_02EEKDKGMJ@?$DO?$DN?$AA@ 0000000180032a48     libvcruntime:undname.obj
 0002:00000a4c       ??_C@_01IHBHIGKO@?0?$AA@   0000000180032a4c     libvcruntime:undname.obj
 0002:00000a50       ??_C@_02HCKGKOFO@?$CI?$CJ?$AA@ 0000000180032a50     libvcruntime:undname.obj
 0002:00000a54       ??_C@_01PJKLJHI@?$HO?$AA@  0000000180032a54     libvcruntime:undname.obj
 0002:00000a58       ??_C@_01JKBOJNNK@?$FO?$AA@ 0000000180032a58     libvcruntime:undname.obj
 0002:00000a5c       ??_C@_01DNKMNLPK@?$HM?$AA@ 0000000180032a5c     libvcruntime:undname.obj
 0002:00000a60       ??_C@_02PPKAJPJL@?$CG?$CG?$AA@ 0000000180032a60     libvcruntime:undname.obj
 0002:00000a64       ??_C@_02NONPIBCD@?$HM?$HM?$AA@ 0000000180032a64     libvcruntime:undname.obj
 0002:00000a68       ??_C@_02FPIMKNGF@?$CK?$DN?$AA@ 0000000180032a68     libvcruntime:undname.obj
 0002:00000a6c       ??_C@_02FOEOMHFC@?$CL?$DN?$AA@ 0000000180032a6c     libvcruntime:undname.obj
 0002:00000a70       ??_C@_02FKMDLLOA@?9?$DN?$AA@ 0000000180032a70     libvcruntime:undname.obj
 0002:00000a74       ??_C@_02FJEHGPIO@?1?$DN?$AA@ 0000000180032a74     libvcruntime:undname.obj
 0002:00000a78       ??_C@_02FENAOKFI@?$CF?$DN?$AA@ 0000000180032a78     libvcruntime:undname.obj
 0002:00000a7c       ??_C@_03IKFCCPFF@?$DO?$DO?$DN?$AA@ 0000000180032a7c     libvcruntime:undname.obj
 0002:00000a80       ??_C@_03CDNPDDLA@?$DM?$DM?$DN?$AA@ 0000000180032a80     libvcruntime:undname.obj
 0002:00000a84       ??_C@_02FGJGFEAB@?$CG?$DN?$AA@ 0000000180032a84     libvcruntime:undname.obj
 0002:00000a88       ??_C@_02DHLNPPGH@?$HM?$DN?$AA@ 0000000180032a88     libvcruntime:undname.obj
 0002:00000a8c       ??_C@_02MHEGNOJ@?$FO?$DN?$AA@ 0000000180032a8c     libvcruntime:undname.obj
 0002:00000a90       ??_C@_09IFPLHPGF@?$GAvftable?8?$AA@ 0000000180032a90     libvcruntime:undname.obj
 0002:00000aa0       ??_C@_09BLBHBJP@?$GAvbtable?8?$AA@ 0000000180032aa0     libvcruntime:undname.obj
 0002:00000ab0       ??_C@_07FEEIOKP@?$GAvcall?8?$AA@ 0000000180032ab0     libvcruntime:undname.obj
 0002:00000ab8       ??_C@_08LLFFHHDJ@?$GAtypeof?8?$AA@ 0000000180032ab8     libvcruntime:undname.obj
 0002:00000ac8       ??_C@_0BF@KDPPACIK@?$GAlocal?5static?5guard?8?$AA@ 0000000180032ac8     libvcruntime:undname.obj
 0002:00000ae0       ??_C@_08OBABFOLI@?$GAstring?8?$AA@ 0000000180032ae0     libvcruntime:undname.obj
 0002:00000af0       ??_C@_0BD@JDLKDPAB@?$GAvbase?5destructor?8?$AA@ 0000000180032af0     libvcruntime:undname.obj
 0002:00000b08       ??_C@_0BN@DEGPLNFK@?$GAvector?5deleting?5destructor?8?$AA@ 0000000180032b08     libvcruntime:undname.obj
 0002:00000b28       ??_C@_0BO@OBMKPJIG@?$GAdefault?5constructor?5closure?8?$AA@ 0000000180032b28     libvcruntime:undname.obj
 0002:00000b48       ??_C@_0BN@IMDCHIKM@?$GAscalar?5deleting?5destructor?8?$AA@ 0000000180032b48     libvcruntime:undname.obj
 0002:00000b68       ??_C@_0BO@PFGOCPJJ@?$GAvector?5constructor?5iterator?8?$AA@ 0000000180032b68     libvcruntime:undname.obj
 0002:00000b88       ??_C@_0BN@LFPFMEDL@?$GAvector?5destructor?5iterator?8?$AA@ 0000000180032b88     libvcruntime:undname.obj
 0002:00000ba8       ??_C@_0CE@IKBNEHA@?$GAvector?5vbase?5constructor?5iterat@ 0000000180032ba8     libvcruntime:undname.obj
 0002:00000bd0       ??_C@_0BL@NILFHHPC@?$GAvirtual?5displacement?5map?8?$AA@ 0000000180032bd0     libvcruntime:undname.obj
 0002:00000bf0       ??_C@_0CB@JONCMFFK@?$GAeh?5vector?5constructor?5iterator?8@ 0000000180032bf0     libvcruntime:undname.obj
 0002:00000c18       ??_C@_0CA@GCEOPDGL@?$GAeh?5vector?5destructor?5iterator?8?$AA@ 0000000180032c18     libvcruntime:undname.obj
 0002:00000c38       ??_C@_0CH@OOJPLCPH@?$GAeh?5vector?5vbase?5constructor?5ite@ 0000000180032c38     libvcruntime:undname.obj
 0002:00000c60       ??_C@_0BL@LLKPOHJI@?$GAcopy?5constructor?5closure?8?$AA@ 0000000180032c60     libvcruntime:undname.obj
 0002:00000c80       ??_C@_0BA@KBCDOMBN@?$GAudt?5returning?8?$AA@ 0000000180032c80     libvcruntime:undname.obj
 0002:00000c90       ??_C@_03KLGMFNMG@?$GAEH?$AA@ 0000000180032c90     libvcruntime:undname.obj
 0002:00000c94       ??_C@_05KHLCHHI@?$GARTTI?$AA@ 0000000180032c94     libvcruntime:undname.obj
 0002:00000ca0       ??_C@_0BA@KKLDJDLB@?$GAlocal?5vftable?8?$AA@ 0000000180032ca0     libvcruntime:undname.obj
 0002:00000cb0       ??_C@_0CE@IIHCMGGL@?$GAlocal?5vftable?5constructor?5closu@ 0000000180032cb0     libvcruntime:undname.obj
 0002:00000cd4       ??_C@_06FHBGPFGH@?5new?$FL?$FN?$AA@ 0000000180032cd4     libvcruntime:undname.obj
 0002:00000ce0       ??_C@_09LBNFPBCA@?5delete?$FL?$FN?$AA@ 0000000180032ce0     libvcruntime:undname.obj
 0002:00000cf0       ??_C@_0P@HJKNJFNN@?$GAomni?5callsig?8?$AA@ 0000000180032cf0     libvcruntime:undname.obj
 0002:00000d00       ??_C@_0BL@CNOONJFP@?$GAplacement?5delete?5closure?8?$AA@ 0000000180032d00     libvcruntime:undname.obj
 0002:00000d20       ??_C@_0BN@CKNJLHMB@?$GAplacement?5delete?$FL?$FN?5closure?8?$AA@ 0000000180032d20     libvcruntime:undname.obj
 0002:00000d40       ??_C@_0CG@CFDHKGGD@?$GAmanaged?5vector?5constructor?5iter@ 0000000180032d40     libvcruntime:undname.obj
 0002:00000d68       ??_C@_0CF@IMGKMJNO@?$GAmanaged?5vector?5destructor?5itera@ 0000000180032d68     libvcruntime:undname.obj
 0002:00000d90       ??_C@_0CG@HLDDJMAG@?$GAeh?5vector?5copy?5constructor?5iter@ 0000000180032d90     libvcruntime:undname.obj
 0002:00000db8       ??_C@_0CM@FCBBDIGB@?$GAeh?5vector?5vbase?5copy?5constructo@ 0000000180032db8     libvcruntime:undname.obj
 0002:00000de8       ??_C@_0BL@CLIPGLGB@?$GAdynamic?5initializer?5for?5?8?$AA@ 0000000180032de8     libvcruntime:undname.obj
 0002:00000e08       ??_C@_0CB@PDBIFEP@?$GAdynamic?5atexit?5destructor?5for?5?8@ 0000000180032e08     libvcruntime:undname.obj
 0002:00000e30       ??_C@_0CD@CGAJBKEJ@?$GAvector?5copy?5constructor?5iterato@ 0000000180032e30     libvcruntime:undname.obj
 0002:00000e58       ??_C@_0CJ@GJELGAMM@?$GAvector?5vbase?5copy?5constructor?5i@ 0000000180032e58     libvcruntime:undname.obj
 0002:00000e88       ??_C@_0CL@FGIJHLCE@?$GAmanaged?5vector?5copy?5constructor@ 0000000180032e88     libvcruntime:undname.obj
 0002:00000eb8       ??_C@_0BM@PMGGMLDN@?$GAlocal?5static?5thread?5guard?8?$AA@ 0000000180032eb8     libvcruntime:undname.obj
 0002:00000ed8       ??_C@_0N@BDNMDMOL@operator?5?$CC?$CC?5?$AA@ 0000000180032ed8     libvcruntime:undname.obj
 0002:00000ee8       ??_C@_0BC@DAFEJGAK@?5Type?5Descriptor?8?$AA@ 0000000180032ee8     libvcruntime:undname.obj
 0002:00000f00       ??_C@_0BM@LDKODKLH@?5Base?5Class?5Descriptor?5at?5?$CI?$AA@ 0000000180032f00     libvcruntime:undname.obj
 0002:00000f20       ??_C@_0BD@LGICGFMM@?5Base?5Class?5Array?8?$AA@ 0000000180032f20     libvcruntime:undname.obj
 0002:00000f38       ??_C@_0BN@MECKDCOJ@?5Class?5Hierarchy?5Descriptor?8?$AA@ 0000000180032f38     libvcruntime:undname.obj
 0002:00000f58       ??_C@_0BK@CFCOFLF@?5Complete?5Object?5Locator?8?$AA@ 0000000180032f58     libvcruntime:undname.obj
 0002:00000f80       standard_lookup_table      0000000180032f80     libucrt:output.obj
 0002:00000fdc       ??_C@_06OJHGLDPL@?$CInull?$CJ?$AA@ 0000000180032fdc     libucrt:output.obj
 0002:00000fe8       ??_C@_1O@CEDCILHN@?$AA?$CI?$AAn?$AAu?$AAl?$AAl?$AA?$CJ?$AA?$AA@ 0000000180032fe8     libucrt:output.obj
 0002:00001000       ??_C@_1EK@MBDPDCGA@?$AAM?$AAi?$AAc?$AAr?$AAo?$AAs?$AAo?$AAf?$AAt?$AA?5?$AAV?$AAi?$AAs?$AAu?$AAa?$AAl?$AA?5?$AAC?$AA?$CL?$AA?$CL?$AA?5?$AAR?$AAu?$AAn?$AAt?$AAi?$AAm?$AAe?$AA?5?$AAL?$AAi?$AAb@ 0000000180033000     libucrt:assert.obj
 0002:00001050       ??_C@_1FE@LHBLIKM@?$AAA?$AAs?$AAs?$AAe?$AAr?$AAt?$AAi?$AAo?$AAn?$AA?5?$AAf?$AAa?$AAi?$AAl?$AAe?$AAd?$AA?3?$AA?5?$AA?$CF?$AAT?$AAs?$AA?0?$AA?5?$AAf?$AAi?$AAl?$AAe?$AA?5?$AA?$CF?$AAT?$AAs?$AA?0@ 0000000180033050     libucrt:assert.obj
 0002:000010a8       ??_C@_1CE@OJBNHDMO@?$AAA?$AAs?$AAs?$AAe?$AAr?$AAt?$AAi?$AAo?$AAn?$AA?5?$AAf?$AAa?$AAi?$AAl?$AAe?$AAd?$AA?$CB?$AA?$AA@ 00000001800330a8     libucrt:assert.obj
 0002:000010d0       ??_C@_1BE@PHKBBGE@?$AAP?$AAr?$AAo?$AAg?$AAr?$AAa?$AAm?$AA?3?$AA?5?$AA?$AA@ 00000001800330d0     libucrt:assert.obj
 0002:000010e8       ??_C@_1O@HEMHKNDC@?$AAF?$AAi?$AAl?$AAe?$AA?3?$AA?5?$AA?$AA@ 00000001800330e8     libucrt:assert.obj
 0002:000010f8       ??_C@_1O@KCAFKHJE@?$AAL?$AAi?$AAn?$AAe?$AA?3?$AA?5?$AA?$AA@ 00000001800330f8     libucrt:assert.obj
 0002:00001108       ??_C@_1BK@PEDCIPMA@?$AAE?$AAx?$AAp?$AAr?$AAe?$AAs?$AAs?$AAi?$AAo?$AAn?$AA?3?$AA?5?$AA?$AA@ 0000000180033108     libucrt:assert.obj
 0002:00001130       ??_C@_1OA@EGMLFBHJ@?$AAF?$AAo?$AAr?$AA?5?$AAi?$AAn?$AAf?$AAo?$AAr?$AAm?$AAa?$AAt?$AAi?$AAo?$AAn?$AA?5?$AAo?$AAn?$AA?5?$AAh?$AAo?$AAw?$AA?5?$AAy?$AAo?$AAu?$AAr?$AA?5?$AAp?$AAr?$AAo?$AAg@ 0000000180033130     libucrt:assert.obj
 0002:00001210       ??_C@_1HK@POCJMFGK@?$AA?$CI?$AAP?$AAr?$AAe?$AAs?$AAs?$AA?5?$AAR?$AAe?$AAt?$AAr?$AAy?$AA?5?$AAt?$AAo?$AA?5?$AAd?$AAe?$AAb?$AAu?$AAg?$AA?5?$AAt?$AAh?$AAe?$AA?5?$AAa?$AAp?$AAp?$AAl?$AAi?$AAc@ 0000000180033210     libucrt:assert.obj
 0002:00001290       ??_C@_17LGKOMLJ@?$AA?4?$AA?4?$AA?4?$AA?$AA@ 0000000180033290     libucrt:assert.obj
 0002:00001298       ??_C@_13LBAGMAIH@?$AA?6?$AA?$AA@ 0000000180033298     libucrt:assert.obj
 0002:0000129c       ??_C@_15IABLJNFO@?$AA?6?$AA?6?$AA?$AA@ 000000018003329c     libucrt:assert.obj
 0002:000012a8       ??_C@_1CO@EAEJAADC@?$AA?$DM?$AAp?$AAr?$AAo?$AAg?$AAr?$AAa?$AAm?$AA?5?$AAn?$AAa?$AAm?$AAe?$AA?5?$AAu?$AAn?$AAk?$AAn?$AAo?$AAw?$AAn?$AA?$DO?$AA?$AA@ 00000001800332a8     libucrt:assert.obj
 0002:000012e0       __acrt_exception_action_table 00000001800332e0     libucrt:exception_filter.obj
 0002:000013a0       __acrt_signal_action_table_count 00000001800333a0     libucrt:exception_filter.obj
 0002:000013a8       __acrt_signal_action_first_fpe_index 00000001800333a8     libucrt:exception_filter.obj
 0002:000013b0       __acrt_signal_action_fpe_count 00000001800333b0     libucrt:exception_filter.obj
 0002:000013b8       ??_C@_1BI@BGOHAHKC@?$AAm?$AAs?$AAc?$AAo?$AAr?$AAe?$AAe?$AA?4?$AAd?$AAl?$AAl?$AA?$AA@ 00000001800333b8     libucrt:exit.obj
 0002:000013d0       ??_C@_0P@MIGLKIOC@CorExitProcess?$AA@ 00000001800333d0     libucrt:exit.obj
 0002:00001638       ??_C@_03OEIAHPBN@INF?$AA@  0000000180033638     libucrt:cvt.obj
 0002:0000163c       ??_C@_03OJHLLCGB@inf?$AA@  000000018003363c     libucrt:cvt.obj
 0002:00001640       ??_C@_03LKNCIKJB@NAN?$AA@  0000000180033640     libucrt:cvt.obj
 0002:00001644       ??_C@_03LHCJEHON@nan?$AA@  0000000180033644     libucrt:cvt.obj
 0002:00001648       ??_C@_09OFJJIMPC@NAN?$CISNAN?$CJ?$AA@ 0000000180033648     libucrt:cvt.obj
 0002:00001658       ??_C@_09IPFBKMDL@nan?$CIsnan?$CJ?$AA@ 0000000180033658     libucrt:cvt.obj
 0002:00001668       ??_C@_08IKHNHAJ@NAN?$CIIND?$CJ?$AA@ 0000000180033668     libucrt:cvt.obj
 0002:00001678       ??_C@_08OFCDMILK@nan?$CIind?$CJ?$AA@ 0000000180033678     libucrt:cvt.obj
 0002:00001684       ??_C@_05KLBDPFGC@e?$CL000?$AA@ 0000000180033684     libucrt:cvt.obj
 0002:00001690       __lc_time_c                0000000180033690     libucrt:nlsdata.obj
 0002:00001950       ??_C@_03KOEHGMDN@Sun?$AA@  0000000180033950     libucrt:nlsdata.obj
 0002:00001954       ??_C@_03PDAGKDH@Mon?$AA@   0000000180033954     libucrt:nlsdata.obj
 0002:00001958       ??_C@_03NAGEINEP@Tue?$AA@  0000000180033958     libucrt:nlsdata.obj
 0002:0000195c       ??_C@_03MHOMLAJA@Wed?$AA@  000000018003395c     libucrt:nlsdata.obj
 0002:00001960       ??_C@_03IOFIKPDN@Thu?$AA@  0000000180033960     libucrt:nlsdata.obj
 0002:00001964       ??_C@_03IDIOELNC@Fri?$AA@  0000000180033964     libucrt:nlsdata.obj
 0002:00001968       ??_C@_03FEFJNEK@Sat?$AA@   0000000180033968     libucrt:nlsdata.obj
 0002:0000196c       ??_C@_06OOPIFAJ@Sunday?$AA@ 000000018003396c     libucrt:nlsdata.obj
 0002:00001974       ??_C@_06JLEDEDGH@Monday?$AA@ 0000000180033974     libucrt:nlsdata.obj
 0002:00001980       ??_C@_07BAAGCFCM@Tuesday?$AA@ 0000000180033980     libucrt:nlsdata.obj
 0002:00001988       ??_C@_09DLIGFAKA@Wednesday?$AA@ 0000000180033988     libucrt:nlsdata.obj
 0002:00001998       ??_C@_08HACCIKIA@Thursday?$AA@ 0000000180033998     libucrt:nlsdata.obj
 0002:000019a4       ??_C@_06JECMNKMI@Friday?$AA@ 00000001800339a4     libucrt:nlsdata.obj
 0002:000019b0       ??_C@_08INBOOONO@Saturday?$AA@ 00000001800339b0     libucrt:nlsdata.obj
 0002:000019bc       ??_C@_03JIHJHPIE@Jan?$AA@  00000001800339bc     libucrt:nlsdata.obj
 0002:000019c0       ??_C@_03HJBDCHOM@Feb?$AA@  00000001800339c0     libucrt:nlsdata.obj
 0002:000019c4       ??_C@_03ODNJBKGA@Mar?$AA@  00000001800339c4     libucrt:nlsdata.obj
 0002:000019c8       ??_C@_03LEOLGMJP@Apr?$AA@  00000001800339c8     libucrt:nlsdata.obj
 0002:000019cc       ??_C@_03CNMDKL@May?$AA@    00000001800339cc     libucrt:nlsdata.obj
 0002:000019d0       ??_C@_03IDFGHECI@Jun?$AA@  00000001800339d0     libucrt:nlsdata.obj
 0002:000019d4       ??_C@_03LBGABGKK@Jul?$AA@  00000001800339d4     libucrt:nlsdata.obj
 0002:000019d8       ??_C@_03IFJFEIGA@Aug?$AA@  00000001800339d8     libucrt:nlsdata.obj
 0002:000019dc       ??_C@_03GGCAPAJC@Sep?$AA@  00000001800339dc     libucrt:nlsdata.obj
 0002:000019e0       ??_C@_03BMAOKBAD@Oct?$AA@  00000001800339e0     libucrt:nlsdata.obj
 0002:000019e4       ??_C@_03JPJOFNIA@Nov?$AA@  00000001800339e4     libucrt:nlsdata.obj
 0002:000019e8       ??_C@_03MKABNOCG@Dec?$AA@  00000001800339e8     libucrt:nlsdata.obj
 0002:000019f0       ??_C@_07CGJPFGJA@January?$AA@ 00000001800339f0     libucrt:nlsdata.obj
 0002:000019f8       ??_C@_08GNJGEPFN@February?$AA@ 00000001800339f8     libucrt:nlsdata.obj
 0002:00001a04       ??_C@_05HPCKOFNC@March?$AA@ 0000000180033a04     libucrt:nlsdata.obj
 0002:00001a0c       ??_C@_05DMJDNLEJ@April?$AA@ 0000000180033a0c     libucrt:nlsdata.obj
 0002:00001a14       ??_C@_04CNLMGBGM@June?$AA@ 0000000180033a14     libucrt:nlsdata.obj
 0002:00001a1c       ??_C@_04MIEPOIFP@July?$AA@ 0000000180033a1c     libucrt:nlsdata.obj
 0002:00001a24       ??_C@_06LBBHFDDG@August?$AA@ 0000000180033a24     libucrt:nlsdata.obj
 0002:00001a30       ??_C@_09BHHEALKD@September?$AA@ 0000000180033a30     libucrt:nlsdata.obj
 0002:00001a40       ??_C@_07JJNFCEND@October?$AA@ 0000000180033a40     libucrt:nlsdata.obj
 0002:00001a48       ??_C@_08HCHEGEOA@November?$AA@ 0000000180033a48     libucrt:nlsdata.obj
 0002:00001a58       ??_C@_08EDHMEBNP@December?$AA@ 0000000180033a58     libucrt:nlsdata.obj
 0002:00001a64       ??_C@_02DEDBPAFC@AM?$AA@   0000000180033a64     libucrt:nlsdata.obj
 0002:00001a68       ??_C@_02CJNFDJBF@PM?$AA@   0000000180033a68     libucrt:nlsdata.obj
 0002:00001a70       ??_C@_08BPBNCDIB@MM?1dd?1yy?$AA@ 0000000180033a70     libucrt:nlsdata.obj
 0002:00001a80       ??_C@_0BE@CKGJFCPC@dddd?0?5MMMM?5dd?0?5yyyy?$AA@ 0000000180033a80     libucrt:nlsdata.obj
 0002:00001a98       ??_C@_08JCCMCCIL@HH?3mm?3ss?$AA@ 0000000180033a98     libucrt:nlsdata.obj
 0002:00001aa8       ??_C@_17MBGCMIPB@?$AAS?$AAu?$AAn?$AA?$AA@ 0000000180033aa8     libucrt:nlsdata.obj
 0002:00001ab0       ??_C@_17KBOMKBF@?$AAM?$AAo?$AAn?$AA?$AA@ 0000000180033ab0     libucrt:nlsdata.obj
 0002:00001ab8       ??_C@_17BMKGEGOJ@?$AAT?$AAu?$AAe?$AA?$AA@ 0000000180033ab8     libucrt:nlsdata.obj
 0002:00001ac0       ??_C@_17CJEDCEPE@?$AAW?$AAe?$AAd?$AA?$AA@ 0000000180033ac0     libucrt:nlsdata.obj
 0002:00001ac8       ??_C@_17PDPHAADD@?$AAT?$AAh?$AAu?$AA?$AA@ 0000000180033ac8     libucrt:nlsdata.obj
 0002:00001ad0       ??_C@_17HFOLPPLP@?$AAF?$AAr?$AAi?$AA?$AA@ 0000000180033ad0     libucrt:nlsdata.obj
 0002:00001ad8       ??_C@_17GGIBDPIH@?$AAS?$AAa?$AAt?$AA?$AA@ 0000000180033ad8     libucrt:nlsdata.obj
 0002:00001ae0       ??_C@_1O@IHNHDHPB@?$AAS?$AAu?$AAn?$AAd?$AAa?$AAy?$AA?$AA@ 0000000180033ae0     libucrt:nlsdata.obj
 0002:00001af0       ??_C@_1O@MMNBFLIA@?$AAM?$AAo?$AAn?$AAd?$AAa?$AAy?$AA?$AA@ 0000000180033af0     libucrt:nlsdata.obj
 0002:00001b00       ??_C@_1BA@ENFBFFEK@?$AAT?$AAu?$AAe?$AAs?$AAd?$AAa?$AAy?$AA?$AA@ 0000000180033b00     libucrt:nlsdata.obj
 0002:00001b10       ??_C@_1BE@EBOGMDOH@?$AAW?$AAe?$AAd?$AAn?$AAe?$AAs?$AAd?$AAa?$AAy?$AA?$AA@ 0000000180033b10     libucrt:nlsdata.obj
 0002:00001b28       ??_C@_1BC@HHMNLIHE@?$AAT?$AAh?$AAu?$AAr?$AAs?$AAd?$AAa?$AAy?$AA?$AA@ 0000000180033b28     libucrt:nlsdata.obj
 0002:00001b40       ??_C@_1O@PDICJHAG@?$AAF?$AAr?$AAi?$AAd?$AAa?$AAy?$AA?$AA@ 0000000180033b40     libucrt:nlsdata.obj
 0002:00001b50       ??_C@_1BC@ENMNNPAJ@?$AAS?$AAa?$AAt?$AAu?$AAr?$AAd?$AAa?$AAy?$AA?$AA@ 0000000180033b50     libucrt:nlsdata.obj
 0002:00001b68       ??_C@_17DKNBKCHM@?$AAJ?$AAa?$AAn?$AA?$AA@ 0000000180033b68     libucrt:nlsdata.obj
 0002:00001b70       ??_C@_17LMDJEKJN@?$AAF?$AAe?$AAb?$AA?$AA@ 0000000180033b70     libucrt:nlsdata.obj
 0002:00001b78       ??_C@_17CKNLEDEC@?$AAM?$AAa?$AAr?$AA?$AA@ 0000000180033b78     libucrt:nlsdata.obj
 0002:00001b80       ??_C@_17LFPOIHDD@?$AAA?$AAp?$AAr?$AA?$AA@ 0000000180033b80     libucrt:nlsdata.obj
 0002:00001b88       ??_C@_17PNNKMEED@?$AAM?$AAa?$AAy?$AA?$AA@ 0000000180033b88     libucrt:nlsdata.obj
 0002:00001b90       ??_C@_17KCJGOCPB@?$AAJ?$AAu?$AAn?$AA?$AA@ 0000000180033b90     libucrt:nlsdata.obj
 0002:00001b98       ??_C@_17IJPCKHK@?$AAJ?$AAu?$AAl?$AA?$AA@ 0000000180033b98     libucrt:nlsdata.obj
 0002:00001ba0       ??_C@_17ICPELBCN@?$AAA?$AAu?$AAg?$AA?$AA@ 0000000180033ba0     libucrt:nlsdata.obj
 0002:00001ba8       ??_C@_17HCHCOKMG@?$AAS?$AAe?$AAp?$AA?$AA@ 0000000180033ba8     libucrt:nlsdata.obj
 0002:00001bb0       ??_C@_17FNLKOI@?$AAO?$AAc?$AAt?$AA?$AA@ 0000000180033bb0     libucrt:nlsdata.obj
 0002:00001bb8       ??_C@_17BBDMLCIG@?$AAN?$AAo?$AAv?$AA?$AA@ 0000000180033bb8     libucrt:nlsdata.obj
 0002:00001bc0       ??_C@_17EGKACKIF@?$AAD?$AAe?$AAc?$AA?$AA@ 0000000180033bc0     libucrt:nlsdata.obj
 0002:00001bc8       ??_C@_1BA@EFMEIEBA@?$AAJ?$AAa?$AAn?$AAu?$AAa?$AAr?$AAy?$AA?$AA@ 0000000180033bc8     libucrt:nlsdata.obj
 0002:00001bd8       ??_C@_1BC@JGDDFFAM@?$AAF?$AAe?$AAb?$AAr?$AAu?$AAa?$AAr?$AAy?$AA?$AA@ 0000000180033bd8     libucrt:nlsdata.obj
 0002:00001bf0       ??_C@_1M@IKEENEDF@?$AAM?$AAa?$AAr?$AAc?$AAh?$AA?$AA@ 0000000180033bf0     libucrt:nlsdata.obj
 0002:00001c00       ??_C@_1M@GJNLMHFD@?$AAA?$AAp?$AAr?$AAi?$AAl?$AA?$AA@ 0000000180033c00     libucrt:nlsdata.obj
 0002:00001c10       ??_C@_19EPFLPGAP@?$AAJ?$AAu?$AAn?$AAe?$AA?$AA@ 0000000180033c10     libucrt:nlsdata.obj
 0002:00001c20       ??_C@_19BIFMLPCD@?$AAJ?$AAu?$AAl?$AAy?$AA?$AA@ 0000000180033c20     libucrt:nlsdata.obj
 0002:00001c30       ??_C@_1O@PAHLKOAC@?$AAA?$AAu?$AAg?$AAu?$AAs?$AAt?$AA?$AA@ 0000000180033c30     libucrt:nlsdata.obj
 0002:00001c40       ??_C@_1BE@DKAAMBJL@?$AAS?$AAe?$AAp?$AAt?$AAe?$AAm?$AAb?$AAe?$AAr?$AA?$AA@ 0000000180033c40     libucrt:nlsdata.obj
 0002:00001c58       ??_C@_1BA@EPANDLNG@?$AAO?$AAc?$AAt?$AAo?$AAb?$AAe?$AAr?$AA?$AA@ 0000000180033c58     libucrt:nlsdata.obj
 0002:00001c68       ??_C@_1BC@BGLIFPF@?$AAN?$AAo?$AAv?$AAe?$AAm?$AAb?$AAe?$AAr?$AA?$AA@ 0000000180033c68     libucrt:nlsdata.obj
 0002:00001c80       ??_C@_1BC@FEMKIFH@?$AAD?$AAe?$AAc?$AAe?$AAm?$AAb?$AAe?$AAr?$AA?$AA@ 0000000180033c80     libucrt:nlsdata.obj
 0002:00001c94       ??_C@_15ODEHAHHF@?$AAA?$AAM?$AA?$AA@ 0000000180033c94     libucrt:nlsdata.obj
 0002:00001c9c       ??_C@_15CLMNNGEL@?$AAP?$AAM?$AA?$AA@ 0000000180033c9c     libucrt:nlsdata.obj
 0002:00001ca8       ??_C@_1BC@IEBCMHCM@?$AAM?$AAM?$AA?1?$AAd?$AAd?$AA?1?$AAy?$AAy?$AA?$AA@ 0000000180033ca8     libucrt:nlsdata.obj
 0002:00001cc0       ??_C@_1CI@KNAKOEBC@?$AAd?$AAd?$AAd?$AAd?$AA?0?$AA?5?$AAM?$AAM?$AAM?$AAM?$AA?5?$AAd?$AAd?$AA?0?$AA?5?$AAy?$AAy?$AAy?$AAy?$AA?$AA@ 0000000180033cc0     libucrt:nlsdata.obj
 0002:00001ce8       ??_C@_1BC@GDGBMEMK@?$AAH?$AAH?$AA?3?$AAm?$AAm?$AA?3?$AAs?$AAs?$AA?$AA@ 0000000180033ce8     libucrt:nlsdata.obj
 0002:00001d00       ??_C@_1M@BMHNFIME@?$AAe?$AAn?$AA?9?$AAU?$AAS?$AA?$AA@ 0000000180033d00     libucrt:nlsdata.obj
 0002:00001db0       ??_C@_1EG@CNNIPFIM@?$AAa?$AAp?$AAi?$AA?9?$AAm?$AAs?$AA?9?$AAw?$AAi?$AAn?$AA?9?$AAa?$AAp?$AAp?$AAm?$AAo?$AAd?$AAe?$AAl?$AA?9?$AAr?$AAu?$AAn?$AAt?$AAi?$AAm?$AAe?$AA?9?$AAl?$AA1?$AA?9?$AA1@ 0000000180033db0     libucrt:winapi_thunks.obj
 0002:00001e00       ??_C@_1EA@JGEFHKEI@?$AAa?$AAp?$AAi?$AA?9?$AAm?$AAs?$AA?9?$AAw?$AAi?$AAn?$AA?9?$AAc?$AAo?$AAr?$AAe?$AA?9?$AAd?$AAa?$AAt?$AAe?$AAt?$AAi?$AAm?$AAe?$AA?9?$AAl?$AA1?$AA?9?$AA1?$AA?9?$AA1?$AA?$AA@ 0000000180033e00     libucrt:winapi_thunks.obj
 0002:00001e40       ??_C@_1DI@GCIAAENM@?$AAa?$AAp?$AAi?$AA?9?$AAm?$AAs?$AA?9?$AAw?$AAi?$AAn?$AA?9?$AAc?$AAo?$AAr?$AAe?$AA?9?$AAf?$AAi?$AAl?$AAe?$AA?9?$AAl?$AA2?$AA?9?$AA1?$AA?9?$AA1?$AA?$AA@ 0000000180033e40     libucrt:winapi_thunks.obj
 0002:00001e80       ??_C@_1EI@MPIAOHOC@?$AAa?$AAp?$AAi?$AA?9?$AAm?$AAs?$AA?9?$AAw?$AAi?$AAn?$AA?9?$AAc?$AAo?$AAr?$AAe?$AA?9?$AAl?$AAo?$AAc?$AAa?$AAl?$AAi?$AAz?$AAa?$AAt?$AAi?$AAo?$AAn?$AA?9?$AAl?$AA1?$AA?9@ 0000000180033e80     libucrt:winapi_thunks.obj
 0002:00001ed0       ??_C@_1FK@FPHCKFIE@?$AAa?$AAp?$AAi?$AA?9?$AAm?$AAs?$AA?9?$AAw?$AAi?$AAn?$AA?9?$AAc?$AAo?$AAr?$AAe?$AA?9?$AAl?$AAo?$AAc?$AAa?$AAl?$AAi?$AAz?$AAa?$AAt?$AAi?$AAo?$AAn?$AA?9?$AAo?$AAb?$AAs@ 0000000180033ed0     libucrt:winapi_thunks.obj
 0002:00001f30       ??_C@_1EM@DILCGIIO@?$AAa?$AAp?$AAi?$AA?9?$AAm?$AAs?$AA?9?$AAw?$AAi?$AAn?$AA?9?$AAc?$AAo?$AAr?$AAe?$AA?9?$AAp?$AAr?$AAo?$AAc?$AAe?$AAs?$AAs?$AAt?$AAh?$AAr?$AAe?$AAa?$AAd?$AAs?$AA?9?$AAl@ 0000000180033f30     libucrt:winapi_thunks.obj
 0002:00001f80       ??_C@_1DM@LNCGDDPN@?$AAa?$AAp?$AAi?$AA?9?$AAm?$AAs?$AA?9?$AAw?$AAi?$AAn?$AA?9?$AAc?$AAo?$AAr?$AAe?$AA?9?$AAs?$AAt?$AAr?$AAi?$AAn?$AAg?$AA?9?$AAl?$AA1?$AA?9?$AA1?$AA?9?$AA0?$AA?$AA@ 0000000180033f80     libucrt:winapi_thunks.obj
 0002:00001fc0       ??_C@_1DO@FPAPJEMD@?$AAa?$AAp?$AAi?$AA?9?$AAm?$AAs?$AA?9?$AAw?$AAi?$AAn?$AA?9?$AAc?$AAo?$AAr?$AAe?$AA?9?$AAs?$AAy?$AAs?$AAi?$AAn?$AAf?$AAo?$AA?9?$AAl?$AA1?$AA?9?$AA2?$AA?9?$AA1?$AA?$AA@ 0000000180033fc0     libucrt:winapi_thunks.obj
 0002:00002000       ??_C@_1DK@NDHNAHIO@?$AAa?$AAp?$AAi?$AA?9?$AAm?$AAs?$AA?9?$AAw?$AAi?$AAn?$AA?9?$AAc?$AAo?$AAr?$AAe?$AA?9?$AAw?$AAi?$AAn?$AAr?$AAt?$AA?9?$AAl?$AA1?$AA?9?$AA1?$AA?9?$AA0?$AA?$AA@ 0000000180034000     libucrt:winapi_thunks.obj
 0002:00002040       ??_C@_1DM@KGHDGBCM@?$AAa?$AAp?$AAi?$AA?9?$AAm?$AAs?$AA?9?$AAw?$AAi?$AAn?$AA?9?$AAc?$AAo?$AAr?$AAe?$AA?9?$AAx?$AAs?$AAt?$AAa?$AAt?$AAe?$AA?9?$AAl?$AA2?$AA?9?$AA1?$AA?9?$AA0?$AA?$AA@ 0000000180034040     libucrt:winapi_thunks.obj
 0002:00002080       ??_C@_1EO@IJIOEFOH@?$AAa?$AAp?$AAi?$AA?9?$AAm?$AAs?$AA?9?$AAw?$AAi?$AAn?$AA?9?$AAr?$AAt?$AAc?$AAo?$AAr?$AAe?$AA?9?$AAn?$AAt?$AAu?$AAs?$AAe?$AAr?$AA?9?$AAw?$AAi?$AAn?$AAd?$AAo?$AAw?$AA?9@ 0000000180034080     libucrt:winapi_thunks.obj
 0002:000020d0       ??_C@_1FG@HHGEKANL@?$AAa?$AAp?$AAi?$AA?9?$AAm?$AAs?$AA?9?$AAw?$AAi?$AAn?$AA?9?$AAs?$AAe?$AAc?$AAu?$AAr?$AAi?$AAt?$AAy?$AA?9?$AAs?$AAy?$AAs?$AAt?$AAe?$AAm?$AAf?$AAu?$AAn?$AAc?$AAt?$AAi@ 00000001800340d0     libucrt:winapi_thunks.obj
 0002:00002130       ??_C@_1FG@NCKKOLKO@?$AAe?$AAx?$AAt?$AA?9?$AAm?$AAs?$AA?9?$AAw?$AAi?$AAn?$AA?9?$AAk?$AAe?$AAr?$AAn?$AAe?$AAl?$AA3?$AA2?$AA?9?$AAp?$AAa?$AAc?$AAk?$AAa?$AAg?$AAe?$AA?9?$AAc?$AAu?$AAr?$AAr@ 0000000180034130     libucrt:winapi_thunks.obj
 0002:00002190       ??_C@_1EG@DBIOJECG@?$AAe?$AAx?$AAt?$AA?9?$AAm?$AAs?$AA?9?$AAw?$AAi?$AAn?$AA?9?$AAn?$AAt?$AAu?$AAs?$AAe?$AAr?$AA?9?$AAd?$AAi?$AAa?$AAl?$AAo?$AAg?$AAb?$AAo?$AAx?$AA?9?$AAl?$AA1?$AA?9?$AA1@ 0000000180034190     libucrt:winapi_thunks.obj
 0002:000021e0       ??_C@_1EO@FIHMJCLF@?$AAe?$AAx?$AAt?$AA?9?$AAm?$AAs?$AA?9?$AAw?$AAi?$AAn?$AA?9?$AAn?$AAt?$AAu?$AAs?$AAe?$AAr?$AA?9?$AAw?$AAi?$AAn?$AAd?$AAo?$AAw?$AAs?$AAt?$AAa?$AAt?$AAi?$AAo?$AAn?$AA?9@ 00000001800341e0     libucrt:winapi_thunks.obj
 0002:00002230       ??_C@_1O@BCCLBEOE@?$AAu?$AAs?$AAe?$AAr?$AA3?$AA2?$AA?$AA@ 0000000180034230     libucrt:winapi_thunks.obj
 0002:00002268       ??_C@_0BA@HNOPNCHB@GetActiveWindow?$AA@ 0000000180034268     libucrt:winapi_thunks.obj
 0002:00002280       ??_C@_0BE@JOGNEJCI@GetCurrentPackageId?$AA@ 0000000180034280     libucrt:winapi_thunks.obj
 0002:000022a0       ??_C@_0BD@HHGDFDBJ@GetLastActivePopup?$AA@ 00000001800342a0     libucrt:winapi_thunks.obj
 0002:000022c0       ??_C@_0BI@DFKBFLJE@GetProcessWindowStation?$AA@ 00000001800342c0     libucrt:winapi_thunks.obj
 0002:000022e0       ??_C@_0BK@DEKFELLI@GetUserObjectInformationW?$AA@ 00000001800342e0     libucrt:winapi_thunks.obj
 0002:00002310       ??_C@_0O@KKBNKAPF@LCMapStringEx?$AA@ 0000000180034310     libucrt:winapi_thunks.obj
 0002:00002328       ??_C@_0BB@HBDEELFH@LocaleNameToLCID?$AA@ 0000000180034328     libucrt:winapi_thunks.obj
 0002:00002348       ??_C@_0M@CHKKJDAI@MessageBoxA?$AA@ 0000000180034348     libucrt:winapi_thunks.obj
 0002:00002360       ??_C@_0M@DLDCCGNP@MessageBoxW?$AA@ 0000000180034360     libucrt:winapi_thunks.obj
 0002:00002390       ??_C@_1M@HPNHIDJI@?$AAj?$AAa?$AA?9?$AAJ?$AAP?$AA?$AA@ 0000000180034390     libucrt:mbctype.obj
 0002:000023a0       ??_C@_1M@BIBDDEMK@?$AAz?$AAh?$AA?9?$AAC?$AAN?$AA?$AA@ 00000001800343a0     libucrt:mbctype.obj
 0002:000023b0       ??_C@_1M@JLOOOEGK@?$AAk?$AAo?$AA?9?$AAK?$AAR?$AA?$AA@ 00000001800343b0     libucrt:mbctype.obj
 0002:000023c0       ??_C@_1M@CLNBBOPM@?$AAz?$AAh?$AA?9?$AAT?$AAW?$AA?$AA@ 00000001800343c0     libucrt:mbctype.obj
 0002:000023d0       __newctype                 00000001800343d0     libucrt:ctype.obj
 0002:000026d0       __newclmap                 00000001800346d0     libucrt:ctype.obj
 0002:00002850       __newcumap                 0000000180034850     libucrt:ctype.obj
 0002:000029d0       _wctype                    00000001800349d0     libucrt:ctype.obj
 0002:00002be0       ?large_power_data@?1??multiply_by_power_of_ten@__crt_strtox@@YA_NAEAUbig_integer@2@I@Z@4QBIB 0000000180034be0     libucrt:cfout.obj
 0002:000034f0       ?large_power_indices@?1??multiply_by_power_of_ten@__crt_strtox@@YA_NAEAUbig_integer@2@I@Z@4QBUunpack_index@?1??12@YA_N0I@Z@B 00000001800354f0     libucrt:cfout.obj
 0002:00003588       ?small_powers_of_ten@?6??multiply_by_power_of_ten@__crt_strtox@@YA_NAEAUbig_integer@2@I@Z@4QBIB 0000000180035588     libucrt:cfout.obj
 0002:000035ac       ??_C@_01GBGANLPD@0?$AA@    00000001800355ac     libucrt:cfout.obj
 0002:000035b0       ??_C@_05DNEBIAHO@1?$CDINF?$AA@ 00000001800355b0     libucrt:cfout.obj
 0002:000035b8       ??_C@_06IMKFLFPG@1?$CDQNAN?$AA@ 00000001800355b8     libucrt:cfout.obj
 0002:000035c0       ??_C@_06PGGFOGJG@1?$CDSNAN?$AA@ 00000001800355c0     libucrt:cfout.obj
 0002:000035c8       ??_C@_05PHHOCPM@1?$CDIND?$AA@ 00000001800355c8     libucrt:cfout.obj
 0002:000035d0       ??_C@_15PJPFLCCM@?$AAu?$AAk?$AA?$AA@ 00000001800355d0     libucrt:get_qualified_locale.obj
 0002:00004420       ??_C@_15EMKDOKLE@?$AAa?$AAr?$AA?$AA@ 0000000180036420     libucrt:lcidtoname_downlevel.obj
 0002:00004428       ??_C@_15KNPADPLH@?$AAb?$AAg?$AA?$AA@ 0000000180036428     libucrt:lcidtoname_downlevel.obj
 0002:00004430       ??_C@_15EDMHLDMO@?$AAc?$AAa?$AA?$AA@ 0000000180036430     libucrt:lcidtoname_downlevel.obj
 0002:00004438       ??_C@_1O@BPEAJADD@?$AAz?$AAh?$AA?9?$AAC?$AAH?$AAS?$AA?$AA@ 0000000180036438     libucrt:lcidtoname_downlevel.obj
 0002:00004448       ??_C@_15LJNHCMNK@?$AAc?$AAs?$AA?$AA@ 0000000180036448     libucrt:lcidtoname_downlevel.obj
 0002:00004450       ??_C@_15FOMCIDHG@?$AAd?$AAa?$AA?$AA@ 0000000180036450     libucrt:lcidtoname_downlevel.obj
 0002:00004458       ??_C@_15NBKABECB@?$AAd?$AAe?$AA?$AA@ 0000000180036458     libucrt:lcidtoname_downlevel.obj
 0002:00004460       ??_C@_15GHPEIIAO@?$AAe?$AAl?$AA?$AA@ 0000000180036460     libucrt:lcidtoname_downlevel.obj
 0002:00004468       ??_C@_15MNPNEAIF@?$AAe?$AAn?$AA?$AA@ 0000000180036468     libucrt:lcidtoname_downlevel.obj
 0002:00004470       ??_C@_15GPIOMPMH@?$AAe?$AAs?$AA?$AA@ 0000000180036470     libucrt:lcidtoname_downlevel.obj
 0002:00004478       ??_C@_15NGLOAKJC@?$AAf?$AAi?$AA?$AA@ 0000000180036478     libucrt:lcidtoname_downlevel.obj
 0002:00004480       ??_C@_15FBKGNKAM@?$AAf?$AAr?$AA?$AA@ 0000000180036480     libucrt:lcidtoname_downlevel.obj
 0002:00004488       ??_C@_15KGGCNEFK@?$AAh?$AAe?$AA?$AA@ 0000000180036488     libucrt:lcidtoname_downlevel.obj
 0002:00004490       ??_C@_15PGHLIDMF@?$AAh?$AAu?$AA?$AA@ 0000000180036490     libucrt:lcidtoname_downlevel.obj
 0002:00004498       ??_C@_15BIEMAPLM@?$AAi?$AAs?$AA?$AA@ 0000000180036498     libucrt:lcidtoname_downlevel.obj
 0002:000044a0       ??_C@_15IFJLDHAF@?$AAi?$AAt?$AA?$AA@ 00000001800364a0     libucrt:lcidtoname_downlevel.obj
 0002:000044a8       ??_C@_15GEMIOCAG@?$AAj?$AAa?$AA?$AA@ 00000001800364a8     libucrt:lcidtoname_downlevel.obj
 0002:000044b0       ??_C@_15EPELEGJA@?$AAk?$AAo?$AA?$AA@ 00000001800364b0     libucrt:lcidtoname_downlevel.obj
 0002:000044b8       ??_C@_15NDDHIMN@?$AAn?$AAl?$AA?$AA@ 00000001800364b8     libucrt:lcidtoname_downlevel.obj
 0002:000044c0       ??_C@_15BPIGNHCD@?$AAn?$AAo?$AA?$AA@ 00000001800364c0     libucrt:lcidtoname_downlevel.obj
 0002:000044c8       ??_C@_15DEOPBLCG@?$AAp?$AAl?$AA?$AA@ 00000001800364c8     libucrt:lcidtoname_downlevel.obj
 0002:000044d0       ??_C@_15KBECGEFG@?$AAp?$AAt?$AA?$AA@ 00000001800364d0     libucrt:lcidtoname_downlevel.obj
 0002:000044d8       ??_C@_15GLJCBFMD@?$AAr?$AAo?$AA?$AA@ 00000001800364d8     libucrt:lcidtoname_downlevel.obj
 0002:000044e0       ??_C@_15FEDGKCDI@?$AAr?$AAu?$AA?$AA@ 00000001800364e0     libucrt:lcidtoname_downlevel.obj
 0002:000044e8       ??_C@_15GLKMLLHM@?$AAh?$AAr?$AA?$AA@ 00000001800364e8     libucrt:lcidtoname_downlevel.obj
 0002:000044f0       ??_C@_15CPKMFBDB@?$AAs?$AAk?$AA?$AA@ 00000001800364f0     libucrt:lcidtoname_downlevel.obj
 0002:000044f8       ??_C@_15BAAIOGMK@?$AAs?$AAq?$AA?$AA@ 00000001800364f8     libucrt:lcidtoname_downlevel.obj
 0002:00004500       ??_C@_15INNPNOHD@?$AAs?$AAv?$AA?$AA@ 0000000180036500     libucrt:lcidtoname_downlevel.obj
 0002:00004508       ??_C@_15CABMMOGH@?$AAt?$AAh?$AA?$AA@ 0000000180036508     libucrt:lcidtoname_downlevel.obj
 0002:00004510       ??_C@_15BPLIHJJM@?$AAt?$AAr?$AA?$AA@ 0000000180036510     libucrt:lcidtoname_downlevel.obj
 0002:00004518       ??_C@_15NEOEKKDJ@?$AAu?$AAr?$AA?$AA@ 0000000180036518     libucrt:lcidtoname_downlevel.obj
 0002:00004520       ??_C@_15NFICGAJK@?$AAi?$AAd?$AA?$AA@ 0000000180036520     libucrt:lcidtoname_downlevel.obj
 0002:00004528       ??_C@_15HPJPHDM@?$AAb?$AAe?$AA?$AA@ 0000000180036528     libucrt:lcidtoname_downlevel.obj
 0002:00004530       ??_C@_15LCHLGJII@?$AAs?$AAl?$AA?$AA@ 0000000180036530     libucrt:lcidtoname_downlevel.obj
 0002:00004538       ??_C@_15PCFJPHHO@?$AAe?$AAt?$AA?$AA@ 0000000180036538     libucrt:lcidtoname_downlevel.obj
 0002:00004540       ??_C@_15HPFPGODN@?$AAl?$AAv?$AA?$AA@ 0000000180036540     libucrt:lcidtoname_downlevel.obj
 0002:00004548       ??_C@_15NFFGKGLG@?$AAl?$AAt?$AA?$AA@ 0000000180036548     libucrt:lcidtoname_downlevel.obj
 0002:00004550       ??_C@_15BDAKCCHN@?$AAf?$AAa?$AA?$AA@ 0000000180036550     libucrt:lcidtoname_downlevel.obj
 0002:00004558       ??_C@_15NFGIAIAJ@?$AAv?$AAi?$AA?$AA@ 0000000180036558     libucrt:lcidtoname_downlevel.obj
 0002:00004560       ??_C@_15LMKNDMHN@?$AAh?$AAy?$AA?$AA@ 0000000180036560     libucrt:lcidtoname_downlevel.obj
 0002:00004568       ??_C@_15IJBHMCFL@?$AAa?$AAz?$AA?$AA@ 0000000180036568     libucrt:lcidtoname_downlevel.obj
 0002:00004570       ??_C@_15EKOFJABL@?$AAe?$AAu?$AA?$AA@ 0000000180036570     libucrt:lcidtoname_downlevel.obj
 0002:00004578       ??_C@_15BGHADCNK@?$AAm?$AAk?$AA?$AA@ 0000000180036578     libucrt:lcidtoname_downlevel.obj
 0002:00004580       ??_C@_15JDNICKHM@?$AAa?$AAf?$AA?$AA@ 0000000180036580     libucrt:lcidtoname_downlevel.obj
 0002:00004588       ??_C@_15KPJEDBKD@?$AAk?$AAa?$AA?$AA@ 0000000180036588     libucrt:lcidtoname_downlevel.obj
 0002:00004590       ??_C@_15PDNFFFEO@?$AAf?$AAo?$AA?$AA@ 0000000180036590     libucrt:lcidtoname_downlevel.obj
 0002:00004598       ??_C@_15OMLEGLOC@?$AAh?$AAi?$AA?$AA@ 0000000180036598     libucrt:lcidtoname_downlevel.obj
 0002:000045a0       ??_C@_15IDNNENKK@?$AAm?$AAs?$AA?$AA@ 00000001800365a0     libucrt:lcidtoname_downlevel.obj
 0002:000045a8       ??_C@_15MACJNBMH@?$AAk?$AAk?$AA?$AA@ 00000001800365a8     libucrt:lcidtoname_downlevel.obj
 0002:000045b0       ??_C@_15DKDJEOND@?$AAk?$AAy?$AA?$AA@ 00000001800365b0     libucrt:lcidtoname_downlevel.obj
 0002:000045b8       ??_C@_15DFGDLJBG@?$AAs?$AAw?$AA?$AA@ 00000001800365b8     libucrt:lcidtoname_downlevel.obj
 0002:000045c0       ??_C@_15BBFAICNG@?$AAu?$AAz?$AA?$AA@ 00000001800365c0     libucrt:lcidtoname_downlevel.obj
 0002:000045c8       ??_C@_15DKNDCGEA@?$AAt?$AAt?$AA?$AA@ 00000001800365c8     libucrt:lcidtoname_downlevel.obj
 0002:000045d0       ??_C@_15MGIFMDPL@?$AAp?$AAa?$AA?$AA@ 00000001800365d0     libucrt:lcidtoname_downlevel.obj
 0002:000045d8       ??_C@_15HCNDBBA@?$AAg?$AAu?$AA?$AA@ 00000001800365d8     libucrt:lcidtoname_downlevel.obj
 0002:000045e0       ??_C@_15FNBEIBON@?$AAt?$AAa?$AA?$AA@ 00000001800365e0     libucrt:lcidtoname_downlevel.obj
 0002:000045e8       ??_C@_15NCHGBGLK@?$AAt?$AAe?$AA?$AA@ 00000001800365e8     libucrt:lcidtoname_downlevel.obj
 0002:000045f0       ??_C@_15PHPHCBPF@?$AAk?$AAn?$AA?$AA@ 00000001800365f0     libucrt:lcidtoname_downlevel.obj
 0002:000045f8       ??_C@_15DLGBCKMP@?$AAm?$AAr?$AA?$AA@ 00000001800365f8     libucrt:lcidtoname_downlevel.obj
 0002:00004600       ??_C@_15EABBLBFF@?$AAs?$AAa?$AA?$AA@ 0000000180036600     libucrt:lcidtoname_downlevel.obj
 0002:00004608       ??_C@_15CBKOMCOI@?$AAm?$AAn?$AA?$AA@ 0000000180036608     libucrt:lcidtoname_downlevel.obj
 0002:00004610       ??_C@_15CKDMCJAF@?$AAg?$AAl?$AA?$AA@ 0000000180036610     libucrt:lcidtoname_downlevel.obj
 0002:00004618       ??_C@_17CNJFBPG@?$AAk?$AAo?$AAk?$AA?$AA@ 0000000180036618     libucrt:lcidtoname_downlevel.obj
 0002:00004620       ??_C@_17FFBJICPL@?$AAs?$AAy?$AAr?$AA?$AA@ 0000000180036620     libucrt:lcidtoname_downlevel.obj
 0002:00004628       ??_C@_17KPNDCPAF@?$AAd?$AAi?$AAv?$AA?$AA@ 0000000180036628     libucrt:lcidtoname_downlevel.obj
 0002:00004630       ??_C@_11LOCGONAA@?$AA?$AA@ 0000000180036630     libucrt:lcidtoname_downlevel.obj
 0002:00004638       ??_C@_1M@OKAHONE@?$AAa?$AAr?$AA?9?$AAS?$AAA?$AA?$AA@ 0000000180036638     libucrt:lcidtoname_downlevel.obj
 0002:00004648       ??_C@_1M@FFFIGIGK@?$AAb?$AAg?$AA?9?$AAB?$AAG?$AA?$AA@ 0000000180036648     libucrt:lcidtoname_downlevel.obj
 0002:00004658       ??_C@_1M@BJNKEDC@?$AAc?$AAa?$AA?9?$AAE?$AAS?$AA?$AA@ 0000000180036658     libucrt:lcidtoname_downlevel.obj
 0002:00004668       ??_C@_1M@IJJHFJHA@?$AAc?$AAs?$AA?9?$AAC?$AAZ?$AA?$AA@ 0000000180036668     libucrt:lcidtoname_downlevel.obj
 0002:00004678       ??_C@_1M@CLPEOBGI@?$AAd?$AAa?$AA?9?$AAD?$AAK?$AA?$AA@ 0000000180036678     libucrt:lcidtoname_downlevel.obj
 0002:00004688       ??_C@_1M@MCMADGCB@?$AAd?$AAe?$AA?9?$AAD?$AAE?$AA?$AA@ 0000000180036688     libucrt:lcidtoname_downlevel.obj
 0002:00004698       ??_C@_1M@OOCKEMAM@?$AAe?$AAl?$AA?9?$AAG?$AAR?$AA?$AA@ 0000000180036698     libucrt:lcidtoname_downlevel.obj
 0002:000046a8       ??_C@_1M@DDNJFGID@?$AAf?$AAi?$AA?9?$AAF?$AAI?$AA?$AA@ 00000001800366a8     libucrt:lcidtoname_downlevel.obj
 0002:000046b8       ??_C@_1M@GLIPPMAC@?$AAf?$AAr?$AA?9?$AAF?$AAR?$AA?$AA@ 00000001800366b8     libucrt:lcidtoname_downlevel.obj
 0002:000046c8       ??_C@_1M@GFMCHPE@?$AAh?$AAe?$AA?9?$AAI?$AAL?$AA?$AA@ 00000001800366c8     libucrt:lcidtoname_downlevel.obj
 0002:000046d8       ??_C@_1M@MHLPGNKM@?$AAh?$AAu?$AA?9?$AAH?$AAU?$AA?$AA@ 00000001800366d8     libucrt:lcidtoname_downlevel.obj
 0002:000046e8       ??_C@_1M@LPDDNNPN@?$AAi?$AAs?$AA?9?$AAI?$AAS?$AA?$AA@ 00000001800366e8     libucrt:lcidtoname_downlevel.obj
 0002:000046f8       ??_C@_1M@MADIPODN@?$AAi?$AAt?$AA?9?$AAI?$AAT?$AA?$AA@ 00000001800366f8     libucrt:lcidtoname_downlevel.obj
 0002:00004708       ??_C@_1M@IHBJJGG@?$AAn?$AAl?$AA?9?$AAN?$AAL?$AA?$AA@ 0000000180036708     libucrt:lcidtoname_downlevel.obj
 0002:00004718       ??_C@_1M@EANAGDL@?$AAn?$AAb?$AA?9?$AAN?$AAO?$AA?$AA@ 0000000180036718     libucrt:lcidtoname_downlevel.obj
 0002:00004728       ??_C@_1M@NEIEMEGP@?$AAp?$AAl?$AA?9?$AAP?$AAL?$AA?$AA@ 0000000180036728     libucrt:lcidtoname_downlevel.obj
 0002:00004738       ??_C@_1M@BOCFIGEP@?$AAp?$AAt?$AA?9?$AAB?$AAR?$AA?$AA@ 0000000180036738     libucrt:lcidtoname_downlevel.obj
 0002:00004748       ??_C@_1M@IMPFOPBG@?$AAr?$AAo?$AA?9?$AAR?$AAO?$AA?$AA@ 0000000180036748     libucrt:lcidtoname_downlevel.obj
 0002:00004758       ??_C@_1M@IDNNEJMM@?$AAr?$AAu?$AA?9?$AAR?$AAU?$AA?$AA@ 0000000180036758     libucrt:lcidtoname_downlevel.obj
 0002:00004768       ??_C@_1M@LILEEOGM@?$AAh?$AAr?$AA?9?$AAH?$AAR?$AA?$AA@ 0000000180036768     libucrt:lcidtoname_downlevel.obj
 0002:00004778       ??_C@_1M@FKIFEHPB@?$AAs?$AAk?$AA?9?$AAS?$AAK?$AA?$AA@ 0000000180036778     libucrt:lcidtoname_downlevel.obj
 0002:00004788       ??_C@_1M@LJMAMNPJ@?$AAs?$AAq?$AA?9?$AAA?$AAL?$AA?$AA@ 0000000180036788     libucrt:lcidtoname_downlevel.obj
 0002:00004798       ??_C@_1M@GIAKDKJK@?$AAs?$AAv?$AA?9?$AAS?$AAE?$AA?$AA@ 0000000180036798     libucrt:lcidtoname_downlevel.obj
 0002:000047a8       ??_C@_1M@MKJKIKCL@?$AAt?$AAh?$AA?9?$AAT?$AAH?$AA?$AA@ 00000001800367a8     libucrt:lcidtoname_downlevel.obj
 0002:000047b8       ??_C@_1M@MFLCCMPB@?$AAt?$AAr?$AA?9?$AAT?$AAR?$AA?$AA@ 00000001800367b8     libucrt:lcidtoname_downlevel.obj
 0002:000047c8       ??_C@_1M@OIJHDKJN@?$AAu?$AAr?$AA?9?$AAP?$AAK?$AA?$AA@ 00000001800367c8     libucrt:lcidtoname_downlevel.obj
 0002:000047d8       ??_C@_1M@LHIPCIEK@?$AAi?$AAd?$AA?9?$AAI?$AAD?$AA?$AA@ 00000001800367d8     libucrt:lcidtoname_downlevel.obj
 0002:000047e8       ??_C@_1M@MFMOBGI@?$AAu?$AAk?$AA?9?$AAU?$AAA?$AA?$AA@ 00000001800367e8     libucrt:lcidtoname_downlevel.obj
 0002:000047f8       ??_C@_1M@OBGLJIPL@?$AAb?$AAe?$AA?9?$AAB?$AAY?$AA?$AA@ 00000001800367f8     libucrt:lcidtoname_downlevel.obj
 0002:00004808       ??_C@_1M@BCFAJEAD@?$AAs?$AAl?$AA?9?$AAS?$AAI?$AA?$AA@ 0000000180036808     libucrt:lcidtoname_downlevel.obj
 0002:00004818       ??_C@_1M@FKFFEDDN@?$AAe?$AAt?$AA?9?$AAE?$AAE?$AA?$AA@ 0000000180036818     libucrt:lcidtoname_downlevel.obj
 0002:00004828       ??_C@_1M@KGKKAACI@?$AAl?$AAv?$AA?9?$AAL?$AAV?$AA?$AA@ 0000000180036828     libucrt:lcidtoname_downlevel.obj
 0002:00004838       ??_C@_1M@IFGBIJO@?$AAl?$AAt?$AA?9?$AAL?$AAT?$AA?$AA@ 0000000180036838     libucrt:lcidtoname_downlevel.obj
 0002:00004848       ??_C@_1M@FGEAHEDM@?$AAf?$AAa?$AA?9?$AAI?$AAR?$AA?$AA@ 0000000180036848     libucrt:lcidtoname_downlevel.obj
 0002:00004858       ??_C@_1M@KBMAIBFN@?$AAv?$AAi?$AA?9?$AAV?$AAN?$AA?$AA@ 0000000180036858     libucrt:lcidtoname_downlevel.obj
 0002:00004868       ??_C@_1M@GPCBKDJK@?$AAh?$AAy?$AA?9?$AAA?$AAM?$AA?$AA@ 0000000180036868     libucrt:lcidtoname_downlevel.obj
 0002:00004878       ??_C@_1BG@BECMDDJB@?$AAa?$AAz?$AA?9?$AAA?$AAZ?$AA?9?$AAL?$AAa?$AAt?$AAn?$AA?$AA@ 0000000180036878     libucrt:lcidtoname_downlevel.obj
 0002:00004890       ??_C@_1M@MAOFCAEA@?$AAe?$AAu?$AA?9?$AAE?$AAS?$AA?$AA@ 0000000180036890     libucrt:lcidtoname_downlevel.obj
 0002:000048a0       ??_C@_1M@IGHABKPI@?$AAm?$AAk?$AA?9?$AAM?$AAK?$AA?$AA@ 00000001800368a0     libucrt:lcidtoname_downlevel.obj
 0002:000048b0       ??_C@_1M@IAIGNEJG@?$AAt?$AAn?$AA?9?$AAZ?$AAA?$AA?$AA@ 00000001800368b0     libucrt:lcidtoname_downlevel.obj
 0002:000048c0       ??_C@_1M@IIJCOJFA@?$AAx?$AAh?$AA?9?$AAZ?$AAA?$AA?$AA@ 00000001800368c0     libucrt:lcidtoname_downlevel.obj
 0002:000048d0       ??_C@_1M@LGPJHNJH@?$AAz?$AAu?$AA?9?$AAZ?$AAA?$AA?$AA@ 00000001800368d0     libucrt:lcidtoname_downlevel.obj
 0002:000048e0       ??_C@_1M@HOKAOIO@?$AAa?$AAf?$AA?9?$AAZ?$AAA?$AA?$AA@ 00000001800368e0     libucrt:lcidtoname_downlevel.obj
 0002:000048f0       ??_C@_1M@DPCLHLIE@?$AAk?$AAa?$AA?9?$AAG?$AAE?$AA?$AA@ 00000001800368f0     libucrt:lcidtoname_downlevel.obj
 0002:00004900       ??_C@_1M@BLKMHJBI@?$AAf?$AAo?$AA?9?$AAF?$AAO?$AA?$AA@ 0000000180036900     libucrt:lcidtoname_downlevel.obj
 0002:00004910       ??_C@_1M@LGGJAPPB@?$AAh?$AAi?$AA?9?$AAI?$AAN?$AA?$AA@ 0000000180036910     libucrt:lcidtoname_downlevel.obj
 0002:00004920       ??_C@_1M@FIKPIHFE@?$AAm?$AAt?$AA?9?$AAM?$AAT?$AA?$AA@ 0000000180036920     libucrt:lcidtoname_downlevel.obj
 0002:00004930       ??_C@_1M@HEGGPBFA@?$AAs?$AAe?$AA?9?$AAN?$AAO?$AA?$AA@ 0000000180036930     libucrt:lcidtoname_downlevel.obj
 0002:00004940       ??_C@_1M@EIBJEEPA@?$AAm?$AAs?$AA?9?$AAM?$AAY?$AA?$AA@ 0000000180036940     libucrt:lcidtoname_downlevel.obj
 0002:00004950       ??_C@_1M@FHLBGMPP@?$AAk?$AAk?$AA?9?$AAK?$AAZ?$AA?$AA@ 0000000180036950     libucrt:lcidtoname_downlevel.obj
 0002:00004960       ??_C@_1M@NGJJLCGI@?$AAk?$AAy?$AA?9?$AAK?$AAG?$AA?$AA@ 0000000180036960     libucrt:lcidtoname_downlevel.obj
 0002:00004970       ??_C@_1M@GIENNBFC@?$AAs?$AAw?$AA?9?$AAK?$AAE?$AA?$AA@ 0000000180036970     libucrt:lcidtoname_downlevel.obj
 0002:00004980       ??_C@_1BG@NDGMJIMJ@?$AAu?$AAz?$AA?9?$AAU?$AAZ?$AA?9?$AAL?$AAa?$AAt?$AAn?$AA?$AA@ 0000000180036980     libucrt:lcidtoname_downlevel.obj
 0002:00004998       ??_C@_1M@IDCCIHBC@?$AAt?$AAt?$AA?9?$AAR?$AAU?$AA?$AA@ 0000000180036998     libucrt:lcidtoname_downlevel.obj
 0002:000049a8       ??_C@_1M@LOICPMOJ@?$AAb?$AAn?$AA?9?$AAI?$AAN?$AA?$AA@ 00000001800369a8     libucrt:lcidtoname_downlevel.obj
 0002:000049b8       ??_C@_1M@KPKKNEAH@?$AAp?$AAa?$AA?9?$AAI?$AAN?$AA?$AA@ 00000001800369b8     libucrt:lcidtoname_downlevel.obj
 0002:000049c8       ??_C@_1M@PJGPPBOG@?$AAg?$AAu?$AA?9?$AAI?$AAN?$AA?$AA@ 00000001800369c8     libucrt:lcidtoname_downlevel.obj
 0002:000049d8       ??_C@_1M@KMKMOPHI@?$AAt?$AAa?$AA?9?$AAI?$AAN?$AA?$AA@ 00000001800369d8     libucrt:lcidtoname_downlevel.obj
 0002:000049e8       ??_C@_1M@KFEHEPAC@?$AAt?$AAe?$AA?9?$AAI?$AAN?$AA?$AA@ 00000001800369e8     libucrt:lcidtoname_downlevel.obj
 0002:000049f8       ??_C@_1M@CDCLMGHI@?$AAk?$AAn?$AA?9?$AAI?$AAN?$AA?$AA@ 00000001800369f8     libucrt:lcidtoname_downlevel.obj
 0002:00004a08       ??_C@_1M@MIODLDKF@?$AAm?$AAl?$AA?9?$AAI?$AAN?$AA?$AA@ 0000000180036a08     libucrt:lcidtoname_downlevel.obj
 0002:00004a18       ??_C@_1M@PBIEACPO@?$AAm?$AAr?$AA?9?$AAI?$AAN?$AA?$AA@ 0000000180036a18     libucrt:lcidtoname_downlevel.obj
 0002:00004a28       ??_C@_1M@NIDEAGPH@?$AAs?$AAa?$AA?9?$AAI?$AAN?$AA?$AA@ 0000000180036a28     libucrt:lcidtoname_downlevel.obj
 0002:00004a38       ??_C@_1M@FHIHCBIO@?$AAm?$AAn?$AA?9?$AAM?$AAN?$AA?$AA@ 0000000180036a38     libucrt:lcidtoname_downlevel.obj
 0002:00004a48       ??_C@_1M@JAIJPENP@?$AAc?$AAy?$AA?9?$AAG?$AAB?$AA?$AA@ 0000000180036a48     libucrt:lcidtoname_downlevel.obj
 0002:00004a58       ??_C@_1M@PHGFBEPN@?$AAg?$AAl?$AA?9?$AAE?$AAS?$AA?$AA@ 0000000180036a58     libucrt:lcidtoname_downlevel.obj
 0002:00004a68       ??_C@_1O@KPIPDNCP@?$AAk?$AAo?$AAk?$AA?9?$AAI?$AAN?$AA?$AA@ 0000000180036a68     libucrt:lcidtoname_downlevel.obj
 0002:00004a78       ??_C@_1O@KNHJLDJA@?$AAs?$AAy?$AAr?$AA?9?$AAS?$AAY?$AA?$AA@ 0000000180036a78     libucrt:lcidtoname_downlevel.obj
 0002:00004a88       ??_C@_1O@MKEKBLAH@?$AAd?$AAi?$AAv?$AA?9?$AAM?$AAV?$AA?$AA@ 0000000180036a88     libucrt:lcidtoname_downlevel.obj
 0002:00004a98       ??_C@_1O@OHDCKDDF@?$AAq?$AAu?$AAz?$AA?9?$AAB?$AAO?$AA?$AA@ 0000000180036a98     libucrt:lcidtoname_downlevel.obj
 0002:00004aa8       ??_C@_1M@LEPJNLFD@?$AAn?$AAs?$AA?9?$AAZ?$AAA?$AA?$AA@ 0000000180036aa8     libucrt:lcidtoname_downlevel.obj
 0002:00004ab8       ??_C@_1M@OMLEIIJB@?$AAm?$AAi?$AA?9?$AAN?$AAZ?$AA?$AA@ 0000000180036ab8     libucrt:lcidtoname_downlevel.obj
 0002:00004ac8       ??_C@_1M@PMPEAILG@?$AAa?$AAr?$AA?9?$AAI?$AAQ?$AA?$AA@ 0000000180036ac8     libucrt:lcidtoname_downlevel.obj
 0002:00004ad8       ??_C@_1M@CNKPNOEE@?$AAd?$AAe?$AA?9?$AAC?$AAH?$AA?$AA@ 0000000180036ad8     libucrt:lcidtoname_downlevel.obj
 0002:00004ae8       ??_C@_1M@LKMGMLKO@?$AAe?$AAn?$AA?9?$AAG?$AAB?$AA?$AA@ 0000000180036ae8     libucrt:lcidtoname_downlevel.obj
 0002:00004af8       ??_C@_1M@PGKJFFGL@?$AAe?$AAs?$AA?9?$AAM?$AAX?$AA?$AA@ 0000000180036af8     libucrt:lcidtoname_downlevel.obj
 0002:00004b08       ??_C@_1M@DNNANBDC@?$AAf?$AAr?$AA?9?$AAB?$AAE?$AA?$AA@ 0000000180036b08     libucrt:lcidtoname_downlevel.obj
 0002:00004b18       ??_C@_1M@HLGMDFHM@?$AAi?$AAt?$AA?9?$AAC?$AAH?$AA?$AA@ 0000000180036b18     libucrt:lcidtoname_downlevel.obj
 0002:00004b28       ??_C@_1M@CLLBGJH@?$AAn?$AAl?$AA?9?$AAB?$AAE?$AA?$AA@ 0000000180036b28     libucrt:lcidtoname_downlevel.obj
 0002:00004b38       ??_C@_1M@BODBOGLF@?$AAn?$AAn?$AA?9?$AAN?$AAO?$AA?$AA@ 0000000180036b38     libucrt:lcidtoname_downlevel.obj
 0002:00004b48       ??_C@_1M@HFFAHKAD@?$AAp?$AAt?$AA?9?$AAP?$AAT?$AA?$AA@ 0000000180036b48     libucrt:lcidtoname_downlevel.obj
 0002:00004b58       ??_C@_1BG@LNOAKHIE@?$AAs?$AAr?$AA?9?$AAS?$AAP?$AA?9?$AAL?$AAa?$AAt?$AAn?$AA?$AA@ 0000000180036b58     libucrt:lcidtoname_downlevel.obj
 0002:00004b70       ??_C@_1M@HBMHBGAK@?$AAs?$AAv?$AA?9?$AAF?$AAI?$AA?$AA@ 0000000180036b70     libucrt:lcidtoname_downlevel.obj
 0002:00004b80       ??_C@_1BG@DGCJGJBE@?$AAa?$AAz?$AA?9?$AAA?$AAZ?$AA?9?$AAC?$AAy?$AAr?$AAl?$AA?$AA@ 0000000180036b80     libucrt:lcidtoname_downlevel.obj
 0002:00004b98       ??_C@_1M@KEJDAAHB@?$AAs?$AAe?$AA?9?$AAS?$AAE?$AA?$AA@ 0000000180036b98     libucrt:lcidtoname_downlevel.obj
 0002:00004ba8       ??_C@_1M@HEIBJJAD@?$AAm?$AAs?$AA?9?$AAB?$AAN?$AA?$AA@ 0000000180036ba8     libucrt:lcidtoname_downlevel.obj
 0002:00004bb8       ??_C@_1BG@PBGJMCEM@?$AAu?$AAz?$AA?9?$AAU?$AAZ?$AA?9?$AAC?$AAy?$AAr?$AAl?$AA?$AA@ 0000000180036bb8     libucrt:lcidtoname_downlevel.obj
 0002:00004bd0       ??_C@_1O@LAOBCMDF@?$AAq?$AAu?$AAz?$AA?9?$AAE?$AAC?$AA?$AA@ 0000000180036bd0     libucrt:lcidtoname_downlevel.obj
 0002:00004be0       ??_C@_1M@POEEMAIO@?$AAa?$AAr?$AA?9?$AAE?$AAG?$AA?$AA@ 0000000180036be0     libucrt:lcidtoname_downlevel.obj
 0002:00004bf0       ??_C@_1M@EFAKDEDL@?$AAz?$AAh?$AA?9?$AAH?$AAK?$AA?$AA@ 0000000180036bf0     libucrt:lcidtoname_downlevel.obj
 0002:00004c00       ??_C@_1M@HKKIJHGI@?$AAd?$AAe?$AA?9?$AAA?$AAT?$AA?$AA@ 0000000180036c00     libucrt:lcidtoname_downlevel.obj
 0002:00004c10       ??_C@_1M@KBFBEHJF@?$AAe?$AAn?$AA?9?$AAA?$AAU?$AA?$AA@ 0000000180036c10     libucrt:lcidtoname_downlevel.obj
 0002:00004c20       ??_C@_1M@MNPLFAAH@?$AAe?$AAs?$AA?9?$AAE?$AAS?$AA?$AA@ 0000000180036c20     libucrt:lcidtoname_downlevel.obj
 0002:00004c30       ??_C@_1M@HJOOJFMA@?$AAf?$AAr?$AA?9?$AAC?$AAA?$AA?$AA@ 0000000180036c30     libucrt:lcidtoname_downlevel.obj
 0002:00004c40       ??_C@_1BG@JPOFPNAB@?$AAs?$AAr?$AA?9?$AAS?$AAP?$AA?9?$AAC?$AAy?$AAr?$AAl?$AA?$AA@ 0000000180036c40     libucrt:lcidtoname_downlevel.obj
 0002:00004c58       ??_C@_1M@LNFOCMOB@?$AAs?$AAe?$AA?9?$AAF?$AAI?$AA?$AA@ 0000000180036c58     libucrt:lcidtoname_downlevel.obj
 0002:00004c68       ??_C@_1O@MGJBOAMB@?$AAq?$AAu?$AAz?$AA?9?$AAP?$AAE?$AA?$AA@ 0000000180036c68     libucrt:lcidtoname_downlevel.obj
 0002:00004c78       ??_C@_1M@GJINLBOK@?$AAa?$AAr?$AA?9?$AAL?$AAY?$AA?$AA@ 0000000180036c78     libucrt:lcidtoname_downlevel.obj
 0002:00004c88       ??_C@_1M@GGMNHJNL@?$AAz?$AAh?$AA?9?$AAS?$AAG?$AA?$AA@ 0000000180036c88     libucrt:lcidtoname_downlevel.obj
 0002:00004c98       ??_C@_1M@HOIKODND@?$AAd?$AAe?$AA?9?$AAL?$AAU?$AA?$AA@ 0000000180036c98     libucrt:lcidtoname_downlevel.obj
 0002:00004ca8       ??_C@_1M@DDOCCGFG@?$AAe?$AAn?$AA?9?$AAC?$AAA?$AA?$AA@ 0000000180036ca8     libucrt:lcidtoname_downlevel.obj
 0002:00004cb8       ??_C@_1M@BNOEMJLF@?$AAe?$AAs?$AA?9?$AAG?$AAT?$AA?$AA@ 0000000180036cb8     libucrt:lcidtoname_downlevel.obj
 0002:00004cc8       ??_C@_1M@EOGNKEK@?$AAf?$AAr?$AA?9?$AAC?$AAH?$AA?$AA@ 0000000180036cc8     libucrt:lcidtoname_downlevel.obj
 0002:00004cd8       ??_C@_1M@FLIDJFHL@?$AAh?$AAr?$AA?9?$AAB?$AAA?$AA?$AA@ 0000000180036cd8     libucrt:lcidtoname_downlevel.obj
 0002:00004ce8       ??_C@_1O@FMCELNAJ@?$AAs?$AAm?$AAj?$AA?9?$AAN?$AAO?$AA?$AA@ 0000000180036ce8     libucrt:lcidtoname_downlevel.obj
 0002:00004cf8       ??_C@_1M@JHGLJMGJ@?$AAa?$AAr?$AA?9?$AAD?$AAZ?$AA?$AA@ 0000000180036cf8     libucrt:lcidtoname_downlevel.obj
 0002:00004d08       ??_C@_1M@JKKFDCNP@?$AAz?$AAh?$AA?9?$AAM?$AAO?$AA?$AA@ 0000000180036d08     libucrt:lcidtoname_downlevel.obj
 0002:00004d18       ??_C@_1M@GEEFALPE@?$AAd?$AAe?$AA?9?$AAL?$AAI?$AA?$AA@ 0000000180036d18     libucrt:lcidtoname_downlevel.obj
 0002:00004d28       ??_C@_1M@IGEOFBG@?$AAe?$AAn?$AA?9?$AAN?$AAZ?$AA?$AA@ 0000000180036d28     libucrt:lcidtoname_downlevel.obj
 0002:00004d38       ??_C@_1M@KDBONEHP@?$AAe?$AAs?$AA?9?$AAC?$AAR?$AA?$AA@ 0000000180036d38     libucrt:lcidtoname_downlevel.obj
 0002:00004d48       ??_C@_1M@FHMDOHNN@?$AAf?$AAr?$AA?9?$AAL?$AAU?$AA?$AA@ 0000000180036d48     libucrt:lcidtoname_downlevel.obj
 0002:00004d58       ??_C@_1BG@NFKKMAFG@?$AAb?$AAs?$AA?9?$AAB?$AAA?$AA?9?$AAL?$AAa?$AAt?$AAn?$AA?$AA@ 0000000180036d58     libucrt:lcidtoname_downlevel.obj
 0002:00004d70       ??_C@_1O@IMNBEMCI@?$AAs?$AAm?$AAj?$AA?9?$AAS?$AAE?$AA?$AA@ 0000000180036d70     libucrt:lcidtoname_downlevel.obj
 0002:00004d80       ??_C@_1M@DHHMBNDP@?$AAa?$AAr?$AA?9?$AAM?$AAA?$AA?$AA@ 0000000180036d80     libucrt:lcidtoname_downlevel.obj
 0002:00004d90       ??_C@_1M@BNBLJCGH@?$AAe?$AAn?$AA?9?$AAI?$AAE?$AA?$AA@ 0000000180036d90     libucrt:lcidtoname_downlevel.obj
 0002:00004da0       ??_C@_1M@GEPAFMDL@?$AAe?$AAs?$AA?9?$AAP?$AAA?$AA?$AA@ 0000000180036da0     libucrt:lcidtoname_downlevel.obj
 0002:00004db0       ??_C@_1M@OJONDMDL@?$AAf?$AAr?$AA?9?$AAM?$AAC?$AA?$AA@ 0000000180036db0     libucrt:lcidtoname_downlevel.obj
 0002:00004dc0       ??_C@_1BG@OBCNFJB@?$AAs?$AAr?$AA?9?$AAB?$AAA?$AA?9?$AAL?$AAa?$AAt?$AAn?$AA?$AA@ 0000000180036dc0     libucrt:lcidtoname_downlevel.obj
 0002:00004dd8       ??_C@_1O@KEMEEGPO@?$AAs?$AAm?$AAa?$AA?9?$AAN?$AAO?$AA?$AA@ 0000000180036dd8     libucrt:lcidtoname_downlevel.obj
 0002:00004de8       ??_C@_1M@ELMGFODK@?$AAa?$AAr?$AA?9?$AAT?$AAN?$AA?$AA@ 0000000180036de8     libucrt:lcidtoname_downlevel.obj
 0002:00004df8       ??_C@_1M@BHDLHFAF@?$AAe?$AAn?$AA?9?$AAZ?$AAA?$AA?$AA@ 0000000180036df8     libucrt:lcidtoname_downlevel.obj
 0002:00004e08       ??_C@_1M@BMGIGLIF@?$AAe?$AAs?$AA?9?$AAD?$AAO?$AA?$AA@ 0000000180036e08     libucrt:lcidtoname_downlevel.obj
 0002:00004e18       ??_C@_1BG@CMBHIPBE@?$AAs?$AAr?$AA?9?$AAB?$AAA?$AA?9?$AAC?$AAy?$AAr?$AAl?$AA?$AA@ 0000000180036e18     libucrt:lcidtoname_downlevel.obj
 0002:00004e30       ??_C@_1O@HEDBLHNP@?$AAs?$AAm?$AAa?$AA?9?$AAS?$AAE?$AA?$AA@ 0000000180036e30     libucrt:lcidtoname_downlevel.obj
 0002:00004e40       ??_C@_1M@DAGCADIM@?$AAa?$AAr?$AA?9?$AAO?$AAM?$AA?$AA@ 0000000180036e40     libucrt:lcidtoname_downlevel.obj
 0002:00004e50       ??_C@_1M@FODLMICG@?$AAe?$AAn?$AA?9?$AAJ?$AAM?$AA?$AA@ 0000000180036e50     libucrt:lcidtoname_downlevel.obj
 0002:00004e60       ??_C@_1M@DNMLCIHB@?$AAe?$AAs?$AA?9?$AAV?$AAE?$AA?$AA@ 0000000180036e60     libucrt:lcidtoname_downlevel.obj
 0002:00004e70       ??_C@_1O@EOKHMKJK@?$AAs?$AAm?$AAs?$AA?9?$AAF?$AAI?$AA?$AA@ 0000000180036e70     libucrt:lcidtoname_downlevel.obj
 0002:00004e80       ??_C@_1M@CAFJMKOF@?$AAa?$AAr?$AA?9?$AAY?$AAE?$AA?$AA@ 0000000180036e80     libucrt:lcidtoname_downlevel.obj
 0002:00004e90       ??_C@_1M@CBFHIJLI@?$AAe?$AAn?$AA?9?$AAC?$AAB?$AA?$AA@ 0000000180036e90     libucrt:lcidtoname_downlevel.obj
 0002:00004ea0       ??_C@_1M@BGNFLDN@?$AAe?$AAs?$AA?9?$AAC?$AAO?$AA?$AA@ 0000000180036ea0     libucrt:lcidtoname_downlevel.obj
 0002:00004eb0       ??_C@_1O@JMPHMAMC@?$AAs?$AAm?$AAn?$AA?9?$AAF?$AAI?$AA?$AA@ 0000000180036eb0     libucrt:lcidtoname_downlevel.obj
 0002:00004ec0       ??_C@_1M@JLANABKE@?$AAa?$AAr?$AA?9?$AAS?$AAY?$AA?$AA@ 0000000180036ec0     libucrt:lcidtoname_downlevel.obj
 0002:00004ed0       ??_C@_1M@HPKGCFGN@?$AAe?$AAn?$AA?9?$AAB?$AAZ?$AA?$AA@ 0000000180036ed0     libucrt:lcidtoname_downlevel.obj
 0002:00004ee0       ??_C@_1M@OLJCMLGM@?$AAe?$AAs?$AA?9?$AAP?$AAE?$AA?$AA@ 0000000180036ee0     libucrt:lcidtoname_downlevel.obj
 0002:00004ef0       ??_C@_1M@MKKGFKLE@?$AAa?$AAr?$AA?9?$AAJ?$AAO?$AA?$AA@ 0000000180036ef0     libucrt:lcidtoname_downlevel.obj
 0002:00004f00       ??_C@_1M@EKPGLDNI@?$AAe?$AAn?$AA?9?$AAT?$AAT?$AA?$AA@ 0000000180036f00     libucrt:lcidtoname_downlevel.obj
 0002:00004f10       ??_C@_1M@OONGHFHE@?$AAe?$AAs?$AA?9?$AAA?$AAR?$AA?$AA@ 0000000180036f10     libucrt:lcidtoname_downlevel.obj
 0002:00004f20       ??_C@_1M@OOJFGBHE@?$AAa?$AAr?$AA?9?$AAL?$AAB?$AA?$AA@ 0000000180036f20     libucrt:lcidtoname_downlevel.obj
 0002:00004f30       ??_C@_1M@GCEJHNEG@?$AAe?$AAn?$AA?9?$AAZ?$AAW?$AA?$AA@ 0000000180036f30     libucrt:lcidtoname_downlevel.obj
 0002:00004f40       ??_C@_1M@JNOCAHJI@?$AAe?$AAs?$AA?9?$AAE?$AAC?$AA?$AA@ 0000000180036f40     libucrt:lcidtoname_downlevel.obj
 0002:00004f50       ??_C@_1M@JEFHPGGB@?$AAa?$AAr?$AA?9?$AAK?$AAW?$AA?$AA@ 0000000180036f50     libucrt:lcidtoname_downlevel.obj
 0002:00004f60       ??_C@_1M@MLKIBJOJ@?$AAe?$AAn?$AA?9?$AAP?$AAH?$AA?$AA@ 0000000180036f60     libucrt:lcidtoname_downlevel.obj
 0002:00004f70       ??_C@_1M@BDNIPEND@?$AAe?$AAs?$AA?9?$AAC?$AAL?$AA?$AA@ 0000000180036f70     libucrt:lcidtoname_downlevel.obj
 0002:00004f80       ??_C@_1M@MPNMEKBD@?$AAa?$AAr?$AA?9?$AAA?$AAE?$AA?$AA@ 0000000180036f80     libucrt:lcidtoname_downlevel.obj
 0002:00004f90       ??_C@_1M@KBJALCPI@?$AAe?$AAs?$AA?9?$AAU?$AAY?$AA?$AA@ 0000000180036f90     libucrt:lcidtoname_downlevel.obj
 0002:00004fa0       ??_C@_1M@LLCCOAGA@?$AAa?$AAr?$AA?9?$AAB?$AAH?$AA?$AA@ 0000000180036fa0     libucrt:lcidtoname_downlevel.obj
 0002:00004fb0       ??_C@_1M@PBFNCDEL@?$AAe?$AAs?$AA?9?$AAP?$AAY?$AA?$AA@ 0000000180036fb0     libucrt:lcidtoname_downlevel.obj
 0002:00004fc0       ??_C@_1M@EDGINPNP@?$AAa?$AAr?$AA?9?$AAQ?$AAA?$AA?$AA@ 0000000180036fc0     libucrt:lcidtoname_downlevel.obj
 0002:00004fd0       ??_C@_1M@MKDBIIJI@?$AAe?$AAs?$AA?9?$AAB?$AAO?$AA?$AA@ 0000000180036fd0     libucrt:lcidtoname_downlevel.obj
 0002:00004fe0       ??_C@_1M@CPKKEBLD@?$AAe?$AAs?$AA?9?$AAS?$AAV?$AA?$AA@ 0000000180036fe0     libucrt:lcidtoname_downlevel.obj
 0002:00004ff0       ??_C@_1M@NDBGMMJL@?$AAe?$AAs?$AA?9?$AAH?$AAN?$AA?$AA@ 0000000180036ff0     libucrt:lcidtoname_downlevel.obj
 0002:00005000       ??_C@_1M@JIJIBHDP@?$AAe?$AAs?$AA?9?$AAN?$AAI?$AA?$AA@ 0000000180037000     libucrt:lcidtoname_downlevel.obj
 0002:00005010       ??_C@_1M@CGFMKEEK@?$AAe?$AAs?$AA?9?$AAP?$AAR?$AA?$AA@ 0000000180037010     libucrt:lcidtoname_downlevel.obj
 0002:00005020       ??_C@_1O@ICJHKIIK@?$AAz?$AAh?$AA?9?$AAC?$AAH?$AAT?$AA?$AA@ 0000000180037020     libucrt:lcidtoname_downlevel.obj
 0002:00005030       ??_C@_15CLNEJCE@?$AAs?$AAr?$AA?$AA@ 0000000180037030     libucrt:lcidtoname_downlevel.obj
 0002:00005e80       ??_C@_1M@KAHEKEIG@?$AAa?$AAf?$AA?9?$AAz?$AAa?$AA?$AA@ 0000000180037e80     libucrt:lcidtoname_downlevel.obj
 0002:00005e90       ??_C@_1M@GIECOABL@?$AAa?$AAr?$AA?9?$AAa?$AAe?$AA?$AA@ 0000000180037e90     libucrt:lcidtoname_downlevel.obj
 0002:00005ea0       ??_C@_1M@BMLMEKGI@?$AAa?$AAr?$AA?9?$AAb?$AAh?$AA?$AA@ 0000000180037ea0     libucrt:lcidtoname_downlevel.obj
 0002:00005eb0       ??_C@_1M@DAPFDGGB@?$AAa?$AAr?$AA?9?$AAd?$AAz?$AA?$AA@ 0000000180037eb0     libucrt:lcidtoname_downlevel.obj
 0002:00005ec0       ??_C@_1M@FJNKGKIG@?$AAa?$AAr?$AA?9?$AAe?$AAg?$AA?$AA@ 0000000180037ec0     libucrt:lcidtoname_downlevel.obj
 0002:00005ed0       ??_C@_1M@FLGKKCLO@?$AAa?$AAr?$AA?9?$AAi?$AAq?$AA?$AA@ 0000000180037ed0     libucrt:lcidtoname_downlevel.obj
 0002:00005ee0       ??_C@_1M@GNDIPALM@?$AAa?$AAr?$AA?9?$AAj?$AAo?$AA?$AA@ 0000000180037ee0     libucrt:lcidtoname_downlevel.obj
 0002:00005ef0       ??_C@_1M@DDMJFMGJ@?$AAa?$AAr?$AA?9?$AAk?$AAw?$AA?$AA@ 0000000180037ef0     libucrt:lcidtoname_downlevel.obj
 0002:00005f00       ??_C@_1M@EJALMLHM@?$AAa?$AAr?$AA?9?$AAl?$AAb?$AA?$AA@ 0000000180037f00     libucrt:lcidtoname_downlevel.obj
 0002:00005f10       ??_C@_1M@MOBDBLOC@?$AAa?$AAr?$AA?9?$AAl?$AAy?$AA?$AA@ 0000000180037f10     libucrt:lcidtoname_downlevel.obj
 0002:00005f20       ??_C@_1M@JAOCLHDH@?$AAa?$AAr?$AA?9?$AAm?$AAa?$AA?$AA@ 0000000180037f20     libucrt:lcidtoname_downlevel.obj
 0002:00005f30       ??_C@_1M@JHPMKJIE@?$AAa?$AAr?$AA?9?$AAo?$AAm?$AA?$AA@ 0000000180037f30     libucrt:lcidtoname_downlevel.obj
 0002:00005f40       ??_C@_1M@OEPGHFNH@?$AAa?$AAr?$AA?9?$AAq?$AAa?$AA?$AA@ 0000000180037f40     libucrt:lcidtoname_downlevel.obj
 0002:00005f50       ??_C@_1M@KJDONENM@?$AAa?$AAr?$AA?9?$AAs?$AAa?$AA?$AA@ 0000000180037f50     libucrt:lcidtoname_downlevel.obj
 0002:00005f60       ??_C@_1M@DMJDKLKM@?$AAa?$AAr?$AA?9?$AAs?$AAy?$AA?$AA@ 0000000180037f60     libucrt:lcidtoname_downlevel.obj
 0002:00005f70       ??_C@_1M@OMFIPEDC@?$AAa?$AAr?$AA?9?$AAt?$AAn?$AA?$AA@ 0000000180037f70     libucrt:lcidtoname_downlevel.obj
 0002:00005f80       ??_C@_1M@IHMHGAON@?$AAa?$AAr?$AA?9?$AAy?$AAe?$AA?$AA@ 0000000180037f80     libucrt:lcidtoname_downlevel.obj
 0002:00005f90       ??_C@_1BG@KDCPGJGB@?$AAa?$AAz?$AA?9?$AAa?$AAz?$AA?9?$AAc?$AAy?$AAr?$AAl?$AA?$AA@ 0000000180037f90     libucrt:lcidtoname_downlevel.obj
 0002:00005fa8       ??_C@_1BG@IBCKDDOE@?$AAa?$AAz?$AA?9?$AAa?$AAz?$AA?9?$AAl?$AAa?$AAt?$AAn?$AA?$AA@ 0000000180037fa8     libucrt:lcidtoname_downlevel.obj
 0002:00005fc0       ??_C@_1M@EGPFDCPD@?$AAb?$AAe?$AA?9?$AAb?$AAy?$AA?$AA@ 0000000180037fc0     libucrt:lcidtoname_downlevel.obj
 0002:00005fd0       ??_C@_1M@PCMGMCGC@?$AAb?$AAg?$AA?9?$AAb?$AAg?$AA?$AA@ 0000000180037fd0     libucrt:lcidtoname_downlevel.obj
 0002:00005fe0       ??_C@_1M@BJBMFGOB@?$AAb?$AAn?$AA?9?$AAi?$AAn?$AA?$AA@ 0000000180037fe0     libucrt:lcidtoname_downlevel.obj
 0002:00005ff0       ??_C@_1BG@EAKMMACD@?$AAb?$AAs?$AA?9?$AAb?$AAa?$AA?9?$AAl?$AAa?$AAt?$AAn?$AA?$AA@ 0000000180037ff0     libucrt:lcidtoname_downlevel.obj
 0002:00006008       ??_C@_1M@KGADAODK@?$AAc?$AAa?$AA?9?$AAe?$AAs?$AA?$AA@ 0000000180038008     libucrt:lcidtoname_downlevel.obj
 0002:00006018       ??_C@_1M@COAJPDHI@?$AAc?$AAs?$AA?9?$AAc?$AAz?$AA?$AA@ 0000000180038018     libucrt:lcidtoname_downlevel.obj
 0002:00006028       ??_C@_1M@DHBHFONH@?$AAc?$AAy?$AA?9?$AAg?$AAb?$AA?$AA@ 0000000180038028     libucrt:lcidtoname_downlevel.obj
 0002:00006038       ??_C@_1M@IMGKELGA@?$AAd?$AAa?$AA?9?$AAd?$AAk?$AA?$AA@ 0000000180038038     libucrt:lcidtoname_downlevel.obj
 0002:00006048       ??_C@_1M@NNDGDNGA@?$AAd?$AAe?$AA?9?$AAa?$AAt?$AA?$AA@ 0000000180038048     libucrt:lcidtoname_downlevel.obj
 0002:00006058       ??_C@_1M@IKDBHEEM@?$AAd?$AAe?$AA?9?$AAc?$AAh?$AA?$AA@ 0000000180038058     libucrt:lcidtoname_downlevel.obj
 0002:00006068       ??_C@_1M@GFFOJMCJ@?$AAd?$AAe?$AA?9?$AAd?$AAe?$AA?$AA@ 0000000180038068     libucrt:lcidtoname_downlevel.obj
 0002:00006078       ??_C@_1M@MDNLKBPM@?$AAd?$AAe?$AA?9?$AAl?$AAi?$AA?$AA@ 0000000180038078     libucrt:lcidtoname_downlevel.obj
 0002:00006088       ??_C@_1M@NJBEEJNL@?$AAd?$AAe?$AA?9?$AAl?$AAu?$AA?$AA@ 0000000180038088     libucrt:lcidtoname_downlevel.obj
 0002:00006098       ??_C@_1O@GNNELBAP@?$AAd?$AAi?$AAv?$AA?9?$AAm?$AAv?$AA?$AA@ 0000000180038098     libucrt:lcidtoname_downlevel.obj
 0002:000060a8       ??_C@_1M@EJLEOGAE@?$AAe?$AAl?$AA?9?$AAg?$AAr?$AA?$AA@ 00000001800380a8     libucrt:lcidtoname_downlevel.obj
 0002:000060b8       ??_C@_1M@GMPONJN@?$AAe?$AAn?$AA?9?$AAa?$AAu?$AA?$AA@ 00000001800380b8     libucrt:lcidtoname_downlevel.obj
 0002:000060c8       ??_C@_1M@NIDIIPGF@?$AAe?$AAn?$AA?9?$AAb?$AAz?$AA?$AA@ 00000001800380c8     libucrt:lcidtoname_downlevel.obj
 0002:000060d8       ??_C@_1M@JEHMIMFO@?$AAe?$AAn?$AA?9?$AAc?$AAa?$AA?$AA@ 00000001800380d8     libucrt:lcidtoname_downlevel.obj
 0002:000060e8       ??_C@_1M@IGMJCDLA@?$AAe?$AAn?$AA?9?$AAc?$AAb?$AA?$AA@ 00000001800380e8     libucrt:lcidtoname_downlevel.obj
 0002:000060f8       ??_C@_1M@BNFIGBKG@?$AAe?$AAn?$AA?9?$AAg?$AAb?$AA?$AA@ 00000001800380f8     libucrt:lcidtoname_downlevel.obj
 0002:00006108       ??_C@_1M@LKIFDIGP@?$AAe?$AAn?$AA?9?$AAi?$AAe?$AA?$AA@ 0000000180038108     libucrt:lcidtoname_downlevel.obj
 0002:00006118       ??_C@_1M@PJKFGCCO@?$AAe?$AAn?$AA?9?$AAj?$AAm?$AA?$AA@ 0000000180038118     libucrt:lcidtoname_downlevel.obj
 0002:00006128       ??_C@_1M@KPPKEPBO@?$AAe?$AAn?$AA?9?$AAn?$AAz?$AA?$AA@ 0000000180038128     libucrt:lcidtoname_downlevel.obj
 0002:00006138       ??_C@_1M@GMDGLDOB@?$AAe?$AAn?$AA?9?$AAp?$AAh?$AA?$AA@ 0000000180038138     libucrt:lcidtoname_downlevel.obj
 0002:00006148       ??_C@_1M@ONGIBJNA@?$AAe?$AAn?$AA?9?$AAt?$AAt?$AA?$AA@ 0000000180038148     libucrt:lcidtoname_downlevel.obj
 0002:00006158       ??_C@_1M@LLODPCMM@?$AAe?$AAn?$AA?9?$AAu?$AAs?$AA?$AA@ 0000000180038158     libucrt:lcidtoname_downlevel.obj
 0002:00006168       ??_C@_1M@LAKFNPAN@?$AAe?$AAn?$AA?9?$AAz?$AAa?$AA?$AA@ 0000000180038168     libucrt:lcidtoname_downlevel.obj
 0002:00006178       ??_C@_1M@MFNHNHEO@?$AAe?$AAn?$AA?9?$AAz?$AAw?$AA?$AA@ 0000000180038178     libucrt:lcidtoname_downlevel.obj
 0002:00006188       ??_C@_1M@EJEINPHM@?$AAe?$AAs?$AA?9?$AAa?$AAr?$AA?$AA@ 0000000180038188     libucrt:lcidtoname_downlevel.obj
 0002:00006198       ??_C@_1M@GNKPCCJA@?$AAe?$AAs?$AA?9?$AAb?$AAo?$AA?$AA@ 0000000180038198     libucrt:lcidtoname_downlevel.obj
 0002:000061a8       ??_C@_1M@LEEGFONL@?$AAe?$AAs?$AA?9?$AAc?$AAl?$AA?$AA@ 00000001800381a8     libucrt:lcidtoname_downlevel.obj
 0002:000061b8       ??_C@_1M@KGPDPBDF@?$AAe?$AAs?$AA?9?$AAc?$AAo?$AA?$AA@ 00000001800381b8     libucrt:lcidtoname_downlevel.obj
 0002:000061c8       ??_C@_1M@EIAHOHH@?$AAe?$AAs?$AA?9?$AAc?$AAr?$AA?$AA@ 00000001800381c8     libucrt:lcidtoname_downlevel.obj
 0002:000061d8       ??_C@_1M@LLPGMBIN@?$AAe?$AAs?$AA?9?$AAd?$AAo?$AA?$AA@ 00000001800381d8     libucrt:lcidtoname_downlevel.obj
 0002:000061e8       ??_C@_1M@DKHMKNJA@?$AAe?$AAs?$AA?9?$AAe?$AAc?$AA?$AA@ 00000001800381e8     libucrt:lcidtoname_downlevel.obj
 0002:000061f8       ??_C@_1M@GKGFPKAP@?$AAe?$AAs?$AA?9?$AAe?$AAs?$AA?$AA@ 00000001800381f8     libucrt:lcidtoname_downlevel.obj
 0002:00006208       ??_C@_1M@LKHKGDLN@?$AAe?$AAs?$AA?9?$AAg?$AAt?$AA?$AA@ 0000000180038208     libucrt:lcidtoname_downlevel.obj
 0002:00006218       ??_C@_1M@HEIIGGJD@?$AAe?$AAs?$AA?9?$AAh?$AAn?$AA?$AA@ 0000000180038218     libucrt:lcidtoname_downlevel.obj
 0002:00006228       ??_C@_1M@FBDHPPGD@?$AAe?$AAs?$AA?9?$AAm?$AAx?$AA?$AA@ 0000000180038228     libucrt:lcidtoname_downlevel.obj
 0002:00006238       ??_C@_1M@DPAGLNDH@?$AAe?$AAs?$AA?9?$AAn?$AAi?$AA?$AA@ 0000000180038238     libucrt:lcidtoname_downlevel.obj
 0002:00006248       ??_C@_1M@MDGOPGDD@?$AAe?$AAs?$AA?9?$AAp?$AAa?$AA?$AA@ 0000000180038248     libucrt:lcidtoname_downlevel.obj
 0002:00006258       ??_C@_1M@EMAMGBGE@?$AAe?$AAs?$AA?9?$AAp?$AAe?$AA?$AA@ 0000000180038258     libucrt:lcidtoname_downlevel.obj
 0002:00006268       ??_C@_1M@IBMCAOEC@?$AAe?$AAs?$AA?9?$AAp?$AAr?$AA?$AA@ 0000000180038268     libucrt:lcidtoname_downlevel.obj
 0002:00006278       ??_C@_1M@FGMDIJED@?$AAe?$AAs?$AA?9?$AAp?$AAy?$AA?$AA@ 0000000180038278     libucrt:lcidtoname_downlevel.obj
 0002:00006288       ??_C@_1M@IIDEOLLL@?$AAe?$AAs?$AA?9?$AAs?$AAv?$AA?$AA@ 0000000180038288     libucrt:lcidtoname_downlevel.obj
 0002:00006298       ??_C@_1M@GAOBIPA@?$AAe?$AAs?$AA?9?$AAu?$AAy?$AA?$AA@ 0000000180038298     libucrt:lcidtoname_downlevel.obj
 0002:000062a8       ??_C@_1M@JKFFICHJ@?$AAe?$AAs?$AA?9?$AAv?$AAe?$AA?$AA@ 00000001800382a8     libucrt:lcidtoname_downlevel.obj
 0002:000062b8       ??_C@_1M@PNMLOJDF@?$AAe?$AAt?$AA?9?$AAe?$AAe?$AA?$AA@ 00000001800382b8     libucrt:lcidtoname_downlevel.obj
 0002:000062c8       ??_C@_1M@GHHLIKEI@?$AAe?$AAu?$AA?9?$AAe?$AAs?$AA?$AA@ 00000001800382c8     libucrt:lcidtoname_downlevel.obj
 0002:000062d8       ??_C@_1M@PBNONODE@?$AAf?$AAa?$AA?9?$AAi?$AAr?$AA?$AA@ 00000001800382d8     libucrt:lcidtoname_downlevel.obj
 0002:000062e8       ??_C@_1M@JEEHPMIL@?$AAf?$AAi?$AA?9?$AAf?$AAi?$AA?$AA@ 00000001800382e8     libucrt:lcidtoname_downlevel.obj
 0002:000062f8       ??_C@_1M@LMDCNDBA@?$AAf?$AAo?$AA?9?$AAf?$AAo?$AA?$AA@ 00000001800382f8     libucrt:lcidtoname_downlevel.obj
 0002:00006308       ??_C@_1M@JKEOHLDK@?$AAf?$AAr?$AA?9?$AAb?$AAe?$AA?$AA@ 0000000180038308     libucrt:lcidtoname_downlevel.obj
 0002:00006318       ??_C@_1M@NOHADPMI@?$AAf?$AAr?$AA?9?$AAc?$AAa?$AA?$AA@ 0000000180038318     libucrt:lcidtoname_downlevel.obj
 0002:00006328       ??_C@_1M@KDHIHAEC@?$AAf?$AAr?$AA?9?$AAc?$AAh?$AA?$AA@ 0000000180038328     libucrt:lcidtoname_downlevel.obj
 0002:00006338       ??_C@_1M@MMBBFGAK@?$AAf?$AAr?$AA?9?$AAf?$AAr?$AA?$AA@ 0000000180038338     libucrt:lcidtoname_downlevel.obj
 0002:00006348       ??_C@_1M@PAFNENNF@?$AAf?$AAr?$AA?9?$AAl?$AAu?$AA?$AA@ 0000000180038348     libucrt:lcidtoname_downlevel.obj
 0002:00006358       ??_C@_1M@EOHDJGDD@?$AAf?$AAr?$AA?9?$AAm?$AAc?$AA?$AA@ 0000000180038358     libucrt:lcidtoname_downlevel.obj
 0002:00006368       ??_C@_1M@FAPLLOPF@?$AAg?$AAl?$AA?9?$AAe?$AAs?$AA?$AA@ 0000000180038368     libucrt:lcidtoname_downlevel.obj
 0002:00006378       ??_C@_1M@FOPBFLOO@?$AAg?$AAu?$AA?9?$AAi?$AAn?$AA?$AA@ 0000000180038378     libucrt:lcidtoname_downlevel.obj
 0002:00006388       ??_C@_1M@KBMCINPM@?$AAh?$AAe?$AA?9?$AAi?$AAl?$AA?$AA@ 0000000180038388     libucrt:lcidtoname_downlevel.obj
 0002:00006398       ??_C@_1M@BBPHKFPJ@?$AAh?$AAi?$AA?9?$AAi?$AAn?$AA?$AA@ 0000000180038398     libucrt:lcidtoname_downlevel.obj
 0002:000063a8       ??_C@_1M@PMBNDPHD@?$AAh?$AAr?$AA?9?$AAb?$AAa?$AA?$AA@ 00000001800383a8     libucrt:lcidtoname_downlevel.obj
 0002:000063b8       ??_C@_1M@BPCKOEGE@?$AAh?$AAr?$AA?9?$AAh?$AAr?$AA?$AA@ 00000001800383b8     libucrt:lcidtoname_downlevel.obj
 0002:000063c8       ??_C@_1M@GACBMHKE@?$AAh?$AAu?$AA?9?$AAh?$AAu?$AA?$AA@ 00000001800383c8     libucrt:lcidtoname_downlevel.obj
 0002:000063d8       ??_C@_1M@MILPAJJC@?$AAh?$AAy?$AA?9?$AAa?$AAm?$AA?$AA@ 00000001800383d8     libucrt:lcidtoname_downlevel.obj
 0002:000063e8       ??_C@_1M@BABBICEC@?$AAi?$AAd?$AA?9?$AAi?$AAd?$AA?$AA@ 00000001800383e8     libucrt:lcidtoname_downlevel.obj
 0002:000063f8       ??_C@_1M@BIKNHHPF@?$AAi?$AAs?$AA?9?$AAi?$AAs?$AA?$AA@ 00000001800383f8     libucrt:lcidtoname_downlevel.obj
 0002:00006408       ??_C@_1M@NMPCJPHE@?$AAi?$AAt?$AA?9?$AAc?$AAh?$AA?$AA@ 0000000180038408     libucrt:lcidtoname_downlevel.obj
 0002:00006418       ??_C@_1M@GHKGFEDF@?$AAi?$AAt?$AA?9?$AAi?$AAt?$AA?$AA@ 0000000180038418     libucrt:lcidtoname_downlevel.obj
 0002:00006428       ??_C@_1M@NIEJCJJA@?$AAj?$AAa?$AA?9?$AAj?$AAp?$AA?$AA@ 0000000180038428     libucrt:lcidtoname_downlevel.obj
 0002:00006438       ??_C@_1M@JILFNBIM@?$AAk?$AAa?$AA?9?$AAg?$AAe?$AA?$AA@ 0000000180038438     libucrt:lcidtoname_downlevel.obj
 0002:00006448       ??_C@_1M@PACPMGPH@?$AAk?$AAk?$AA?9?$AAk?$AAz?$AA?$AA@ 0000000180038448     libucrt:lcidtoname_downlevel.obj
 0002:00006458       ??_C@_1M@IELFGMHA@?$AAk?$AAn?$AA?9?$AAi?$AAn?$AA?$AA@ 0000000180038458     libucrt:lcidtoname_downlevel.obj
 0002:00006468       ??_C@_1O@IBBJHCH@?$AAk?$AAo?$AAk?$AA?9?$AAi?$AAn?$AA?$AA@ 0000000180038468     libucrt:lcidtoname_downlevel.obj
 0002:00006478       ??_C@_1M@DMHAEOGC@?$AAk?$AAo?$AA?9?$AAk?$AAr?$AA?$AA@ 0000000180038478     libucrt:lcidtoname_downlevel.obj
 0002:00006488       ??_C@_1M@HBAHBIGA@?$AAk?$AAy?$AA?9?$AAk?$AAg?$AA?$AA@ 0000000180038488     libucrt:lcidtoname_downlevel.obj
 0002:00006498       ??_C@_1M@KPMILCJG@?$AAl?$AAt?$AA?9?$AAl?$AAt?$AA?$AA@ 0000000180038498     libucrt:lcidtoname_downlevel.obj
 0002:000064a8       ??_C@_1M@BDEKKCA@?$AAl?$AAv?$AA?9?$AAl?$AAv?$AA?$AA@ 00000001800384a8     libucrt:lcidtoname_downlevel.obj
 0002:000064b8       ??_C@_1M@ELCKCCJJ@?$AAm?$AAi?$AA?9?$AAn?$AAz?$AA?$AA@ 00000001800384b8     libucrt:lcidtoname_downlevel.obj
 0002:000064c8       ??_C@_1M@CBOOLAPA@?$AAm?$AAk?$AA?9?$AAm?$AAk?$AA?$AA@ 00000001800384c8     libucrt:lcidtoname_downlevel.obj
 0002:000064d8       ??_C@_1M@GPHNBJKN@?$AAm?$AAl?$AA?9?$AAi?$AAn?$AA?$AA@ 00000001800384d8     libucrt:lcidtoname_downlevel.obj
 0002:000064e8       ??_C@_1M@PABJILIG@?$AAm?$AAn?$AA?9?$AAm?$AAn?$AA?$AA@ 00000001800384e8     libucrt:lcidtoname_downlevel.obj
 0002:000064f8       ??_C@_1M@FGBKKIPG@?$AAm?$AAr?$AA?9?$AAi?$AAn?$AA?$AA@ 00000001800384f8     libucrt:lcidtoname_downlevel.obj
 0002:00006508       ??_C@_1M@NDBPDDAL@?$AAm?$AAs?$AA?9?$AAb?$AAn?$AA?$AA@ 0000000180038508     libucrt:lcidtoname_downlevel.obj
 0002:00006518       ??_C@_1M@OPIHOOPI@?$AAm?$AAs?$AA?9?$AAm?$AAy?$AA?$AA@ 0000000180038518     libucrt:lcidtoname_downlevel.obj
 0002:00006528       ??_C@_1M@PPDBCNFM@?$AAm?$AAt?$AA?9?$AAm?$AAt?$AA?$AA@ 0000000180038528     libucrt:lcidtoname_downlevel.obj
 0002:00006538       ??_C@_1M@KDJDKMDD@?$AAn?$AAb?$AA?9?$AAn?$AAo?$AA?$AA@ 0000000180038538     libucrt:lcidtoname_downlevel.obj
 0002:00006548       ??_C@_1M@KFCFLMJP@?$AAn?$AAl?$AA?9?$AAb?$AAe?$AA?$AA@ 0000000180038548     libucrt:lcidtoname_downlevel.obj
 0002:00006558       ??_C@_1M@KPOPDDGO@?$AAn?$AAl?$AA?9?$AAn?$AAl?$AA?$AA@ 0000000180038558     libucrt:lcidtoname_downlevel.obj
 0002:00006568       ??_C@_1M@LJKPEMLN@?$AAn?$AAn?$AA?9?$AAn?$AAo?$AA?$AA@ 0000000180038568     libucrt:lcidtoname_downlevel.obj
 0002:00006578       ??_C@_1M@BDGHHBFL@?$AAn?$AAs?$AA?9?$AAz?$AAa?$AA?$AA@ 0000000180038578     libucrt:lcidtoname_downlevel.obj
 0002:00006588       ??_C@_1M@IDEHOAP@?$AAp?$AAa?$AA?9?$AAi?$AAn?$AA?$AA@ 0000000180038588     libucrt:lcidtoname_downlevel.obj
 0002:00006598       ??_C@_1M@HDBKGOGH@?$AAp?$AAl?$AA?9?$AAp?$AAl?$AA?$AA@ 0000000180038598     libucrt:lcidtoname_downlevel.obj
 0002:000065a8       ??_C@_1M@LJLLCMEH@?$AAp?$AAt?$AA?9?$AAb?$AAr?$AA?$AA@ 00000001800385a8     libucrt:lcidtoname_downlevel.obj
 0002:000065b8       ??_C@_1M@NCMONAAL@?$AAp?$AAt?$AA?9?$AAp?$AAt?$AA?$AA@ 00000001800385b8     libucrt:lcidtoname_downlevel.obj
 0002:000065c8       ??_C@_1O@EAKMAJDN@?$AAq?$AAu?$AAz?$AA?9?$AAb?$AAo?$AA?$AA@ 00000001800385c8     libucrt:lcidtoname_downlevel.obj
 0002:000065d8       ??_C@_1O@BHHPIGDN@?$AAq?$AAu?$AAz?$AA?9?$AAe?$AAc?$AA?$AA@ 00000001800385d8     libucrt:lcidtoname_downlevel.obj
 0002:000065e8       ??_C@_1O@GBAPEKMJ@?$AAq?$AAu?$AAz?$AA?9?$AAp?$AAe?$AA?$AA@ 00000001800385e8     libucrt:lcidtoname_downlevel.obj
 0002:000065f8       ??_C@_1M@CLGLEFBO@?$AAr?$AAo?$AA?9?$AAr?$AAo?$AA?$AA@ 00000001800385f8     libucrt:lcidtoname_downlevel.obj
 0002:00006608       ??_C@_1M@CEEDODME@?$AAr?$AAu?$AA?9?$AAr?$AAu?$AA?$AA@ 0000000180038608     libucrt:lcidtoname_downlevel.obj
 0002:00006618       ??_C@_1M@HPKKKMPP@?$AAs?$AAa?$AA?9?$AAi?$AAn?$AA?$AA@ 0000000180038618     libucrt:lcidtoname_downlevel.obj
 0002:00006628       ??_C@_1M@BKMAIGOJ@?$AAs?$AAe?$AA?9?$AAf?$AAi?$AA?$AA@ 0000000180038628     libucrt:lcidtoname_downlevel.obj
 0002:00006638       ??_C@_1M@NDPIFLFI@?$AAs?$AAe?$AA?9?$AAn?$AAo?$AA?$AA@ 0000000180038638     libucrt:lcidtoname_downlevel.obj
 0002:00006648       ??_C@_1M@DANKKHJ@?$AAs?$AAe?$AA?9?$AAs?$AAe?$AA?$AA@ 0000000180038648     libucrt:lcidtoname_downlevel.obj
 0002:00006658       ??_C@_1M@PNBLONPJ@?$AAs?$AAk?$AA?9?$AAs?$AAk?$AA?$AA@ 0000000180038658     libucrt:lcidtoname_downlevel.obj
 0002:00006668       ??_C@_1M@LFMODOAL@?$AAs?$AAl?$AA?9?$AAs?$AAi?$AA?$AA@ 0000000180038668     libucrt:lcidtoname_downlevel.obj
 0002:00006678       ??_C@_1O@DFKOMPG@?$AAs?$AAm?$AAa?$AA?9?$AAn?$AAo?$AA?$AA@ 0000000180038678     libucrt:lcidtoname_downlevel.obj
 0002:00006688       ??_C@_1O@NDKPBNNH@?$AAs?$AAm?$AAa?$AA?9?$AAs?$AAe?$AA?$AA@ 0000000180038688     libucrt:lcidtoname_downlevel.obj
 0002:00006698       ??_C@_1O@PLLKBHAB@?$AAs?$AAm?$AAj?$AA?9?$AAn?$AAo?$AA?$AA@ 0000000180038698     libucrt:lcidtoname_downlevel.obj
 0002:000066a8       ??_C@_1O@CLEPOGCA@?$AAs?$AAm?$AAj?$AA?9?$AAs?$AAe?$AA?$AA@ 00000001800386a8     libucrt:lcidtoname_downlevel.obj
 0002:000066b8       ??_C@_1O@DLGJGKMK@?$AAs?$AAm?$AAn?$AA?9?$AAf?$AAi?$AA?$AA@ 00000001800386b8     libucrt:lcidtoname_downlevel.obj
 0002:000066c8       ??_C@_1O@OJDJGAJC@?$AAs?$AAm?$AAs?$AA?9?$AAf?$AAi?$AA?$AA@ 00000001800386c8     libucrt:lcidtoname_downlevel.obj
 0002:000066d8       ??_C@_1M@BOFOGHPB@?$AAs?$AAq?$AA?9?$AAa?$AAl?$AA?$AA@ 00000001800386d8     libucrt:lcidtoname_downlevel.obj
 0002:000066e8       ??_C@_1BG@LJBBIPGB@?$AAs?$AAr?$AA?9?$AAb?$AAa?$AA?9?$AAc?$AAy?$AAr?$AAl?$AA?$AA@ 00000001800386e8     libucrt:lcidtoname_downlevel.obj
 0002:00006700       ??_C@_1BG@JLBENFOE@?$AAs?$AAr?$AA?9?$AAb?$AAa?$AA?9?$AAl?$AAa?$AAt?$AAn?$AA?$AA@ 0000000180038700     libucrt:lcidtoname_downlevel.obj
 0002:00006718       ??_C@_1BG@KODPNHE@?$AAs?$AAr?$AA?9?$AAs?$AAp?$AA?9?$AAc?$AAy?$AAr?$AAl?$AA?$AA@ 0000000180038718     libucrt:lcidtoname_downlevel.obj
 0002:00006730       ??_C@_1BG@CIOGKHPB@?$AAs?$AAr?$AA?9?$AAs?$AAp?$AA?9?$AAl?$AAa?$AAt?$AAn?$AA?$AA@ 0000000180038730     libucrt:lcidtoname_downlevel.obj
 0002:00006748       ??_C@_1M@NGFJLMAC@?$AAs?$AAv?$AA?9?$AAf?$AAi?$AA?$AA@ 0000000180038748     libucrt:lcidtoname_downlevel.obj
 0002:00006758       ??_C@_1M@MPJEJAJC@?$AAs?$AAv?$AA?9?$AAs?$AAe?$AA?$AA@ 0000000180038758     libucrt:lcidtoname_downlevel.obj
 0002:00006768       ??_C@_1M@MPNDHLFK@?$AAs?$AAw?$AA?9?$AAk?$AAe?$AA?$AA@ 0000000180038768     libucrt:lcidtoname_downlevel.obj
 0002:00006778       ??_C@_1O@KOHBJJI@?$AAs?$AAy?$AAr?$AA?9?$AAs?$AAy?$AA?$AA@ 0000000180038778     libucrt:lcidtoname_downlevel.obj
 0002:00006788       ??_C@_1M@LDCEFHA@?$AAt?$AAa?$AA?9?$AAi?$AAn?$AA?$AA@ 0000000180038788     libucrt:lcidtoname_downlevel.obj
 0002:00006798       ??_C@_1M@CNJOFAK@?$AAt?$AAe?$AA?9?$AAi?$AAn?$AA?$AA@ 0000000180038798     libucrt:lcidtoname_downlevel.obj
 0002:000067a8       ??_C@_1M@GNAECACD@?$AAt?$AAh?$AA?9?$AAt?$AAh?$AA?$AA@ 00000001800387a8     libucrt:lcidtoname_downlevel.obj
 0002:000067b8       ??_C@_1M@CHBIHOJO@?$AAt?$AAn?$AA?9?$AAz?$AAa?$AA?$AA@ 00000001800387b8     libucrt:lcidtoname_downlevel.obj
 0002:000067c8       ??_C@_1M@GCCMIGPJ@?$AAt?$AAr?$AA?9?$AAt?$AAr?$AA?$AA@ 00000001800387c8     libucrt:lcidtoname_downlevel.obj
 0002:000067d8       ??_C@_1M@CELMCNBK@?$AAt?$AAt?$AA?9?$AAr?$AAu?$AA?$AA@ 00000001800387d8     libucrt:lcidtoname_downlevel.obj
 0002:000067e8       ??_C@_1M@KLMCELGA@?$AAu?$AAk?$AA?9?$AAu?$AAa?$AA?$AA@ 00000001800387e8     libucrt:lcidtoname_downlevel.obj
 0002:000067f8       ??_C@_1M@EPAJJAJF@?$AAu?$AAr?$AA?9?$AAp?$AAk?$AA?$AA@ 00000001800387f8     libucrt:lcidtoname_downlevel.obj
 0002:00006808       ??_C@_1BG@GEGPMCDJ@?$AAu?$AAz?$AA?9?$AAu?$AAz?$AA?9?$AAc?$AAy?$AAr?$AAl?$AA?$AA@ 0000000180038808     libucrt:lcidtoname_downlevel.obj
 0002:00006820       ??_C@_1BG@EGGKJILM@?$AAu?$AAz?$AA?9?$AAu?$AAz?$AA?9?$AAl?$AAa?$AAt?$AAn?$AA?$AA@ 0000000180038820     libucrt:lcidtoname_downlevel.obj
 0002:00006838       ??_C@_1M@GFOCLFF@?$AAv?$AAi?$AA?9?$AAv?$AAn?$AA?$AA@ 0000000180038838     libucrt:lcidtoname_downlevel.obj
 0002:00006848       ??_C@_1M@CPAMEDFI@?$AAx?$AAh?$AA?9?$AAz?$AAa?$AA?$AA@ 0000000180038848     libucrt:lcidtoname_downlevel.obj
 0002:00006858       ??_C@_1O@EBKIFIGN@?$AAz?$AAh?$AA?9?$AAc?$AAh?$AAs?$AA?$AA@ 0000000180038858     libucrt:lcidtoname_downlevel.obj
 0002:00006868       ??_C@_1O@NMHPGANE@?$AAz?$AAh?$AA?9?$AAc?$AAh?$AAt?$AA?$AA@ 0000000180038868     libucrt:lcidtoname_downlevel.obj
 0002:00006878       ??_C@_1M@LPINJOMC@?$AAz?$AAh?$AA?9?$AAc?$AAn?$AA?$AA@ 0000000180038878     libucrt:lcidtoname_downlevel.obj
 0002:00006888       ??_C@_1M@OCJEJODD@?$AAz?$AAh?$AA?9?$AAh?$AAk?$AA?$AA@ 0000000180038888     libucrt:lcidtoname_downlevel.obj
 0002:00006898       ??_C@_1M@DNDLJINH@?$AAz?$AAh?$AA?9?$AAm?$AAo?$AA?$AA@ 0000000180038898     libucrt:lcidtoname_downlevel.obj
 0002:000068a8       ??_C@_1M@MBFDNDND@?$AAz?$AAh?$AA?9?$AAs?$AAg?$AA?$AA@ 00000001800388a8     libucrt:lcidtoname_downlevel.obj
 0002:000068b8       ??_C@_1M@IMEPLEPE@?$AAz?$AAh?$AA?9?$AAt?$AAw?$AA?$AA@ 00000001800388b8     libucrt:lcidtoname_downlevel.obj
 0002:000068c8       ??_C@_1M@BBGHNHJP@?$AAz?$AAu?$AA?9?$AAz?$AAa?$AA?$AA@ 00000001800388c8     libucrt:lcidtoname_downlevel.obj
 0002:000068d8       __real@3ff0000000000000    00000001800388d8     libucrt:ceil.obj
 0002:00006b30       __log10_256_lead           0000000180038b30     libucrt:log10_256_lead_tail_table.obj
 0002:00007340       __log10_256_tail           0000000180039340     libucrt:log10_256_lead_tail_table.obj
 0002:00007b50       __log_F_inv_qword          0000000180039b50     libucrt:log_f_inv_qword_table.obj
 0002:00008360       ??_C@_05HGHHAHAP@log10?$AA@ 000000018003a360     libucrt:log_special.obj
 0002:00008368       ??_C@_1BA@BALFACEM@?$AAC?$AAO?$AAN?$AAO?$AAU?$AAT?$AA$?$AA?$AA@ 000000018003a368     libucrt:initcon.obj
 0002:00008390       ??_C@_1BK@DBDEIDLH@?$AAK?$AAE?$AAR?$AAN?$AAE?$AAL?$AA3?$AA2?$AA?4?$AAD?$AAL?$AAL?$AA?$AA@ 000000018003a390     DelayImp:delayhlp.obj
 0002:000083b0       ??_C@_0BI@OMNLIJDB@AcquireSRWLockExclusive?$AA@ 000000018003a3b0     DelayImp:delayhlp.obj
 0002:000083c8       ??_C@_0BI@HMIEPCNJ@ReleaseSRWLockExclusive?$AA@ 000000018003a3c8     DelayImp:delayhlp.obj
 0002:000083e0       __pfnDliFailureHook2       000000018003a3e0     DelayImp:delayhk1.obj
 0002:000083f0       _load_config_used          000000018003a3f0     LIBCMT:loadcfg.obj
 0002:00008488       ??_C@_0BC@BDKFLDHL@unknown?5exception?$AA@ 000000018003a488     libRVO_wrap.obj
 0002:000084a0       ??_C@_0CI@KFHGKIDH@Illegal?5number?5of?5arguments?5for?5@ 000000018003a4a0     libRVO_wrap.obj
 0002:000084c8       ??_C@_0DF@PBELPCGI@Could?5not?5get?5pointer?5from?5?8this@ 000000018003a4c8     libRVO_wrap.obj
 0002:00008500       ??_C@_0DA@HDOMIJPN@in?5method?5?8equals?8?0?5argument?51?5o@ 000000018003a500     libRVO_wrap.obj
 0002:00008530       ??_C@_0DB@BLIBGPAM@in?5method?5?8getCPtr?8?0?5argument?51?5@ 000000018003a530     libRVO_wrap.obj
 0002:00008564       ??_C@_06IMBEHKAP@equals?$AA@ 000000018003a564     libRVO_wrap.obj
 0002:00008570       ??_C@_07JDGBFDGC@getCPtr?$AA@ 000000018003a570     libRVO_wrap.obj
 0002:00008578       ??_C@_0CH@JDDMJNBJ@Tried?5to?5write?5read?9only?5variabl@ 000000018003a578     libRVO_wrap.obj
 0002:000085a0       ??_C@_0CD@ENMNAIM@Tried?5to?5write?5read?9only?5variabl@ 000000018003a5a0     libRVO_wrap.obj
 0002:000085c8       ??_C@_0BK@LLBPKEAB@vector?5index?5out?5of?5range?$AA@ 000000018003a5c8     libRVO_wrap.obj
 0002:000085e8       ??_C@_0DL@JANEACIE@Illegal?5number?5of?5arguments?5for?5@ 000000018003a5e8     libRVO_wrap.obj
 0002:00008628       ??_C@_0DL@JBBGGILD@Illegal?5number?5of?5arguments?5for?5@ 000000018003a628     libRVO_wrap.obj
 0002:00008668       ??_C@_0DE@DILLBHJO@in?5method?5?8new_Vector2?8?0?5argumen@ 000000018003a668     libRVO_wrap.obj
 0002:000086a0       ??_C@_0DE@NCDNMKPM@in?5method?5?8new_Vector2?8?0?5argumen@ 000000018003a6a0     libRVO_wrap.obj
 0002:000086d8       ??_C@_0DH@HNMJPEPI@Illegal?5arguments?5for?5constructi@ 000000018003a6d8     libRVO_wrap.obj
 0002:00008710       ??_C@_0DB@BJPMKFIP@Illegal?5number?5of?5arguments?5for?5@ 000000018003a710     libRVO_wrap.obj
 0002:00008750       ??_C@_0EB@MCPIICNF@in?5method?5?8Vector2_x?8?0?5argument?5@ 000000018003a750     libRVO_wrap.obj
 0002:00008798       ??_C@_0DB@BIDOMPLI@Illegal?5number?5of?5arguments?5for?5@ 000000018003a798     libRVO_wrap.obj
 0002:000087d0       ??_C@_0EB@LNDBBJEG@in?5method?5?8Vector2_y?8?0?5argument?5@ 000000018003a7d0     libRVO_wrap.obj
 0002:00008820       ??_C@_0ED@PBGCEBJL@in?5method?5?8Vector2_sub?8?0?5argumen@ 000000018003a820     libRVO_wrap.obj
 0002:00008870       ??_C@_0ED@LEKOAFIB@in?5method?5?8Vector2_mul?8?0?5argumen@ 000000018003a870     libRVO_wrap.obj
 0002:000088c0       ??_C@_0ED@OGKDENPA@in?5method?5?8Vector2_mul?8?0?5argumen@ 000000018003a8c0     libRVO_wrap.obj
 0002:00008910       ??_C@_0FK@IMDHIMPA@invalid?5null?5reference?5in?5method@ 000000018003a910     libRVO_wrap.obj
 0002:00008970       ??_C@_0DE@BHMHCEBO@in?5method?5?8Vector2_mul?8?0?5argumen@ 000000018003a970     libRVO_wrap.obj
 0002:000089a8       ??_C@_0CE@KBFJDDCM@Illegal?5arguments?5for?5function?5m@ 000000018003a9a8     libRVO_wrap.obj
 0002:000089d0       ??_C@_0DD@OCAPMNNG@Illegal?5number?5of?5arguments?5for?5@ 000000018003a9d0     libRVO_wrap.obj
 0002:00008a10       ??_C@_0ED@DLBLBLJO@in?5method?5?8Vector2_div?8?0?5argumen@ 000000018003aa10     libRVO_wrap.obj
 0002:00008a58       ??_C@_0DE@EGJJGPJJ@in?5method?5?8Vector2_div?8?0?5argumen@ 000000018003aa58     libRVO_wrap.obj
 0002:00008a90       ??_C@_0DD@MHCHONGF@Illegal?5number?5of?5arguments?5for?5@ 000000018003aa90     libRVO_wrap.obj
 0002:00008ad0       ??_C@_0ED@HEGFKEDK@in?5method?5?8Vector2_add?8?0?5argumen@ 000000018003aad0     libRVO_wrap.obj
 0002:00008b20       ??_C@_0ED@CGGIOMEL@in?5method?5?8Vector2_add?8?0?5argumen@ 000000018003ab20     libRVO_wrap.obj
 0002:00008b70       ??_C@_0FK@EMPMCNEL@invalid?5null?5reference?5in?5method@ 000000018003ab70     libRVO_wrap.obj
 0002:00008bd0       ??_C@_0ED@KDGPAJOK@in?5method?5?8Vector2_sub?8?0?5argumen@ 000000018003abd0     libRVO_wrap.obj
 0002:00008c20       ??_C@_0FK@MJPLMIOK@invalid?5null?5reference?5in?5method@ 000000018003ac20     libRVO_wrap.obj
 0002:00008c80       ??_C@_0CE@HEBHDHMF@Illegal?5arguments?5for?5function?5s@ 000000018003ac80     libRVO_wrap.obj
 0002:00008ca8       ??_C@_0DG@IPADAFGN@Illegal?5number?5of?5arguments?5for?5@ 000000018003aca8     libRVO_wrap.obj
 0002:00008ce0       ??_C@_0EG@DEMGMHEE@in?5method?5?8Vector2_equals?8?0?5argu@ 000000018003ace0     libRVO_wrap.obj
 0002:00008d30       ??_C@_0EG@GGMLIPDF@in?5method?5?8Vector2_equals?8?0?5argu@ 000000018003ad30     libRVO_wrap.obj
 0002:00008d80       ??_C@_0FN@EDEIDOAN@invalid?5null?5reference?5in?5method@ 000000018003ad80     libRVO_wrap.obj
 0002:00008de0       ??_C@_0DI@HCDGIGIF@Illegal?5number?5of?5arguments?5for?5@ 000000018003ade0     libRVO_wrap.obj
 0002:00008e20       ??_C@_0EI@BNHFDKJF@in?5method?5?8Vector2_notEqual?8?0?5ar@ 000000018003ae20     libRVO_wrap.obj
 0002:00008e70       ??_C@_0EI@EPHIHCOE@in?5method?5?8Vector2_notEqual?8?0?5ar@ 000000018003ae70     libRVO_wrap.obj
 0002:00008ec0       ??_C@_0FP@OEIBGIIG@invalid?5null?5reference?5in?5method@ 000000018003aec0     libRVO_wrap.obj
 0002:00008f20       ??_C@_0DI@MOEHMHNB@Illegal?5number?5of?5arguments?5for?5@ 000000018003af20     libRVO_wrap.obj
 0002:00008f60       ??_C@_0EC@PNAGJHGJ@in?5method?5?8Vector2_multiply?8?0?5ar@ 000000018003af60     libRVO_wrap.obj
 0002:00008fa8       ??_C@_0DJ@DMGDDNM@in?5method?5?8Vector2_multiply?8?0?5ar@ 000000018003afa8     libRVO_wrap.obj
 0002:00008fe8       ??_C@_0DG@HMGDBJBI@Illegal?5number?5of?5arguments?5for?5@ 000000018003afe8     libRVO_wrap.obj
 0002:00009020       ??_C@_0EA@EPGPBPAD@in?5method?5?8Vector2_divide?8?0?5argu@ 000000018003b020     libRVO_wrap.obj
 0002:00009060       ??_C@_0DH@JOEECNIN@in?5method?5?8Vector2_divide?8?0?5argu@ 000000018003b060     libRVO_wrap.obj
 0002:00009098       ??_C@_0DG@HHHDOBCG@Illegal?5number?5of?5arguments?5for?5@ 000000018003b098     libRVO_wrap.obj
 0002:000090d0       ??_C@_0EA@IAGKIOAH@in?5method?5?8Vector2_adding?8?0?5argu@ 000000018003b0d0     libRVO_wrap.obj
 0002:00009110       ??_C@_0EG@GJHJMGGM@in?5method?5?8Vector2_adding?8?0?5argu@ 000000018003b110     libRVO_wrap.obj
 0002:00009160       ??_C@_0FN@EMPKHHFE@invalid?5null?5reference?5in?5method@ 000000018003b160     libRVO_wrap.obj
 0002:000091c0       ??_C@_0DI@IGIAKLNH@Illegal?5number?5of?5arguments?5for?5@ 000000018003b1c0     libRVO_wrap.obj
 0002:00009200       ??_C@_0EC@LHALPMCL@in?5method?5?8Vector2_subtract?8?0?5ar@ 000000018003b200     libRVO_wrap.obj
 0002:00009250       ??_C@_0EI@DILLNDPN@in?5method?5?8Vector2_subtract?8?0?5ar@ 000000018003b250     libRVO_wrap.obj
 0002:000092a0       ??_C@_0FP@JDECMJJP@invalid?5null?5reference?5in?5method@ 000000018003b2a0     libRVO_wrap.obj
 0002:00009300       ??_C@_0CL@JLAKADIM@Illegal?5number?5of?5arguments?5for?5@ 000000018003b300     libRVO_wrap.obj
 0002:00009330       ??_C@_0DL@GNJMAPMN@in?5method?5?8abs?8?0?5argument?51?5of?5t@ 000000018003b330     libRVO_wrap.obj
 0002:00009370       ??_C@_0FC@OIMBOCCP@invalid?5null?5reference?5in?5method@ 000000018003b370     libRVO_wrap.obj
 0002:000093c8       ??_C@_0CN@MJFOGOPN@Illegal?5number?5of?5arguments?5for?5@ 000000018003b3c8     libRVO_wrap.obj
 0002:000093f8       ??_C@_0DN@KDJNKLCP@in?5method?5?8absSq?8?0?5argument?51?5of@ 000000018003b3f8     libRVO_wrap.obj
 0002:00009440       ??_C@_0FE@BBGOCBNJ@invalid?5null?5reference?5in?5method@ 000000018003b440     libRVO_wrap.obj
 0002:00009498       ??_C@_0CL@MLHCKCMA@Illegal?5number?5of?5arguments?5for?5@ 000000018003b498     libRVO_wrap.obj
 0002:000094c8       ??_C@_0DL@MHPJKCKD@in?5method?5?8det?8?0?5argument?51?5of?5t@ 000000018003b4c8     libRVO_wrap.obj
 0002:00009510       ??_C@_0FC@ECKEEPEB@invalid?5null?5reference?5in?5method@ 000000018003b510     libRVO_wrap.obj
 0002:00009568       ??_C@_0DL@JMOOBDLG@in?5method?5?8det?8?0?5argument?52?5of?5t@ 000000018003b568     libRVO_wrap.obj
 0002:000095b0       ??_C@_0FC@BJLDPOFE@invalid?5null?5reference?5in?5method@ 000000018003b5b0     libRVO_wrap.obj
 0002:00009608       ??_C@_0DB@OBAKGKGO@Illegal?5number?5of?5arguments?5for?5@ 000000018003b608     libRVO_wrap.obj
 0002:00009640       ??_C@_0EB@HAJAJMEB@in?5method?5?8normalize?8?0?5argument?5@ 000000018003b640     libRVO_wrap.obj
 0002:00009690       ??_C@_0FI@CFMBCLLC@invalid?5null?5reference?5in?5method@ 000000018003b690     libRVO_wrap.obj
 0002:000096e8       ??_C@_0DO@LCKCCJOG@Illegal?5number?5of?5arguments?5for?5@ 000000018003b6e8     libRVO_wrap.obj
 0002:00009730       ??_C@_0EO@GDHGHMKJ@in?5method?5?8distSqPointLineSegmen@ 000000018003b730     libRVO_wrap.obj
 0002:00009780       ??_C@_0GF@CCFJLGHH@invalid?5null?5reference?5in?5method@ 000000018003b780     libRVO_wrap.obj
 0002:000097f0       ??_C@_0EO@DIGBMNLM@in?5method?5?8distSqPointLineSegmen@ 000000018003b7f0     libRVO_wrap.obj
 0002:00009840       ??_C@_0GF@HJEOAHGC@invalid?5null?5reference?5in?5method@ 000000018003b840     libRVO_wrap.obj
 0002:000098b0       ??_C@_0EO@OJDFNEP@in?5method?5?8distSqPointLineSegmen@ 000000018003b8b0     libRVO_wrap.obj
 0002:00009900       ??_C@_0GF@EPLMJHJB@invalid?5null?5reference?5in?5method@ 000000018003b900     libRVO_wrap.obj
 0002:00009968       ??_C@_0CO@NIOHMBGK@Illegal?5number?5of?5arguments?5for?5@ 000000018003b968     libRVO_wrap.obj
 0002:00009998       ??_C@_0DO@GGDOHHHD@in?5method?5?8leftOf?8?0?5argument?51?5o@ 000000018003b998     libRVO_wrap.obj
 0002:000099e0       ??_C@_0FF@DCFCNDNA@invalid?5null?5reference?5in?5method@ 000000018003b9e0     libRVO_wrap.obj
 0002:00009a38       ??_C@_0DO@DNCJMGGG@in?5method?5?8leftOf?8?0?5argument?52?5o@ 000000018003ba38     libRVO_wrap.obj
 0002:00009a80       ??_C@_0FF@GJEFGCMF@invalid?5null?5reference?5in?5method@ 000000018003ba80     libRVO_wrap.obj
 0002:00009ad8       ??_C@_0DO@LNLFGJF@in?5method?5?8leftOf?8?0?5argument?53?5o@ 000000018003bad8     libRVO_wrap.obj
 0002:00009b20       ??_C@_0FF@FPLHPCDG@invalid?5null?5reference?5in?5method@ 000000018003bb20     libRVO_wrap.obj
 0002:00009b78       ??_C@_0CL@MCEEFFCI@Illegal?5number?5of?5arguments?5for?5@ 000000018003bb78     libRVO_wrap.obj
 0002:00009ba8       ??_C@_0CM@OLEMNMGI@in?5method?5?8sqr?8?0?5argument?51?5of?5t@ 000000018003bba8     libRVO_wrap.obj
 0002:00009bd8       ??_C@_0CE@HCOMHJ@Class?5Agent?5can?5not?5be?5instantia@ 000000018003bbd8     libRVO_wrap.obj
 0002:00009c00       ??_C@_0DG@BNMCIFKK@Illegal?5number?5of?5arguments?5for?5@ 000000018003bc00     libRVO_wrap.obj
 0002:00009c40       ??_C@_0FC@JNNONEFM@in?5method?5?8linearProgram1?8?0?5argu@ 000000018003bc40     libRVO_wrap.obj
 0002:00009ca0       ??_C@_0GJ@NEKKEAAL@invalid?5null?5reference?5in?5method@ 000000018003bca0     libRVO_wrap.obj
 0002:00009d10       ??_C@_0DI@MBLOOFOC@in?5method?5?8linearProgram1?8?0?5argu@ 000000018003bd10     libRVO_wrap.obj
 0002:00009d48       ??_C@_0DH@HCGHEAFN@in?5method?5?8linearProgram1?8?0?5argu@ 000000018003bd48     libRVO_wrap.obj
 0002:00009d80       ??_C@_0EG@ILGMNLOF@in?5method?5?8linearProgram1?8?0?5argu@ 000000018003bd80     libRVO_wrap.obj
 0002:00009dd0       ??_C@_0FN@KOOPGKNN@invalid?5null?5reference?5in?5method@ 000000018003bdd0     libRVO_wrap.obj
 0002:00009e30       ??_C@_0DG@CHGGHPKH@in?5method?5?8linearProgram1?8?0?5argu@ 000000018003be30     libRVO_wrap.obj
 0002:00009e70       ??_C@_0EA@DKBGLHAL@in?5method?5?8linearProgram1?8?0?5argu@ 000000018003be70     libRVO_wrap.obj
 0002:00009eb0       ??_C@_0FH@GOIHGLLM@invalid?5null?5reference?5in?5method@ 000000018003beb0     libRVO_wrap.obj
 0002:00009f08       ??_C@_0DG@BPIEDLPD@Illegal?5number?5of?5arguments?5for?5@ 000000018003bf08     libRVO_wrap.obj
 0002:00009f40       ??_C@_0FC@ECJHMEOJ@in?5method?5?8linearProgram2?8?0?5argu@ 000000018003bf40     libRVO_wrap.obj
 0002:00009fa0       ??_C@_0GJ@LODFALO@invalid?5null?5reference?5in?5method@ 000000018003bfa0     libRVO_wrap.obj
 0002:0000a010       ??_C@_0DH@IOBNMPMP@in?5method?5?8linearProgram2?8?0?5argu@ 000000018003c010     libRVO_wrap.obj
 0002:0000a050       ??_C@_0EG@ILOLIFIJ@in?5method?5?8linearProgram2?8?0?5argu@ 000000018003c050     libRVO_wrap.obj
 0002:0000a0a0       ??_C@_0FN@KOGIDELB@invalid?5null?5reference?5in?5method@ 000000018003c0a0     libRVO_wrap.obj
 0002:0000a100       ??_C@_0DG@OEGBJBPM@in?5method?5?8linearProgram2?8?0?5argu@ 000000018003c100     libRVO_wrap.obj
 0002:0000a140       ??_C@_0EA@KDDOCKEA@in?5method?5?8linearProgram2?8?0?5argu@ 000000018003c140     libRVO_wrap.obj
 0002:0000a180       ??_C@_0FH@PHKPPGPH@invalid?5null?5reference?5in?5method@ 000000018003c180     libRVO_wrap.obj
 0002:0000a1d8       ??_C@_0DG@BOEGFBME@Illegal?5number?5of?5arguments?5for?5@ 000000018003c1d8     libRVO_wrap.obj
 0002:0000a210       ??_C@_0FC@IFAMLHK@in?5method?5?8linearProgram3?8?0?5argu@ 000000018003c210     libRVO_wrap.obj
 0002:0000a270       ??_C@_0GJ@EBCEFPCN@invalid?5null?5reference?5in?5method@ 000000018003c270     libRVO_wrap.obj
 0002:0000a2e0       ??_C@_0DI@PJHLOIPH@in?5method?5?8linearProgram3?8?0?5argu@ 000000018003c2e0     libRVO_wrap.obj
 0002:0000a318       ??_C@_0DI@COJJGIKP@in?5method?5?8linearProgram3?8?0?5argu@ 000000018003c318     libRVO_wrap.obj
 0002:0000a350       ??_C@_0DH@IOIGJLJL@in?5method?5?8linearProgram3?8?0?5argu@ 000000018003c350     libRVO_wrap.obj
 0002:0000a390       ??_C@_0EA@MHKLIAH@in?5method?5?8linearProgram3?8?0?5argu@ 000000018003c390     libRVO_wrap.obj
 0002:0000a3d0       ??_C@_0FH@FIOLGELA@invalid?5null?5reference?5in?5method@ 000000018003c3d0     libRVO_wrap.obj
 0002:0000a428       ??_C@_0CH@ILGPPGNA@Class?5Obstacle?5can?5not?5be?5instan@ 000000018003c428     libRVO_wrap.obj
 0002:0000a450       ??_C@_0CF@KEFACLIC@Class?5KdTree?5can?5not?5be?5instanti@ 000000018003c450     libRVO_wrap.obj
 0002:0000a478       ??_C@_0DN@MHAKCHFG@in?5method?5?8Line_point_set?8?0?5argu@ 000000018003c478     libRVO_wrap.obj
 0002:0000a4c0       ??_C@_0EA@EDDNMHML@in?5method?5?8Line_point_set?8?0?5argu@ 000000018003c4c0     libRVO_wrap.obj
 0002:0000a500       ??_C@_0DN@BFOJKAKF@in?5method?5?8Line_point_get?8?0?5argu@ 000000018003c500     libRVO_wrap.obj
 0002:0000a540       ??_C@_0EB@KMHFAABE@in?5method?5?8Line_direction_set?8?0?5@ 000000018003c540     libRVO_wrap.obj
 0002:0000a590       ??_C@_0EE@CKFMEAMG@in?5method?5?8Line_direction_set?8?0?5@ 000000018003c590     libRVO_wrap.obj
 0002:0000a5e0       ??_C@_0EB@HOJGIHOH@in?5method?5?8Line_direction_get?8?0?5@ 000000018003c5e0     libRVO_wrap.obj
 0002:0000a628       ??_C@_0DA@NAOEJIKH@Illegal?5number?5of?5arguments?5for?5@ 000000018003c628     libRVO_wrap.obj
 0002:0000a660       ??_C@_0EA@EAPKKDHP@Illegal?5number?5of?5arguments?5for?5@ 000000018003c660     libRVO_wrap.obj
 0002:0000a6a0       ??_C@_0EA@EBDIMJEI@Illegal?5number?5of?5arguments?5for?5@ 000000018003c6a0     libRVO_wrap.obj
 0002:0000a6e0       ??_C@_0DJ@NJNKLGCH@in?5method?5?8new_RVOSimulator?8?0?5ar@ 000000018003c6e0     libRVO_wrap.obj
 0002:0000a720       ??_C@_0DJ@DDFMGLEF@in?5method?5?8new_RVOSimulator?8?0?5ar@ 000000018003c720     libRVO_wrap.obj
 0002:0000a760       ??_C@_0DK@NCJDEGJP@in?5method?5?8new_RVOSimulator?8?0?5ar@ 000000018003c760     libRVO_wrap.obj
 0002:0000a7a0       ??_C@_0DJ@DNCANHMA@in?5method?5?8new_RVOSimulator?8?0?5ar@ 000000018003c7a0     libRVO_wrap.obj
 0002:0000a7e0       ??_C@_0DJ@NCHCGBCB@in?5method?5?8new_RVOSimulator?8?0?5ar@ 000000018003c7e0     libRVO_wrap.obj
 0002:0000a820       ??_C@_0DJ@DIPELMED@in?5method?5?8new_RVOSimulator?8?0?5ar@ 000000018003c820     libRVO_wrap.obj
 0002:0000a860       ??_C@_0DJ@NHKGAKKC@in?5method?5?8new_RVOSimulator?8?0?5ar@ 000000018003c860     libRVO_wrap.obj
 0002:0000a8a0       ??_C@_0EI@EIHADAON@in?5method?5?8new_RVOSimulator?8?0?5ar@ 000000018003c8a0     libRVO_wrap.obj
 0002:0000a8f0       ??_C@_0FP@ODIJCKIP@invalid?5null?5reference?5in?5method@ 000000018003c8f0     libRVO_wrap.obj
 0002:0000a950       ??_C@_0EA@EDHOHHBB@Illegal?5number?5of?5arguments?5for?5@ 000000018003c950     libRVO_wrap.obj
 0002:0000a990       ??_C@_0DM@MBDAJLEH@Illegal?5arguments?5for?5constructi@ 000000018003c990     libRVO_wrap.obj
 0002:0000a9d0       ??_C@_0EM@GGFENAIF@in?5method?5?8RVOSimulator_addAgent@ 000000018003c9d0     libRVO_wrap.obj
 0002:0000aa20       ??_C@_0EN@LGFLMLBD@in?5method?5?8RVOSimulator_addAgent@ 000000018003ca20     libRVO_wrap.obj
 0002:0000aa70       ??_C@_0GE@JNOLHFLI@invalid?5null?5reference?5in?5method@ 000000018003ca70     libRVO_wrap.obj
 0002:0000aad8       ??_C@_0DO@MACHIOIH@in?5method?5?8RVOSimulator_addAgent@ 000000018003cad8     libRVO_wrap.obj
 0002:0000ab18       ??_C@_0DP@DKNGJFPF@in?5method?5?8RVOSimulator_addAgent@ 000000018003cb18     libRVO_wrap.obj
 0002:0000ab58       ??_C@_0DO@MOFLDCAC@in?5method?5?8RVOSimulator_addAgent@ 000000018003cb58     libRVO_wrap.obj
 0002:0000ab98       ??_C@_0DO@CENNOPGA@in?5method?5?8RVOSimulator_addAgent@ 000000018003cb98     libRVO_wrap.obj
 0002:0000abd8       ??_C@_0DO@MLIPFJIB@in?5method?5?8RVOSimulator_addAgent@ 000000018003cbd8     libRVO_wrap.obj
 0002:0000ac18       ??_C@_0DO@DNPAPNOJ@in?5method?5?8RVOSimulator_addAgent@ 000000018003cc18     libRVO_wrap.obj
 0002:0000ac60       ??_C@_0EN@IBKJPLNP@in?5method?5?8RVOSimulator_addAgent@ 000000018003cc60     libRVO_wrap.obj
 0002:0000acb0       ??_C@_0GE@KKBJEFHE@invalid?5null?5reference?5in?5method@ 000000018003ccb0     libRVO_wrap.obj
 0002:0000ad18       ??_C@_0CJ@PKGHBCJH@Illegal?5arguments?5for?5function?5a@ 000000018003cd18     libRVO_wrap.obj
 0002:0000ad50       ??_C@_0EA@OAIHFADE@Illegal?5number?5of?5arguments?5for?5@ 000000018003cd50     libRVO_wrap.obj
 0002:0000ad90       ??_C@_0EP@GGMKPAHJ@in?5method?5?8RVOSimulator_addObsta@ 000000018003cd90     libRVO_wrap.obj
 0002:0000ade0       ??_C@_0FP@NPLBPOMB@in?5method?5?8RVOSimulator_addObsta@ 000000018003cde0     libRVO_wrap.obj
 0002:0000ae40       ??_C@_0HG@OIMFHLJA@invalid?5null?5reference?5in?5method@ 000000018003ce40     libRVO_wrap.obj
 0002:0000aeb8       ??_C@_0DL@BCPILPBO@Illegal?5number?5of?5arguments?5for?5@ 000000018003ceb8     libRVO_wrap.obj
 0002:0000af00       ??_C@_0EK@NDHBNCKD@in?5method?5?8RVOSimulator_doStep?8?0@ 000000018003cf00     libRVO_wrap.obj
 0002:0000af50       ??_C@_0EK@HIAPCNGH@Illegal?5number?5of?5arguments?5for?5@ 000000018003cf50     libRVO_wrap.obj
 0002:0000afa0       ??_C@_0FP@HENAHOAE@in?5method?5?8RVOSimulator_getAgent@ 000000018003cfa0     libRVO_wrap.obj
 0002:0000b000       ??_C@_0EM@NNMCGKLD@in?5method?5?8RVOSimulator_getAgent@ 000000018003d000     libRVO_wrap.obj
 0002:0000b050       ??_C@_0EM@KCAOKOL@in?5method?5?8RVOSimulator_getAgent@ 000000018003d050     libRVO_wrap.obj
 0002:0000b0a0       ??_C@_0EJ@DBGBLOLH@Illegal?5number?5of?5arguments?5for?5@ 000000018003d0a0     libRVO_wrap.obj
 0002:0000b0f0       ??_C@_0FO@KPDNBDC@in?5method?5?8RVOSimulator_getAgent@ 000000018003d0f0     libRVO_wrap.obj
 0002:0000b150       ??_C@_0EL@IAKJKJKN@in?5method?5?8RVOSimulator_getAgent@ 000000018003d150     libRVO_wrap.obj
 0002:0000b1a0       ??_C@_0EF@NGOCBNGG@Illegal?5number?5of?5arguments?5for?5@ 000000018003d1a0     libRVO_wrap.obj
 0002:0000b1f0       ??_C@_0FK@POMNBMAE@in?5method?5?8RVOSimulator_getAgent@ 000000018003d1f0     libRVO_wrap.obj
 0002:0000b250       ??_C@_0EH@KECBKENB@in?5method?5?8RVOSimulator_getAgent@ 000000018003d250     libRVO_wrap.obj
 0002:0000b2a0       ??_C@_0EJ@GDHDEOAI@Illegal?5number?5of?5arguments?5for?5@ 000000018003d2a0     libRVO_wrap.obj
 0002:0000b2f0       ??_C@_0FO@PKNAIMOM@in?5method?5?8RVOSimulator_getAgent@ 000000018003d2f0     libRVO_wrap.obj
 0002:0000b350       ??_C@_0EL@DJGNIAB@in?5method?5?8RVOSimulator_getAgent@ 000000018003d350     libRVO_wrap.obj
 0002:0000b3a0       ??_C@_0EO@JPHNAJEF@Illegal?5number?5of?5arguments?5for?5@ 000000018003d3a0     libRVO_wrap.obj
 0002:0000b3f0       ??_C@_0GD@JNNAJIOI@in?5method?5?8RVOSimulator_getAgent@ 000000018003d3f0     libRVO_wrap.obj
 0002:0000b460       ??_C@_0FA@EGBLAOHA@in?5method?5?8RVOSimulator_getAgent@ 000000018003d460     libRVO_wrap.obj
 0002:0000b4b0       ??_C@_0FB@HPBLCBBL@Illegal?5number?5of?5arguments?5for?5@ 000000018003d4b0     libRVO_wrap.obj
 0002:0000b510       ??_C@_0GG@DDHDAAOD@in?5method?5?8RVOSimulator_getAgent@ 000000018003d510     libRVO_wrap.obj
 0002:0000b580       ??_C@_0FD@KPNBGDHB@in?5method?5?8RVOSimulator_getAgent@ 000000018003d580     libRVO_wrap.obj
 0002:0000b5e0       ??_C@_0EJ@GPPJEDHL@Illegal?5number?5of?5arguments?5for?5@ 000000018003d5e0     libRVO_wrap.obj
 0002:0000b630       ??_C@_0FO@JFJIIHFD@in?5method?5?8RVOSimulator_getAgent@ 000000018003d630     libRVO_wrap.obj
 0002:0000b690       ??_C@_0EL@HENLPGHE@in?5method?5?8RVOSimulator_getAgent@ 000000018003d690     libRVO_wrap.obj
 0002:0000b6e0       ??_C@_0EN@CLFOFLNH@Illegal?5number?5of?5arguments?5for?5@ 000000018003d6e0     libRVO_wrap.obj
 0002:0000b730       ??_C@_0GC@ELOCOCFM@in?5method?5?8RVOSimulator_getAgent@ 000000018003d730     libRVO_wrap.obj
 0002:0000b7a0       ??_C@_0EP@HHOLHAGO@in?5method?5?8RVOSimulator_getAgent@ 000000018003d7a0     libRVO_wrap.obj
 0002:0000b7f0       ??_C@_0EP@KAAJPADG@in?5method?5?8RVOSimulator_getAgent@ 000000018003d7f0     libRVO_wrap.obj
 0002:0000b840       ??_C@_0EF@INMGDEGB@Illegal?5number?5of?5arguments?5for?5@ 000000018003d840     libRVO_wrap.obj
 0002:0000b890       ??_C@_0FK@LIIOLLJF@in?5method?5?8RVOSimulator_getAgent@ 000000018003d890     libRVO_wrap.obj
 0002:0000b8f0       ??_C@_0EH@HILMNKMJ@in?5method?5?8RVOSimulator_getAgent@ 000000018003d8f0     libRVO_wrap.obj
 0002:0000b940       ??_C@_0EH@KPFOFKJB@in?5method?5?8RVOSimulator_getAgent@ 000000018003d940     libRVO_wrap.obj
 0002:0000b990       ??_C@_0EF@KBECOAED@Illegal?5number?5of?5arguments?5for?5@ 000000018003d990     libRVO_wrap.obj
 0002:0000b9e0       ??_C@_0FK@OIEGEIDH@in?5method?5?8RVOSimulator_getAgent@ 000000018003d9e0     libRVO_wrap.obj
 0002:0000ba40       ??_C@_0EH@MNEFKIFD@in?5method?5?8RVOSimulator_getAgent@ 000000018003da40     libRVO_wrap.obj
 0002:0000ba90       ??_C@_0EJ@NGNBKOOM@Illegal?5number?5of?5arguments?5for?5@ 000000018003da90     libRVO_wrap.obj
 0002:0000bae0       ??_C@_0FO@DOGHBPCB@in?5method?5?8RVOSimulator_getAgent@ 000000018003dae0     libRVO_wrap.obj
 0002:0000bb40       ??_C@_0EL@NNPJKMEG@in?5method?5?8RVOSimulator_getAgent@ 000000018003db40     libRVO_wrap.obj
 0002:0000bb90       ??_C@_0ED@JMGOABHI@Illegal?5number?5of?5arguments?5for?5@ 000000018003db90     libRVO_wrap.obj
 0002:0000bbe0       ??_C@_0FI@ENJEDBCH@in?5method?5?8RVOSimulator_getAgent@ 000000018003dbe0     libRVO_wrap.obj
 0002:0000bc40       ??_C@_0EF@KOJKLFAD@in?5method?5?8RVOSimulator_getAgent@ 000000018003dc40     libRVO_wrap.obj
 0002:0000bc90       ??_C@_0EI@IPLGLGPC@Illegal?5number?5of?5arguments?5for?5@ 000000018003dc90     libRVO_wrap.obj
 0002:0000bce0       ??_C@_0FN@FIPBAALM@in?5method?5?8RVOSimulator_getAgent@ 000000018003dce0     libRVO_wrap.obj
 0002:0000bd40       ??_C@_0EK@KNNKGMMB@in?5method?5?8RVOSimulator_getAgent@ 000000018003dd40     libRVO_wrap.obj
 0002:0000bd90       ??_C@_0EM@CDALPFAB@Illegal?5number?5of?5arguments?5for?5@ 000000018003dd90     libRVO_wrap.obj
 0002:0000bde0       ??_C@_0GB@CFMDAEK@in?5method?5?8RVOSimulator_getAgent@ 000000018003dde0     libRVO_wrap.obj
 0002:0000be50       ??_C@_0EO@HCJNFEA@in?5method?5?8RVOSimulator_getAgent@ 000000018003de50     libRVO_wrap.obj
 0002:0000bea0       ??_C@_0EF@HPJLFLGP@Illegal?5number?5of?5arguments?5for?5@ 000000018003dea0     libRVO_wrap.obj
 0002:0000bef0       ??_C@_0FK@HDJLANPD@in?5method?5?8RVOSimulator_getAgent@ 000000018003def0     libRVO_wrap.obj
 0002:0000bf50       ??_C@_0EH@ICCNJJOF@in?5method?5?8RVOSimulator_getAgent@ 000000018003df50     libRVO_wrap.obj
 0002:0000bfa0       ??_C@_0EC@HKKKDJKD@Illegal?5number?5of?5arguments?5for?5@ 000000018003dfa0     libRVO_wrap.obj
 0002:0000bff0       ??_C@_0FH@KGMNBGKP@in?5method?5?8RVOSimulator_getGloba@ 000000018003dff0     libRVO_wrap.obj
 0002:0000c050       ??_C@_0EB@ONEEIMPD@Illegal?5number?5of?5arguments?5for?5@ 000000018003e050     libRVO_wrap.obj
 0002:0000c0a0       ??_C@_0FG@EIIBAHPL@in?5method?5?8RVOSimulator_getNumAg@ 000000018003e0a0     libRVO_wrap.obj
 0002:0000c100       ??_C@_0EL@JAKCLIMD@Illegal?5number?5of?5arguments?5for?5@ 000000018003e100     libRVO_wrap.obj
 0002:0000c150       ??_C@_0GA@HOOADBGA@in?5method?5?8RVOSimulator_getNumOb@ 000000018003e150     libRVO_wrap.obj
 0002:0000c1b0       ??_C@_0EG@KKNFMEIK@Illegal?5number?5of?5arguments?5for?5@ 000000018003e1b0     libRVO_wrap.obj
 0002:0000c200       ??_C@_0FL@KPAALEFO@in?5method?5?8RVOSimulator_getObsta@ 000000018003e200     libRVO_wrap.obj
 0002:0000c260       ??_C@_0EI@PLEGCDOE@in?5method?5?8RVOSimulator_getObsta@ 000000018003e260     libRVO_wrap.obj
 0002:0000c2b0       ??_C@_0EM@POGJOIJF@Illegal?5number?5of?5arguments?5for?5@ 000000018003e2b0     libRVO_wrap.obj
 0002:0000c300       ??_C@_0GB@DCGNIBKG@in?5method?5?8RVOSimulator_getNextO@ 000000018003e300     libRVO_wrap.obj
 0002:0000c370       ??_C@_0EO@ENMAFFPP@in?5method?5?8RVOSimulator_getNextO@ 000000018003e370     libRVO_wrap.obj
 0002:0000c3c0       ??_C@_0EM@JMAMOBJJ@Illegal?5number?5of?5arguments?5for?5@ 000000018003e3c0     libRVO_wrap.obj
 0002:0000c410       ??_C@_0GB@OEEAKMGB@in?5method?5?8RVOSimulator_getPrevO@ 000000018003e410     libRVO_wrap.obj
 0002:0000c480       ??_C@_0EO@PHKKPGDP@in?5method?5?8RVOSimulator_getPrevO@ 000000018003e480     libRVO_wrap.obj
 0002:0000c4d0       ??_C@_0EA@HMCFJEMJ@Illegal?5number?5of?5arguments?5for?5@ 000000018003e4d0     libRVO_wrap.obj
 0002:0000c510       ??_C@_0FF@POIJJBGP@in?5method?5?8RVOSimulator_getTimeS@ 000000018003e510     libRVO_wrap.obj
 0002:0000c570       ??_C@_0EF@BLGLJNMP@Illegal?5number?5of?5arguments?5for?5@ 000000018003e570     libRVO_wrap.obj
 0002:0000c5c0       ??_C@_0FE@CAHPBGND@in?5method?5?8RVOSimulator_processO@ 000000018003e5c0     libRVO_wrap.obj
 0002:0000c620       ??_C@_0FJ@KDHKPOHN@in?5method?5?8RVOSimulator_queryVis@ 000000018003e620     libRVO_wrap.obj
 0002:0000c680       ??_C@_0FE@ELNDHGN@in?5method?5?8RVOSimulator_queryVis@ 000000018003e680     libRVO_wrap.obj
 0002:0000c6e0       ??_C@_0GL@GCFOCNH@invalid?5null?5reference?5in?5method@ 000000018003e6e0     libRVO_wrap.obj
 0002:0000c750       ??_C@_0FE@DCEPKHJO@in?5method?5?8RVOSimulator_queryVis@ 000000018003e750     libRVO_wrap.obj
 0002:0000c7b0       ??_C@_0GL@DANHHCCE@invalid?5null?5reference?5in?5method@ 000000018003e7b0     libRVO_wrap.obj
 0002:0000c820       ??_C@_0EF@IIKOBFLL@in?5method?5?8RVOSimulator_queryVis@ 000000018003e820     libRVO_wrap.obj
 0002:0000c868       ??_C@_0DA@BICGANDG@Illegal?5arguments?5for?5function?5q@ 000000018003e868     libRVO_wrap.obj
 0002:0000c8a0       ??_C@_0FE@LMNOCGBB@in?5method?5?8RVOSimulator_setAgent@ 000000018003e8a0     libRVO_wrap.obj
 0002:0000c900       ??_C@_0EG@FJKJCDDE@in?5method?5?8RVOSimulator_setAgent@ 000000018003e900     libRVO_wrap.obj
 0002:0000c950       ??_C@_0EH@PFPLPCHN@in?5method?5?8RVOSimulator_setAgent@ 000000018003e950     libRVO_wrap.obj
 0002:0000c9a0       ??_C@_0EG@FHNFJPLB@in?5method?5?8RVOSimulator_setAgent@ 000000018003e9a0     libRVO_wrap.obj
 0002:0000c9f0       ??_C@_0EG@LIIHCJFA@in?5method?5?8RVOSimulator_setAgent@ 000000018003e9f0     libRVO_wrap.obj
 0002:0000ca40       ??_C@_0EG@FCABPEDC@in?5method?5?8RVOSimulator_setAgent@ 000000018003ea40     libRVO_wrap.obj
 0002:0000ca90       ??_C@_0EG@LNFDECND@in?5method?5?8RVOSimulator_setAgent@ 000000018003ea90     libRVO_wrap.obj
 0002:0000cae0       ??_C@_0FF@EAODLGIH@in?5method?5?8RVOSimulator_setAgent@ 000000018003eae0     libRVO_wrap.obj
 0002:0000cb40       ??_C@_0GM@GLFFHEMA@invalid?5null?5reference?5in?5method@ 000000018003eb40     libRVO_wrap.obj
 0002:0000cbb0       ??_C@_0DB@NNDDNFLI@Illegal?5arguments?5for?5function?5s@ 000000018003ebb0     libRVO_wrap.obj
 0002:0000cbf0       ??_C@_0EJ@MEDHGHPG@Illegal?5number?5of?5arguments?5for?5@ 000000018003ebf0     libRVO_wrap.obj
 0002:0000cc40       ??_C@_0FI@FGJHKNGM@in?5method?5?8RVOSimulator_setAgent@ 000000018003ec40     libRVO_wrap.obj
 0002:0000cca0       ??_C@_0EL@LEEGKJI@in?5method?5?8RVOSimulator_setAgent@ 000000018003eca0     libRVO_wrap.obj
 0002:0000ccf0       ??_C@_0EL@NMKGOKMA@in?5method?5?8RVOSimulator_setAgent@ 000000018003ecf0     libRVO_wrap.obj
 0002:0000cd40       ??_C@_0EF@PDOJJGHI@Illegal?5number?5of?5arguments?5for?5@ 000000018003ed40     libRVO_wrap.obj
 0002:0000cd90       ??_C@_0FE@CKEFLAIC@in?5method?5?8RVOSimulator_setAgent@ 000000018003ed90     libRVO_wrap.obj
 0002:0000cdf0       ??_C@_0EH@PLJBCGBB@in?5method?5?8RVOSimulator_setAgent@ 000000018003edf0     libRVO_wrap.obj
 0002:0000ce40       ??_C@_0EG@OIPFHNDM@in?5method?5?8RVOSimulator_setAgent@ 000000018003ee40     libRVO_wrap.obj
 0002:0000ce90       ??_C@_0EJ@JGCFJHEJ@Illegal?5number?5of?5arguments?5for?5@ 000000018003ee90     libRVO_wrap.obj
 0002:0000cee0       ??_C@_0FI@NGHGLKDG@in?5method?5?8RVOSimulator_setAgent@ 000000018003eee0     libRVO_wrap.obj
 0002:0000cf40       ??_C@_0EL@IIHLBLDE@in?5method?5?8RVOSimulator_setAgent@ 000000018003ef40     libRVO_wrap.obj
 0002:0000cf90       ??_C@_0EK@NONONLLL@in?5method?5?8RVOSimulator_setAgent@ 000000018003ef90     libRVO_wrap.obj
 0002:0000cfe0       ??_C@_0EF@IEEJGLFN@Illegal?5number?5of?5arguments?5for?5@ 000000018003efe0     libRVO_wrap.obj
 0002:0000d030       ??_C@_0FE@CCIGKHFP@in?5method?5?8RVOSimulator_setAgent@ 000000018003f030     libRVO_wrap.obj
 0002:0000d090       ??_C@_0EH@JCPFCKJD@in?5method?5?8RVOSimulator_setAgent@ 000000018003f090     libRVO_wrap.obj
 0002:0000d0e0       ??_C@_0FF@OGOLLCFN@in?5method?5?8RVOSimulator_setAgent@ 000000018003f0e0     libRVO_wrap.obj
 0002:0000d140       ??_C@_0GM@MNFNHABK@invalid?5null?5reference?5in?5method@ 000000018003f140     libRVO_wrap.obj
 0002:0000d1b0       ??_C@_0EJ@CDIHHHKN@Illegal?5number?5of?5arguments?5for?5@ 000000018003f1b0     libRVO_wrap.obj
 0002:0000d200       ??_C@_0FI@LDDAEKEK@in?5method?5?8RVOSimulator_setAgent@ 000000018003f200     libRVO_wrap.obj
 0002:0000d260       ??_C@_0EL@FGBEGPHD@in?5method?5?8RVOSimulator_setAgent@ 000000018003f260     libRVO_wrap.obj
 0002:0000d2b0       ??_C@_0FJ@ILKHOAFL@in?5method?5?8RVOSimulator_setAgent@ 000000018003f2b0     libRVO_wrap.obj
 0002:0000d310       ??_C@_0HA@BGMDCIP@invalid?5null?5reference?5in?5method@ 000000018003f310     libRVO_wrap.obj
 0002:0000d380       ??_C@_0ED@KOHIHDGB@Illegal?5number?5of?5arguments?5for?5@ 000000018003f380     libRVO_wrap.obj
 0002:0000d3d0       ??_C@_0FC@BOHIONAM@in?5method?5?8RVOSimulator_setAgent@ 000000018003f3d0     libRVO_wrap.obj
 0002:0000d430       ??_C@_0EF@HEJNLNLO@in?5method?5?8RVOSimulator_setAgent@ 000000018003f430     libRVO_wrap.obj
 0002:0000d480       ??_C@_0EE@IBPACNOA@in?5method?5?8RVOSimulator_setAgent@ 000000018003f480     libRVO_wrap.obj
 0002:0000d4d0       ??_C@_0EI@NGKLKAKF@Illegal?5number?5of?5arguments?5for?5@ 000000018003f4d0     libRVO_wrap.obj
 0002:0000d520       ??_C@_0FH@IKEPIGOH@in?5method?5?8RVOSimulator_setAgent@ 000000018003f520     libRVO_wrap.obj
 0002:0000d580       ??_C@_0EK@POKBLDJL@in?5method?5?8RVOSimulator_setAgent@ 000000018003f580     libRVO_wrap.obj
 0002:0000d5d0       ??_C@_0EJ@NIDHOEPL@in?5method?5?8RVOSimulator_setAgent@ 000000018003f5d0     libRVO_wrap.obj
 0002:0000d620       ??_C@_0EM@IAKBJIJE@Illegal?5number?5of?5arguments?5for?5@ 000000018003f620     libRVO_wrap.obj
 0002:0000d670       ??_C@_0FL@MDMFGCCN@in?5method?5?8RVOSimulator_setAgent@ 000000018003f670     libRVO_wrap.obj
 0002:0000d6d0       ??_C@_0EO@BLOFOIPI@in?5method?5?8RVOSimulator_setAgent@ 000000018003f6d0     libRVO_wrap.obj
 0002:0000d720       ??_C@_0EN@EJNCIKDG@in?5method?5?8RVOSimulator_setAgent@ 000000018003f720     libRVO_wrap.obj
 0002:0000d770       ??_C@_0EF@FKJANAHB@Illegal?5number?5of?5arguments?5for?5@ 000000018003f770     libRVO_wrap.obj
 0002:0000d7c0       ??_C@_0FE@CPFKOBIB@in?5method?5?8RVOSimulator_setAgent@ 000000018003f7c0     libRVO_wrap.obj
 0002:0000d820       ??_C@_0EH@NNJNBLCF@in?5method?5?8RVOSimulator_setAgent@ 000000018003f820     libRVO_wrap.obj
 0002:0000d870       ??_C@_0FF@IHINJBMI@in?5method?5?8RVOSimulator_setAgent@ 000000018003f870     libRVO_wrap.obj
 0002:0000d8d0       ??_C@_0GM@KMDLFDIP@invalid?5null?5reference?5in?5method@ 000000018003f8d0     libRVO_wrap.obj
 0002:0000d940       ??_C@_0EA@IJLFIIF@Illegal?5number?5of?5arguments?5for?5@ 000000018003f940     libRVO_wrap.obj
 0002:0000d980       ??_C@_0EP@OONPBCIJ@in?5method?5?8RVOSimulator_setTimeS@ 000000018003f980     libRVO_wrap.obj
 0002:0000d9d0       ??_C@_0EB@ENDGEGHE@in?5method?5?8RVOSimulator_setTimeS@ 000000018003f9d0     libRVO_wrap.obj
 0002:0000da18       ??_C@_0DL@OFOIGKBO@Illegal?5number?5of?5arguments?5for?5@ 000000018003fa18     libRVO_wrap.obj
 0002:0000da58       ??_C@_0DL@OECKAACJ@Illegal?5number?5of?5arguments?5for?5@ 000000018003fa58     libRVO_wrap.obj
 0002:0000daa0       ??_C@_0EM@EKEGOOII@in?5method?5?8new_vectori?8?0?5argumen@ 000000018003faa0     libRVO_wrap.obj
 0002:0000daf0       ??_C@_0DH@NNPABCDB@Illegal?5arguments?5for?5constructi@ 000000018003faf0     libRVO_wrap.obj
 0002:0000db28       ??_C@_0DE@IJLHAJPC@Illegal?5number?5of?5arguments?5for?5@ 000000018003fb28     libRVO_wrap.obj
 0002:0000db60       ??_C@_0EK@KHDPCFNL@in?5method?5?8vectori_size?8?0?5argume@ 000000018003fb60     libRVO_wrap.obj
 0002:0000dbb0       ??_C@_0DI@HGDJJMMF@Illegal?5number?5of?5arguments?5for?5@ 000000018003fbb0     libRVO_wrap.obj
 0002:0000dbf0       ??_C@_0EO@HGIJNODP@in?5method?5?8vectori_capacity?8?0?5ar@ 000000018003fbf0     libRVO_wrap.obj
 0002:0000dc40       ??_C@_0DH@BBGHKDOD@Illegal?5number?5of?5arguments?5for?5@ 000000018003fc40     libRVO_wrap.obj
 0002:0000dc80       ??_C@_0EH@FAMOCEBO@in?5method?5?8vectori_reserve?8?0?5arg@ 000000018003fc80     libRVO_wrap.obj
 0002:0000dcd0       ??_C@_0FA@GFPAJGJA@in?5method?5?8vectori_reserve?8?0?5arg@ 000000018003fcd0     libRVO_wrap.obj
 0002:0000dd20       ??_C@_0DH@GHDDJEBJ@Illegal?5number?5of?5arguments?5for?5@ 000000018003fd20     libRVO_wrap.obj
 0002:0000dd60       ??_C@_0EN@CLBJOLJO@in?5method?5?8vectori_isEmpty?8?0?5arg@ 000000018003fd60     libRVO_wrap.obj
 0002:0000ddb0       ??_C@_0DF@GHFKGALI@Illegal?5number?5of?5arguments?5for?5@ 000000018003fdb0     libRVO_wrap.obj
 0002:0000ddf0       ??_C@_0EF@JOHCLNMA@in?5method?5?8vectori_clear?8?0?5argum@ 000000018003fdf0     libRVO_wrap.obj
 0002:0000de38       ??_C@_0DD@FFILBLNN@Illegal?5number?5of?5arguments?5for?5@ 000000018003fe38     libRVO_wrap.obj
 0002:0000de70       ??_C@_0ED@PBKECMDF@in?5method?5?8vectori_add?8?0?5argumen@ 000000018003fe70     libRVO_wrap.obj
 0002:0000dec0       ??_C@_0EN@FOMNGHNF@in?5method?5?8vectori_add?8?0?5argumen@ 000000018003fec0     libRVO_wrap.obj
 0002:0000df10       ??_C@_0DD@HOFBCKGI@Illegal?5number?5of?5arguments?5for?5@ 000000018003ff10     libRVO_wrap.obj
 0002:0000df50       ??_C@_0ED@IECEONKM@in?5method?5?8vectori_get?8?0?5argumen@ 000000018003ff50     libRVO_wrap.obj
 0002:0000df98       ??_C@_0DC@FDFKNDNI@in?5method?5?8vectori_get?8?0?5argumen@ 000000018003ff98     libRVO_wrap.obj
 0002:0000dfd0       ??_C@_0DD@OLDBBLCK@Illegal?5number?5of?5arguments?5for?5@ 000000018003ffd0     libRVO_wrap.obj
 0002:0000e010       ??_C@_0ED@BPBPJPJO@in?5method?5?8vectori_set?8?0?5argumen@ 0000000180040010     libRVO_wrap.obj
 0002:0000e058       ??_C@_0DC@IGLLPNIM@in?5method?5?8vectori_set?8?0?5argumen@ 0000000180040058     libRVO_wrap.obj
 0002:0000e090       ??_C@_0EN@OBIMILOL@in?5method?5?8vectori_set?8?0?5argumen@ 0000000180040090     libRVO_wrap.obj
 0002:0000e0e0       ??_C@_0DL@COHMCHBJ@Illegal?5number?5of?5arguments?5for?5@ 00000001800400e0     libRVO_wrap.obj
 0002:0000e120       ??_C@_0DL@CPLOENCO@Illegal?5number?5of?5arguments?5for?5@ 0000000180040120     libRVO_wrap.obj
 0002:0000e160       ??_C@_0EP@FEDPKEKA@in?5method?5?8new_vectord?8?0?5argumen@ 0000000180040160     libRVO_wrap.obj
 0002:0000e1b0       ??_C@_0DH@GIFOGMHM@Illegal?5arguments?5for?5constructi@ 00000001800401b0     libRVO_wrap.obj
 0002:0000e1e8       ??_C@_0DE@BCLCBMCD@Illegal?5number?5of?5arguments?5for?5@ 00000001800401e8     libRVO_wrap.obj
 0002:0000e220       ??_C@_0EN@EKEEIFGL@in?5method?5?8vectord_size?8?0?5argume@ 0000000180040220     libRVO_wrap.obj
 0002:0000e270       ??_C@_0DI@OIJGJNCL@Illegal?5number?5of?5arguments?5for?5@ 0000000180040270     libRVO_wrap.obj
 0002:0000e2b0       ??_C@_0FB@PKEOOICJ@in?5method?5?8vectord_capacity?8?0?5ar@ 00000001800402b0     libRVO_wrap.obj
 0002:0000e308       ??_C@_0DH@NKPDOOOE@Illegal?5number?5of?5arguments?5for?5@ 0000000180040308     libRVO_wrap.obj
 0002:0000e340       ??_C@_0EK@OGCKLAOD@in?5method?5?8vectord_reserve?8?0?5arg@ 0000000180040340     libRVO_wrap.obj
 0002:0000e390       ??_C@_0FD@JFAPIPNM@in?5method?5?8vectord_reserve?8?0?5arg@ 0000000180040390     libRVO_wrap.obj
 0002:0000e3e8       ??_C@_0DH@KMKHNJBO@Illegal?5number?5of?5arguments?5for?5@ 00000001800403e8     libRVO_wrap.obj
 0002:0000e420       ??_C@_0FA@CNDAPNDD@in?5method?5?8vectord_isEmpty?8?0?5arg@ 0000000180040420     libRVO_wrap.obj
 0002:0000e470       ??_C@_0DF@JGBFIHOP@Illegal?5number?5of?5arguments?5for?5@ 0000000180040470     libRVO_wrap.obj
 0002:0000e4b0       ??_C@_0EI@NNFPIPKG@in?5method?5?8vectord_clear?8?0?5argum@ 00000001800404b0     libRVO_wrap.obj
 0002:0000e4f8       ??_C@_0DD@DEFMHKBN@Illegal?5number?5of?5arguments?5for?5@ 00000001800404f8     libRVO_wrap.obj
 0002:0000e530       ??_C@_0EG@BGDHOKFH@in?5method?5?8vectord_add?8?0?5argumen@ 0000000180040530     libRVO_wrap.obj
 0002:0000e580       ??_C@_0FA@GOGEFFGJ@in?5method?5?8vectord_add?8?0?5argumen@ 0000000180040580     libRVO_wrap.obj
 0002:0000e5d0       ??_C@_0DD@BPIGELKI@Illegal?5number?5of?5arguments?5for?5@ 00000001800405d0     libRVO_wrap.obj
 0002:0000e610       ??_C@_0EG@NLKMAMHC@in?5method?5?8vectord_get?8?0?5argumen@ 0000000180040610     libRVO_wrap.obj
 0002:0000e658       ??_C@_0DC@NCIHIBDO@in?5method?5?8vectord_get?8?0?5argumen@ 0000000180040658     libRVO_wrap.obj
 0002:0000e690       ??_C@_0DD@IKOGHKOK@Illegal?5number?5of?5arguments?5for?5@ 0000000180040690     libRVO_wrap.obj
 0002:0000e6d0       ??_C@_0EG@FAEBMPEH@in?5method?5?8vectord_set?8?0?5argumen@ 00000001800406d0     libRVO_wrap.obj
 0002:0000e718       ??_C@_0DC@HGGKPGK@in?5method?5?8vectord_set?8?0?5argumen@ 0000000180040718     libRVO_wrap.obj
 0002:0000e750       ??_C@_0FA@LDIBFAKK@in?5method?5?8vectord_set?8?0?5argumen@ 0000000180040750     libRVO_wrap.obj
 0002:0000e7a0       ??_C@_0DO@EIAJHAJH@Illegal?5number?5of?5arguments?5for?5@ 00000001800407a0     libRVO_wrap.obj
 0002:0000e7e0       ??_C@_0DO@EJMLBKKA@Illegal?5number?5of?5arguments?5for?5@ 00000001800407e0     libRVO_wrap.obj
 0002:0000e820       ??_C@_0FF@CEKGLIOF@in?5method?5?8new_vectorline?8?0?5argu@ 0000000180040820     libRVO_wrap.obj
 0002:0000e878       ??_C@_0DK@DEONEDIE@Illegal?5arguments?5for?5constructi@ 0000000180040878     libRVO_wrap.obj
 0002:0000e8b8       ??_C@_0DH@MPFNOHPO@Illegal?5number?5of?5arguments?5for?5@ 00000001800408b8     libRVO_wrap.obj
 0002:0000e8f0       ??_C@_0FD@OGNOGKBA@in?5method?5?8vectorline_size?8?0?5arg@ 00000001800408f0     libRVO_wrap.obj
 0002:0000e948       ??_C@_0DL@KELNCBBE@Illegal?5number?5of?5arguments?5for?5@ 0000000180040948     libRVO_wrap.obj
 0002:0000e990       ??_C@_0FH@PPHDBFJN@in?5method?5?8vectorline_capacity?8?0@ 0000000180040990     libRVO_wrap.obj
 0002:0000e9e8       ??_C@_0DK@JIFPIPMF@Illegal?5number?5of?5arguments?5for?5@ 00000001800409e8     libRVO_wrap.obj
 0002:0000ea30       ??_C@_0FA@BFGEHMEF@in?5method?5?8vectorline_reserve?8?0?5@ 0000000180040a30     libRVO_wrap.obj
 0002:0000ea80       ??_C@_0FJ@NBJDAIKA@in?5method?5?8vectorline_reserve?8?0?5@ 0000000180040a80     libRVO_wrap.obj
 0002:0000eae0       ??_C@_0DK@OOALLIDP@Illegal?5number?5of?5arguments?5for?5@ 0000000180040ae0     libRVO_wrap.obj
 0002:0000eb20       ??_C@_0FG@HKFMOHLJ@in?5method?5?8vectorline_isEmpty?8?0?5@ 0000000180040b20     libRVO_wrap.obj
 0002:0000eb78       ??_C@_0DI@GOKKMGHN@Illegal?5number?5of?5arguments?5for?5@ 0000000180040b78     libRVO_wrap.obj
 0002:0000ebb0       ??_C@_0EO@FCHOKPGN@in?5method?5?8vectorline_clear?8?0?5ar@ 0000000180040bb0     libRVO_wrap.obj
 0002:0000ec00       ??_C@_0DG@NGNLGOHC@Illegal?5number?5of?5arguments?5for?5@ 0000000180040c00     libRVO_wrap.obj
 0002:0000ec40       ??_C@_0EM@MAJOLLEE@in?5method?5?8vectorline_add?8?0?5argu@ 0000000180040c40     libRVO_wrap.obj
 0002:0000ec90       ??_C@_0FO@MPFFKGNE@in?5method?5?8vectorline_add?8?0?5argu@ 0000000180040c90     libRVO_wrap.obj
 0002:0000ecf0       ??_C@_0HF@GDOLAHDP@invalid?5null?5reference?5in?5method@ 0000000180040cf0     libRVO_wrap.obj
 0002:0000ed68       ??_C@_0DG@PNABFPMH@Illegal?5number?5of?5arguments?5for?5@ 0000000180040d68     libRVO_wrap.obj
 0002:0000eda0       ??_C@_0EM@JBOBCBCE@in?5method?5?8vectorline_get?8?0?5argu@ 0000000180040da0     libRVO_wrap.obj
 0002:0000edf0       ??_C@_0DF@OOENLPNC@in?5method?5?8vectorline_get?8?0?5argu@ 0000000180040df0     libRVO_wrap.obj
 0002:0000ee28       ??_C@_0DG@GIGBGOIF@Illegal?5number?5of?5arguments?5for?5@ 0000000180040e28     libRVO_wrap.obj
 0002:0000ee60       ??_C@_0EM@INCNBMJM@in?5method?5?8vectorline_set?8?0?5argu@ 0000000180040e60     libRVO_wrap.obj
 0002:0000eeb0       ??_C@_0DF@DLKMJBIG@in?5method?5?8vectorline_set?8?0?5argu@ 0000000180040eb0     libRVO_wrap.obj
 0002:0000eef0       ??_C@_0FO@PMIOIAII@in?5method?5?8vectorline_set?8?0?5argu@ 0000000180040ef0     libRVO_wrap.obj
 0002:0000ef50       ??_C@_0HF@FADACBGD@invalid?5null?5reference?5in?5method@ 0000000180040f50     libRVO_wrap.obj
 0002:0000efd0       ??_C@_0EA@PHPNPGMJ@Illegal?5number?5of?5arguments?5for?5@ 0000000180040fd0     libRVO_wrap.obj
 0002:0000f010       ??_C@_0EA@PGDPJMPO@Illegal?5number?5of?5arguments?5for?5@ 0000000180041010     libRVO_wrap.obj
 0002:0000f050       ??_C@_0FK@LDOGKBMG@in?5method?5?8new_vectorvector?8?0?5ar@ 0000000180041050     libRVO_wrap.obj
 0002:0000f0b0       ??_C@_0DM@EKOBBJFB@Illegal?5arguments?5for?5constructi@ 00000001800410b0     libRVO_wrap.obj
 0002:0000f0f0       ??_C@_0DJ@PGFICKOG@Illegal?5number?5of?5arguments?5for?5@ 00000001800410f0     libRVO_wrap.obj
 0002:0000f130       ??_C@_0FI@BLMONKFJ@in?5method?5?8vectorvector_size?8?0?5a@ 0000000180041130     libRVO_wrap.obj
 0002:0000f188       ??_C@_0DN@IKBFCHDK@Illegal?5number?5of?5arguments?5for?5@ 0000000180041188     libRVO_wrap.obj
 0002:0000f1d0       ??_C@_0FM@CCGCPOIM@in?5method?5?8vectorvector_capacity@ 00000001800411d0     libRVO_wrap.obj
 0002:0000f230       ??_C@_0DM@IEFECALI@Illegal?5number?5of?5arguments?5for?5@ 0000000180041230     libRVO_wrap.obj
 0002:0000f270       ??_C@_0FF@CIHCAPDG@in?5method?5?8vectorvector_reserve?8@ 0000000180041270     libRVO_wrap.obj
 0002:0000f2d0       ??_C@_0FO@EFGIPLNE@in?5method?5?8vectorvector_reserve?8@ 00000001800412d0     libRVO_wrap.obj
 0002:0000f330       ??_C@_0DM@PCAABHEC@Illegal?5number?5of?5arguments?5for?5@ 0000000180041330     libRVO_wrap.obj
 0002:0000f370       ??_C@_0FL@DFFHPJGN@in?5method?5?8vectorvector_isEmpty?8@ 0000000180041370     libRVO_wrap.obj
 0002:0000f3d0       ??_C@_0DK@HNPPFLOG@Illegal?5number?5of?5arguments?5for?5@ 00000001800413d0     libRVO_wrap.obj
 0002:0000f410       ??_C@_0FD@HENBECBD@in?5method?5?8vectorvector_clear?8?0?5@ 0000000180041410     libRVO_wrap.obj
 0002:0000f468       ??_C@_0DI@NAKFLEJB@Illegal?5number?5of?5arguments?5for?5@ 0000000180041468     libRVO_wrap.obj
 0002:0000f4a0       ??_C@_0FB@FEAFJHA@in?5method?5?8vectorvector_add?8?0?5ar@ 00000001800414a0     libRVO_wrap.obj
 0002:0000f500       ??_C@_0GD@EGKJMNB@in?5method?5?8vectorvector_add?8?0?5ar@ 0000000180041500     libRVO_wrap.obj
 0002:0000f570       ??_C@_0HK@GDMLDEIA@invalid?5null?5reference?5in?5method@ 0000000180041570     libRVO_wrap.obj
 0002:0000f5f0       ??_C@_0DI@PLHPIFCE@Illegal?5number?5of?5arguments?5for?5@ 00000001800415f0     libRVO_wrap.obj
 0002:0000f630       ??_C@_0FB@GIDJMDM@in?5method?5?8vectorvector_get?8?0?5ar@ 0000000180041630     libRVO_wrap.obj
 0002:0000f688       ??_C@_0DH@OMBHPGCF@in?5method?5?8vectorvector_get?8?0?5ar@ 0000000180041688     libRVO_wrap.obj
 0002:0000f6c0       ??_C@_0DI@GOBPLEGG@Illegal?5number?5of?5arguments?5for?5@ 00000001800416c0     libRVO_wrap.obj
 0002:0000f700       ??_C@_0FB@DFPEPFKN@in?5method?5?8vectorvector_set?8?0?5ar@ 0000000180041700     libRVO_wrap.obj
 0002:0000f758       ??_C@_0DH@DJPGNIHB@in?5method?5?8vectorvector_set?8?0?5ar@ 0000000180041758     libRVO_wrap.obj
 0002:0000f790       ??_C@_0GD@LDBDMDEO@in?5method?5?8vectorvector_set?8?0?5ar@ 0000000180041790     libRVO_wrap.obj
 0002:0000f800       ??_C@_0HK@NELCGLBP@invalid?5null?5reference?5in?5method@ 0000000180041800     libRVO_wrap.obj
 0002:0000f880       ??_C@_0O@INFMEJNP@_p_RVO__Agent?$AA@ 0000000180041880     libRVO_wrap.obj
 0002:0000f890       ??_C@_0N@CCAMAJPB@p_RVO__Agent?$AA@ 0000000180041890     libRVO_wrap.obj
 0002:0000f8a0       ??_C@_0P@LHOFJBFI@_p_RVO__KdTree?$AA@ 00000001800418a0     libRVO_wrap.obj
 0002:0000f8b0       ??_C@_0O@GLJMMMNH@p_RVO__KdTree?$AA@ 00000001800418b0     libRVO_wrap.obj
 0002:0000f8c0       ??_C@_0N@PEMCBKJC@_p_RVO__Line?$AA@ 00000001800418c0     libRVO_wrap.obj
 0002:0000f8d0       ??_C@_0DP@IBIBFPLC@std?3?3vector?$DM?5RVO?3?3Line?5?$DO?3?3value_@ 00000001800418d0     libRVO_wrap.obj
 0002:0000f910       ??_C@_0BB@DLAGCLFF@_p_RVO__Obstacle?$AA@ 0000000180041910     libRVO_wrap.obj
 0002:0000f928       ??_C@_0BA@JCMHFOOB@p_RVO__Obstacle?$AA@ 0000000180041928     libRVO_wrap.obj
 0002:0000f938       ??_C@_0BF@CBPJNEDO@_p_RVO__RVOSimulator?$AA@ 0000000180041938     libRVO_wrap.obj
 0002:0000f950       ??_C@_0CI@CGGIMNOK@RVO?3?3RVOSimulator?5?$CK?$HMp_RVO__RVOSi@ 0000000180041950     libRVO_wrap.obj
 0002:0000f978       ??_C@_0BA@CJFFNAEM@_p_RVO__Vector2?$AA@ 0000000180041978     libRVO_wrap.obj
 0002:0000f990       ??_C@_0EI@FPKJJGOE@RVO?3?3Vector2?5?$CK?$HMstd?3?3vector?$DM?5RVO?3@ 0000000180041990     libRVO_wrap.obj
 0002:0000f9d8       ??_C@_07HDHHMDOH@_p_char?$AA@ 00000001800419d8     libRVO_wrap.obj
 0002:0000f9e0       ??_C@_06OCIEHOM@char?5?$CK?$AA@ 00000001800419e0     libRVO_wrap.obj
 0002:0000f9e8       ??_C@_0N@LDBLPANI@_p_size_type?$AA@ 00000001800419e8     libRVO_wrap.obj
 0002:0000f9f8       ??_C@_0M@BBPIDHPO@size_type?5?$CK?$AA@ 00000001800419f8     libRVO_wrap.obj
 0002:0000fa08       ??_C@_0BH@LAMFAOPM@_p_std__vectorT_Line_t?$AA@ 0000000180041a08     libRVO_wrap.obj
 0002:0000fa20       ??_C@_0BL@DKDGPLGJ@std?3?3vector?$DM?5RVO?3?3Line?5?$DO?5?$CK?$AA@ 0000000180041a20     libRVO_wrap.obj
 0002:0000fa40       ??_C@_0BM@OJLPDNCD@_p_std__vectorT_RVO__Line_t?$AA@ 0000000180041a40     libRVO_wrap.obj
 0002:0000fa60       ??_C@_0DG@OGFKJHHN@p_std__vectorT_RVO__Line_t?$HMstd?3?3@ 0000000180041a60     libRVO_wrap.obj
 0002:0000fa98       ??_C@_0BP@HKICGJDF@_p_std__vectorT_RVO__Vector2_t?$AA@ 0000000180041a98     libRVO_wrap.obj
 0002:0000fab8       ??_C@_0DM@PBJOOJEL@std?3?3vector?$DM?5RVO?3?3Vector2?5?$DO?5?$CK?$HMp_@ 0000000180041ab8     libRVO_wrap.obj
 0002:0000faf8       ??_C@_0BJ@PKLMMFBA@_p_std__vectorT_double_t?$AA@ 0000000180041af8     libRVO_wrap.obj
 0002:0000fb18       ??_C@_0DA@MKIGGOEF@p_std__vectorT_double_t?$HMstd?3?3vec@ 0000000180041b18     libRVO_wrap.obj
 0002:0000fb48       ??_C@_0BG@MHJHAJBO@_p_std__vectorT_int_t?$AA@ 0000000180041b48     libRVO_wrap.obj
 0002:0000fb60       ??_C@_0CK@DDNLCPEP@p_std__vectorT_int_t?$HMstd?3?3vector@ 0000000180041b60     libRVO_wrap.obj
 0002:0000fb90       ??_C@_0O@KPNNNNNL@_p_value_type?$AA@ 0000000180041b90     libRVO_wrap.obj
 0002:0000fba0       ??_C@_0N@BPDHJAOG@value_type?5?$CK?$AA@ 0000000180041ba0     libRVO_wrap.obj
 0002:0000fbb0       ??_C@_1CG@NDPGPPFE@?$AA?4?$AA?4?$AA?2?$AAl?$AAi?$AAb?$AAR?$AAV?$AAO?$AA_?$AAw?$AAr?$AAa?$AAp?$AA?4?$AAc?$AAx?$AAx?$AA?$AA@ 0000000180041bb0     libRVO_wrap.obj
 0002:0000fbd8       ??_C@_1BO@JIBCDDOI@?$AA?$CB?$AAm?$AAo?$AAd?$AA?4?$AAI?$AAs?$AAE?$AAm?$AAp?$AAt?$AAy?$AA?$CI?$AA?$CJ?$AA?$AA@ 0000000180041bd8     libRVO_wrap.obj
 0002:0000fbf8       ??_C@_0BG@LOFDEA@swig_module_info_data?$AA@ 0000000180041bf8     libRVO_wrap.obj
 0002:0000fc10       ??_C@_17GHAIJGMG@?$AAp?$AAt?$AAr?$AA?$AA@ 0000000180041c10     libRVO_wrap.obj
 0002:0000fc18       ??_C@_1O@JHMDHJHK@?$AAr?$AAe?$AAt?$AAp?$AAt?$AAr?$AA?$AA@ 0000000180041c18     libRVO_wrap.obj
 0002:0000fc28       ??_C@_09BDOHGKHP@SwigProxy?$AA@ 0000000180041c28     libRVO_wrap.obj
 0002:0000fc38       ??_C@_0BB@NEAOBIEO@_exports_Vector2?$AA@ 0000000180041c38     libRVO_wrap.obj
 0002:0000fc50       ??_C@_0P@LPJHJBDM@_exports_Agent?$AA@ 0000000180041c50     libRVO_wrap.obj
 0002:0000fc60       ??_C@_0BC@NFPFBBLB@_exports_Obstacle?$AA@ 0000000180041c60     libRVO_wrap.obj
 0002:0000fc78       ??_C@_0BA@IONEOJEC@_exports_KdTree?$AA@ 0000000180041c78     libRVO_wrap.obj
 0002:0000fc88       ??_C@_0O@OHHGBKLO@_exports_Line?$AA@ 0000000180041c88     libRVO_wrap.obj
 0002:0000fc98       ??_C@_0BG@CJDLBPBG@_exports_RVOSimulator?$AA@ 0000000180041c98     libRVO_wrap.obj
 0002:0000fcb0       ??_C@_0BB@HEDHPOIH@_exports_vectori?$AA@ 0000000180041cb0     libRVO_wrap.obj
 0002:0000fcc8       ??_C@_0BB@MBJJIAMK@_exports_vectord?$AA@ 0000000180041cc8     libRVO_wrap.obj
 0002:0000fce0       ??_C@_0BE@CPFCKHM@_exports_vectorline?$AA@ 0000000180041ce0     libRVO_wrap.obj
 0002:0000fcf8       ??_C@_0BG@KCOKJNAA@_exports_vectorvector?$AA@ 0000000180041cf8     libRVO_wrap.obj
 0002:0000fd10       ??_C@_01FJMABOPO@x?$AA@    0000000180041d10     libRVO_wrap.obj
 0002:0000fd14       ??_C@_01EANLCPLP@y?$AA@    0000000180041d14     libRVO_wrap.obj
 0002:0000fd18       ??_C@_03IMIFIBCN@mul?$AA@  0000000180041d18     libRVO_wrap.obj
 0002:0000fd1c       ??_C@_03FEJMGOGI@div?$AA@  0000000180041d1c     libRVO_wrap.obj
 0002:0000fd20       ??_C@_03BDGOHNNK@add?$AA@  0000000180041d20     libRVO_wrap.obj
 0002:0000fd24       ??_C@_03KCMAIMAP@sub?$AA@  0000000180041d24     libRVO_wrap.obj
 0002:0000fd28       ??_C@_08NLCAHAPK@notEqual?$AA@ 0000000180041d28     libRVO_wrap.obj
 0002:0000fd38       ??_C@_08MMOCDOEL@multiply?$AA@ 0000000180041d38     libRVO_wrap.obj
 0002:0000fd44       ??_C@_06FFHJEHBN@divide?$AA@ 0000000180041d44     libRVO_wrap.obj
 0002:0000fd4c       ??_C@_06JOFOFINC@adding?$AA@ 0000000180041d4c     libRVO_wrap.obj
 0002:0000fd58       ??_C@_08LJLIHDOM@subtract?$AA@ 0000000180041d58     libRVO_wrap.obj
 0002:0000fd68       ??_C@_0M@FPJEBCEC@RVO_EPSILON?$AA@ 0000000180041d68     libRVO_wrap.obj
 0002:0000fd78       ??_C@_09KPFIFGJ@RVO_ERROR?$AA@ 0000000180041d78     libRVO_wrap.obj
 0002:0000fd84       ??_C@_05BBEJFBFA@point?$AA@ 0000000180041d84     libRVO_wrap.obj
 0002:0000fd90       ??_C@_09HPKLLIJF@direction?$AA@ 0000000180041d90     libRVO_wrap.obj
 0002:0000fda0       ??_C@_08JDECJHHM@addAgent?$AA@ 0000000180041da0     libRVO_wrap.obj
 0002:0000fdb0       ??_C@_0M@FIMBNIA@addObstacle?$AA@ 0000000180041db0     libRVO_wrap.obj
 0002:0000fdbc       ??_C@_06BOAFAHBF@doStep?$AA@ 0000000180041dbc     libRVO_wrap.obj
 0002:0000fdc8       ??_C@_0BG@JAPANCKF@getAgentAgentNeighbor?$AA@ 0000000180041dc8     libRVO_wrap.obj
 0002:0000fde0       ??_C@_0BF@BFNBAEAN@getAgentMaxNeighbors?$AA@ 0000000180041de0     libRVO_wrap.obj
 0002:0000fdf8       ??_C@_0BB@JEDOGDOK@getAgentMaxSpeed?$AA@ 0000000180041df8     libRVO_wrap.obj
 0002:0000fe10       ??_C@_0BF@GPMDINLO@getAgentNeighborDist?$AA@ 0000000180041e10     libRVO_wrap.obj
 0002:0000fe28       ??_C@_0BK@INMMJMNP@getAgentNumAgentNeighbors?$AA@ 0000000180041e28     libRVO_wrap.obj
 0002:0000fe48       ??_C@_0BN@NADGNABK@getAgentNumObstacleNeighbors?$AA@ 0000000180041e48     libRVO_wrap.obj
 0002:0000fe68       ??_C@_0BF@FDNFMGHF@getAgentNumORCALines?$AA@ 0000000180041e68     libRVO_wrap.obj
 0002:0000fe80       ??_C@_0BJ@MIFJIDPI@getAgentObstacleNeighbor?$AA@ 0000000180041e80     libRVO_wrap.obj
 0002:0000fea0       ??_C@_0BB@GOLJHJFF@getAgentORCALine?$AA@ 0000000180041ea0     libRVO_wrap.obj
 0002:0000feb8       ??_C@_0BB@DDPDNAOL@getAgentPosition?$AA@ 0000000180041eb8     libRVO_wrap.obj
 0002:0000fed0       ??_C@_0BF@BNOMFIAD@getAgentPrefVelocity?$AA@ 0000000180041ed0     libRVO_wrap.obj
 0002:0000fee8       ??_C@_0P@NBCKPOBA@getAgentRadius?$AA@ 0000000180041ee8     libRVO_wrap.obj
 0002:0000fef8       ??_C@_0BE@DEHGNOCJ@getAgentTimeHorizon?$AA@ 0000000180041ef8     libRVO_wrap.obj
 0002:0000ff10       ??_C@_0BI@FEJEEIKA@getAgentTimeHorizonObst?$AA@ 0000000180041f10     libRVO_wrap.obj
 0002:0000ff28       ??_C@_0BB@FBNGDJAG@getAgentVelocity?$AA@ 0000000180041f28     libRVO_wrap.obj
 0002:0000ff40       ??_C@_0O@FHLHOPFF@getGlobalTime?$AA@ 0000000180041f40     libRVO_wrap.obj
 0002:0000ff50       ??_C@_0N@CGOEIIGK@getNumAgents?$AA@ 0000000180041f50     libRVO_wrap.obj
 0002:0000ff60       ??_C@_0BH@BEFHNMDO@getNumObstacleVertices?$AA@ 0000000180041f60     libRVO_wrap.obj
 0002:0000ff78       ??_C@_0BC@JOPAPJOO@getObstacleVertex?$AA@ 0000000180041f78     libRVO_wrap.obj
 0002:0000ff90       ??_C@_0BI@DLPFBFMP@getNextObstacleVertexNo?$AA@ 0000000180041f90     libRVO_wrap.obj
 0002:0000ffa8       ??_C@_0BI@IDOBMGJD@getPrevObstacleVertexNo?$AA@ 0000000180041fa8     libRVO_wrap.obj
 0002:0000ffc0       ??_C@_0M@KOEOEJEE@getTimeStep?$AA@ 0000000180041fc0     libRVO_wrap.obj
 0002:0000ffd0       ??_C@_0BB@MKLIFJBP@processObstacles?$AA@ 0000000180041fd0     libRVO_wrap.obj
 0002:0000ffe8       ??_C@_0BA@DOMDOBO@queryVisibility?$AA@ 0000000180041fe8     libRVO_wrap.obj
 0002:0000fff8       ??_C@_0BB@LFCKJOH@setAgentDefaults?$AA@ 0000000180041ff8     libRVO_wrap.obj
 0002:00010010       ??_C@_0BF@EMMMBCFK@setAgentMaxNeighbors?$AA@ 0000000180042010     libRVO_wrap.obj
 0002:00010028       ??_C@_0BB@PAGHNNFI@setAgentMaxSpeed?$AA@ 0000000180042028     libRVO_wrap.obj
 0002:00010040       ??_C@_0BF@DGNOJLOJ@setAgentNeighborDist?$AA@ 0000000180042040     libRVO_wrap.obj
 0002:00010058       ??_C@_0BB@FHKKGOFJ@setAgentPosition?$AA@ 0000000180042058     libRVO_wrap.obj
 0002:00010070       ??_C@_0BF@EEPBEOFE@setAgentPrefVelocity?$AA@ 0000000180042070     libRVO_wrap.obj
 0002:00010088       ??_C@_0P@BPDEAEDM@setAgentRadius?$AA@ 0000000180042088     libRVO_wrap.obj
 0002:00010098       ??_C@_0BE@JKFNJOFF@setAgentTimeHorizon?$AA@ 0000000180042098     libRVO_wrap.obj
 0002:000100b0       ??_C@_0BI@ECPJKJMC@setAgentTimeHorizonObst?$AA@ 00000001800420b0     libRVO_wrap.obj
 0002:000100c8       ??_C@_0BB@DFIPIHLE@setAgentVelocity?$AA@ 00000001800420c8     libRVO_wrap.obj
 0002:000100e0       ??_C@_0M@KBFAJPMH@setTimeStep?$AA@ 00000001800420e0     libRVO_wrap.obj
 0002:000100ec       ??_C@_04IAGNFIBA@size?$AA@ 00000001800420ec     libRVO_wrap.obj
 0002:000100f8       ??_C@_08HKCAENOG@capacity?$AA@ 00000001800420f8     libRVO_wrap.obj
 0002:00010108       ??_C@_07PIICLBHM@reserve?$AA@ 0000000180042108     libRVO_wrap.obj
 0002:00010110       ??_C@_07HAPENLDM@isEmpty?$AA@ 0000000180042110     libRVO_wrap.obj
 0002:00010118       ??_C@_05MEHLAELG@clear?$AA@ 0000000180042118     libRVO_wrap.obj
 0002:00010120       ??_C@_03HNAFFKGA@get?$AA@  0000000180042120     libRVO_wrap.obj
 0002:00010124       ??_C@_03KCHOJKKI@set?$AA@  0000000180042124     libRVO_wrap.obj
 0002:00010128       ??_C@_07ILGIINHE@Vector2?$AA@ 0000000180042128     libRVO_wrap.obj
 0002:00010130       ??_C@_05KEMJHBCB@Agent?$AA@ 0000000180042130     libRVO_wrap.obj
 0002:00010138       ??_C@_08BDKGKOJG@Obstacle?$AA@ 0000000180042138     libRVO_wrap.obj
 0002:00010144       ??_C@_06ONMJNLHL@KdTree?$AA@ 0000000180042144     libRVO_wrap.obj
 0002:0001014c       ??_C@_04LIDDHMOL@Line?$AA@ 000000018004214c     libRVO_wrap.obj
 0002:00010158       ??_C@_0N@DJENFIKO@RVOSimulator?$AA@ 0000000180042158     libRVO_wrap.obj
 0002:00010168       ??_C@_07CLFBGLLN@vectori?$AA@ 0000000180042168     libRVO_wrap.obj
 0002:00010170       ??_C@_07JOPPBFPA@vectord?$AA@ 0000000180042170     libRVO_wrap.obj
 0002:00010178       ??_C@_0L@IDOOPAFH@vectorline?$AA@ 0000000180042178     libRVO_wrap.obj
 0002:00010188       ??_C@_0N@LCJMNKLI@vectorvector?$AA@ 0000000180042188     libRVO_wrap.obj
 0002:00010198       ??_C@_03BCGAIFPO@abs?$AA@  0000000180042198     libRVO_wrap.obj
 0002:0001019c       ??_C@_05EPDDHBKC@absSq?$AA@ 000000018004219c     libRVO_wrap.obj
 0002:000101a4       ??_C@_03GPLAPFIO@det?$AA@  00000001800421a4     libRVO_wrap.obj
 0002:000101a8       ??_C@_09MMDNNKKJ@normalize?$AA@ 00000001800421a8     libRVO_wrap.obj
 0002:000101b8       ??_C@_0BH@CPALMLFG@distSqPointLineSegment?$AA@ 00000001800421b8     libRVO_wrap.obj
 0002:000101d0       ??_C@_06MMPCCLAD@leftOf?$AA@ 00000001800421d0     libRVO_wrap.obj
 0002:000101d8       ??_C@_03OPALDGIC@sqr?$AA@  00000001800421d8     libRVO_wrap.obj
 0002:000101e0       ??_C@_0P@FIJMBJKA@linearProgram1?$AA@ 00000001800421e0     libRVO_wrap.obj
 0002:000101f0       ??_C@_0P@HDLBEKGD@linearProgram2?$AA@ 00000001800421f0     libRVO_wrap.obj
 0002:00010200       ??_C@_0P@GKKKHLCC@linearProgram3?$AA@ 0000000180042200     libRVO_wrap.obj
 0002:00010210       ??_C@_0BD@MKPLBDPB@?4?4?2libRVO_wrap?4cxx?$AA@ 0000000180042210     libRVO_wrap.obj
 0002:00010224       ??_C@_06JMFILKEO@libRVO?$AA@ 0000000180042224     libRVO_wrap.obj
 0002:00010230       ??_C@_0BD@OLBABOEK@vector?$DMT?$DO?5too?5long?$AA@ 0000000180042230     libRVO_wrap.obj
 0002:00010248       ??_7OverloadErrorHandler@@6B@ 0000000180042248     libRVO_wrap.obj
 0002:00010258       ??_7exception@stdext@@6B@  0000000180042258     libRVO_wrap.obj
 0002:00010270       ??_7V8ErrorHandler@@6B@    0000000180042270     libRVO_wrap.obj
 0002:00010280       ??_C@_08HCOMDCCD@iojs?4exe?$AA@ 0000000180042280     win_delay_load_hook.obj
 0002:00010290       ??_C@_08JDDNMFDB@node?4exe?$AA@ 0000000180042290     win_delay_load_hook.obj
 0002:000102a0       __pfnDliNotifyHook2        00000001800422a0     win_delay_load_hook.obj
 0002:000103e8       __real@3727c5ac            00000001800423e8     Agent.obj
 0002:000103f0       __real@3ee4f8b580000000    00000001800423f0     libRVO_wrap.obj
 0002:000103f8       __real@3f000000            00000001800423f8     KdTree.obj
 0002:000103fc       __real@3f800000            00000001800423fc     libRVO_wrap.obj
 0002:00010400       __real@47efffffe0000000    0000000180042400     libRVO_wrap.obj
 0002:00010408       __real@7f800000            0000000180042408     Agent.obj
 0002:0001040c       __real@b727c5ac            000000018004240c     KdTree.obj
 0002:00010410       __real@c7efffffe0000000    0000000180042410     libRVO_wrap.obj
 0002:00010420       __xmm@7fffffffffffffff7fffffffffffffff 0000000180042420     Agent.obj
 0002:00010430       __xmm@80000000800000008000000080000000 0000000180042430     libRVO_wrap.obj
 0002:000104d8       _pDestructExceptionObject  00000001800424d8     libvcruntime:frame.obj
 0002:000104e8       ??_7bad_exception@std@@6B@ 00000001800424e8     libvcruntime:frame.obj
 0002:000104f8       ??_C@_0O@DPKOEFFH@bad?5exception?$AA@ 00000001800424f8     libvcruntime:frame.obj
 0002:00010508       ??_C@_05KGFAIMPG@sqrtf?$AA@ 0000000180042508     libucrt:sqrtf.obj
 0002:00010568       ??_R4exception@std@@6B@    0000000180042568     libcpmt:xthrow.obj
 0002:00010590       ??_R3exception@std@@8      0000000180042590     libcpmt:xthrow.obj
 0002:000105a8       ??_R2exception@std@@8      00000001800425a8     libcpmt:xthrow.obj
 0002:000105b8       ??_R1A@?0A@EA@exception@std@@8 00000001800425b8     libcpmt:xthrow.obj
 0002:000105e0       ??_R4bad_alloc@std@@6B@    00000001800425e0     libcpmt:xthrow.obj
 0002:00010608       ??_R3bad_alloc@std@@8      0000000180042608     libcpmt:xthrow.obj
 0002:00010620       ??_R2bad_alloc@std@@8      0000000180042620     libcpmt:xthrow.obj
 0002:00010638       ??_R1A@?0A@EA@bad_alloc@std@@8 0000000180042638     libcpmt:xthrow.obj
 0002:00010660       ??_R4logic_error@std@@6B@  0000000180042660     libcpmt:xthrow.obj
 0002:00010688       ??_R3logic_error@std@@8    0000000180042688     libcpmt:xthrow.obj
 0002:000106a0       ??_R2logic_error@std@@8    00000001800426a0     libcpmt:xthrow.obj
 0002:000106b8       ??_R1A@?0A@EA@logic_error@std@@8 00000001800426b8     libcpmt:xthrow.obj
 0002:000106e0       ??_R4length_error@std@@6B@ 00000001800426e0     libcpmt:xthrow.obj
 0002:00010708       ??_R3length_error@std@@8   0000000180042708     libcpmt:xthrow.obj
 0002:00010720       ??_R2length_error@std@@8   0000000180042720     libcpmt:xthrow.obj
 0002:00010740       ??_R1A@?0A@EA@length_error@std@@8 0000000180042740     libcpmt:xthrow.obj
 0002:00010768       ??_R4out_of_range@std@@6B@ 0000000180042768     libcpmt:xthrow.obj
 0002:00010790       ??_R3out_of_range@std@@8   0000000180042790     libcpmt:xthrow.obj
 0002:000107a8       ??_R2out_of_range@std@@8   00000001800427a8     libcpmt:xthrow.obj
 0002:000107c8       ??_R1A@?0A@EA@out_of_range@std@@8 00000001800427c8     libcpmt:xthrow.obj
 0002:000107f0       ??_R4type_info@@6B@        00000001800427f0     LIBCMT:std_type_info_static.obj
 0002:00010818       ??_R3type_info@@8          0000000180042818     LIBCMT:std_type_info_static.obj
 0002:00010830       ??_R2type_info@@8          0000000180042830     LIBCMT:std_type_info_static.obj
 0002:00010840       ??_R1A@?0A@EA@type_info@@8 0000000180042840     LIBCMT:std_type_info_static.obj
 0002:00010868       ??_R4bad_array_new_length@std@@6B@ 0000000180042868     LIBCMT:throw_bad_alloc.obj
 0002:00010890       ??_R3bad_array_new_length@std@@8 0000000180042890     LIBCMT:throw_bad_alloc.obj
 0002:000108a8       ??_R2bad_array_new_length@std@@8 00000001800428a8     LIBCMT:throw_bad_alloc.obj
 0002:000108c8       ??_R1A@?0A@EA@bad_array_new_length@std@@8 00000001800428c8     LIBCMT:throw_bad_alloc.obj
 0002:000108f0       ??_R4bad_exception@std@@6B@ 00000001800428f0     libvcruntime:frame.obj
 0002:00010918       ??_R3bad_exception@std@@8  0000000180042918     libvcruntime:frame.obj
 0002:00010930       ??_R2bad_exception@std@@8  0000000180042930     libvcruntime:frame.obj
 0002:00010948       ??_R1A@?0A@EA@bad_exception@std@@8 0000000180042948     libvcruntime:frame.obj
 0002:00010d58       __rtc_iaa                  0000000180042d58     LIBCMT:_initsect_.obj
 0002:00010d60       __rtc_izz                  0000000180042d60     LIBCMT:_initsect_.obj
 0002:00010d68       __rtc_taa                  0000000180042d68     LIBCMT:_initsect_.obj
 0002:00010d70       __rtc_tzz                  0000000180042d70     LIBCMT:_initsect_.obj
 0002:00013130       _TI2?AVbad_alloc@std@@     0000000180045130     libcpmt:xthrow.obj
 0002:00013150       _CTA2?AVbad_alloc@std@@    0000000180045150     libcpmt:xthrow.obj
 0002:00013168       _CT??_R0?AVbad_alloc@std@@@8??0bad_alloc@std@@QEAA@AEBV01@@Z24 0000000180045168     libcpmt:xthrow.obj
 0002:00013190       _CT??_R0?AVexception@std@@@8??0exception@std@@QEAA@AEBV01@@Z24 0000000180045190     libcpmt:xthrow.obj
 0002:000131b8       _CT??_R0?AVlogic_error@std@@@8??0logic_error@std@@QEAA@AEBV01@@Z24 00000001800451b8     libcpmt:xthrow.obj
 0002:000131e0       _TI3?AVlength_error@std@@  00000001800451e0     libcpmt:xthrow.obj
 0002:00013200       _CTA3?AVlength_error@std@@ 0000000180045200     libcpmt:xthrow.obj
 0002:00013220       _CT??_R0?AVlength_error@std@@@8??0length_error@std@@QEAA@AEBV01@@Z24 0000000180045220     libcpmt:xthrow.obj
 0002:00013248       _TI3?AVbad_array_new_length@std@@ 0000000180045248     LIBCMT:throw_bad_alloc.obj
 0002:00013268       _CTA3?AVbad_array_new_length@std@@ 0000000180045268     LIBCMT:throw_bad_alloc.obj
 0002:00013288       _CT??_R0?AVbad_array_new_length@std@@@8??0bad_array_new_length@std@@QEAA@AEBV01@@Z24 0000000180045288     LIBCMT:throw_bad_alloc.obj
 0002:000132b0       _TI3?AVout_of_range@std@@  00000001800452b0     libRVO_wrap.obj
 0002:000132d0       _CT??_R0?AVout_of_range@std@@@816 00000001800452d0     libRVO_wrap.obj
 0002:000132f8       _CTA3?AVout_of_range@std@@ 00000001800452f8     libRVO_wrap.obj
 0002:00013318       _CT??_R0?AVlogic_error@std@@@816 0000000180045318     libRVO_wrap.obj
 0002:00013340       _CT??_R0?AVexception@stdext@@@816 0000000180045340     libRVO_wrap.obj
 0002:00013368       _TI2?AVbad_exception@std@@ 0000000180045368     libvcruntime:frame.obj
 0002:00013388       _CTA2?AVbad_exception@std@@ 0000000180045388     libvcruntime:frame.obj
 0002:000133a0       _CT??_R0?AVbad_exception@std@@@8??0bad_exception@std@@QEAA@AEBV01@@Z24 00000001800453a0     libvcruntime:frame.obj
 0002:000133c4       __DELAY_IMPORT_DESCRIPTOR_node_exe 00000001800453c4     node:node.exe
 0002:000133e4       __NULL_DELAY_IMPORT_DESCRIPTOR 00000001800453e4     node:node.exe
 0002:00013590       \177node_NULL_THUNK_DATA_DLN 0000000180045590     node:node.exe
 0002:00014368       \177node_NULL_THUNK_DATA_DLB 0000000180046368     node:node.exe
 0002:00014540       __IMPORT_DESCRIPTOR_KERNEL32 0000000180046540     kernel32:KERNEL32.dll
 0002:00014554       __NULL_IMPORT_DESCRIPTOR   0000000180046554     kernel32:KERNEL32.dll
 0003:00000000       __scrt_native_dllmain_reason 0000000180047000     LIBCMT:utility.obj
 0003:00000008       __security_cookie          0000000180047008     LIBCMT:gs_cookie.obj
 0003:00000010       __security_cookie_complement 0000000180047010     LIBCMT:gs_cookie.obj
 0003:00000018       __isa_available            0000000180047018     LIBCMT:_cpu_disp_.obj
 0003:0000001c       __isa_enabled              000000018004701c     LIBCMT:_cpu_disp_.obj
 0003:00000020       __memcpy_nt_iters          0000000180047020     LIBCMT:_cpu_disp_.obj
 0003:00000040       __abort_behavior           0000000180047040     libucrt:abort.obj
 0003:00000050       _iob                       0000000180047050     libucrt:_file.obj
 0003:00000160       __acrt_initial_locale_data 0000000180047160     libucrt:nlsdata.obj
 0003:000002b8       __acrt_initial_locale_pointers 00000001800472b8     libucrt:nlsdata.obj
 0003:000002c8       __acrt_wide_c_locale_string 00000001800472c8     libucrt:nlsdata.obj
 0003:000002d0       __badioinfo                00000001800472d0     libucrt:ioinit.obj
 0003:00000310       __acrt_initial_multibyte_data 0000000180047310     libucrt:mbctype.obj
 0003:00000538       __acrt_current_multibyte_data 0000000180047538     libucrt:mbctype.obj
 0003:00000640       _mbctype                   0000000180047640     libucrt:mbctype.obj
 0003:00000750       _mbcasemap                 0000000180047750     libucrt:mbctype.obj
 0003:00000850       _pwctype                   0000000180047850     libucrt:ctype.obj
 0003:00000858       __globallocalestatus       0000000180047858     libucrt:glstatus.obj
 0003:00000860       __acrt_lconv_c             0000000180047860     libucrt:localeconv.obj
 0003:000008f8       __acrt_lconv_static_decimal 00000001800478f8     libucrt:localeconv.obj
 0003:000008fc       __acrt_lconv_static_W_decimal 00000001800478fc     libucrt:localeconv.obj
 0003:00000910       __dcrt_lowio_console_output_handle 0000000180047910     libucrt:initcon.obj
 0003:00000924       _fltused                   0000000180047924     LIBCMT:fltused.obj
 0003:000010b0       ??_R0?AVbad_alloc@std@@@8  00000001800480b0     libcpmt:xthrow.obj
 0003:000010d8       ??_R0?AVexception@std@@@8  00000001800480d8     libcpmt:xthrow.obj
 0003:00001100       ??_R0?AVlength_error@std@@@8 0000000180048100     libcpmt:xthrow.obj
 0003:00001128       ??_R0?AVtype_info@@@8      0000000180048128     LIBCMT:std_type_info_static.obj
 0003:00001148       ??_R0?AVbad_array_new_length@std@@@8 0000000180048148     LIBCMT:throw_bad_alloc.obj
 0003:00001178       ??_R0?AVexception@stdext@@@8 0000000180048178     libRVO_wrap.obj
 0003:000011a0       ??_R0?AVlogic_error@std@@@8 00000001800481a0     libRVO_wrap.obj
 0003:000011c8       ??_R0?AVout_of_range@std@@@8 00000001800481c8     libRVO_wrap.obj
 0003:000011f0       ??_R0?AVbad_exception@std@@@8 00000001800481f0     libvcruntime:frame.obj
 0003:00001218       __imp_?Global@Context@v8@@QEAA?AV?$Local@VObject@v8@@@2@XZ 0000000180048218     node:node.exe
 0003:00001220       __imp_?Value@External@v8@@QEBAPEAXXZ 0000000180048220     node:node.exe
 0003:00001228       __imp_?New@External@v8@@SA?AV?$Local@VExternal@v8@@@2@PEAVIsolate@2@PEAX@Z 0000000180048228     node:node.exe
 0003:00001230       __imp_?NewFromUnsigned@Integer@v8@@SA?AV?$Local@VInteger@v8@@@2@PEAVIsolate@2@I@Z 0000000180048230     node:node.exe
 0003:00001238       __imp_?New@Integer@v8@@SA?AV?$Local@VInteger@v8@@@2@PEAVIsolate@2@H@Z 0000000180048238     node:node.exe
 0003:00001240       __imp_?ReportExternalAllocationLimitReached@Isolate@v8@@AEAAXXZ 0000000180048240     node:node.exe
 0003:00001248       __imp_?ThrowException@Isolate@v8@@QEAA?AV?$Local@VValue@v8@@@2@V32@@Z 0000000180048248     node:node.exe
 0003:00001250       __imp_?GetCurrentContext@Isolate@v8@@QEAA?AV?$Local@VContext@v8@@@2@XZ 0000000180048250     node:node.exe
 0003:00001258       __imp_?GetCurrent@Isolate@v8@@SAPEAV12@XZ 0000000180048258     node:node.exe
 0003:00001260       __imp_?CreateHandle@HandleScope@v8@@KAPEAPEAVObject@internal@2@PEAVIsolate@42@PEAV342@@Z 0000000180048260     node:node.exe
 0003:00001268       __imp_??1HandleScope@v8@@QEAA@XZ 0000000180048268     node:node.exe
 0003:00001270       __imp_??0HandleScope@v8@@QEAA@PEAVIsolate@1@@Z 0000000180048270     node:node.exe
 0003:00001278       __imp_?Set@Template@v8@@QEAAXV?$Local@VName@v8@@@2@V?$Local@VData@v8@@@2@W4PropertyAttribute@2@@Z 0000000180048278     node:node.exe
 0003:00001280       __imp_?Error@Exception@v8@@SA?AV?$Local@VValue@v8@@@2@V?$Local@VString@v8@@@2@@Z 0000000180048280     node:node.exe
 0003:00001288       __imp_?SetHiddenPrototype@FunctionTemplate@v8@@QEAAX_N@Z 0000000180048288     node:node.exe
 0003:00001290       __imp_?SetClassName@FunctionTemplate@v8@@QEAAXV?$Local@VString@v8@@@2@@Z 0000000180048290     node:node.exe
 0003:00001298       __imp_?PrototypeTemplate@FunctionTemplate@v8@@QEAA?AV?$Local@VObjectTemplate@v8@@@2@XZ 0000000180048298     node:node.exe
 0003:000012a0       __imp_?Inherit@FunctionTemplate@v8@@QEAAXV?$Local@VFunctionTemplate@v8@@@2@@Z 00000001800482a0     node:node.exe
 0003:000012a8       __imp_?InstanceTemplate@FunctionTemplate@v8@@QEAA?AV?$Local@VObjectTemplate@v8@@@2@XZ 00000001800482a8     node:node.exe
 0003:000012b0       __imp_?SetCallHandler@FunctionTemplate@v8@@QEAAXP6AXAEBV?$FunctionCallbackInfo@VValue@v8@@@2@@ZV?$Local@VValue@v8@@@2@PEAVFastAccessorBuilder@experimental@2@@Z 00000001800482b0     node:node.exe
 0003:000012b8       __imp_?GetFunction@FunctionTemplate@v8@@QEAA?AV?$Local@VFunction@v8@@@2@XZ 00000001800482b8     node:node.exe
 0003:000012c0       __imp_?New@FunctionTemplate@v8@@SA?AV?$Local@VFunctionTemplate@v8@@@2@PEAVIsolate@2@P6AXAEBV?$FunctionCallbackInfo@VValue@v8@@@2@@ZV?$Local@VValue@v8@@@2@V?$Local@VSignature@v8@@@2@H@Z 00000001800482c0     node:node.exe
 0003:000012c8       __imp_?ClearWeak@V8@v8@@CAPEAXPEAPEAVObject@internal@2@@Z 00000001800482c8     node:node.exe
 0003:000012d0       __imp_?MakeWeak@V8@v8@@CAXPEAPEAVObject@internal@2@PEAXP6AXAEBV?$WeakCallbackData@VValue@v8@@X@2@@Z@Z 00000001800482d0     node:node.exe
 0003:000012d8       __imp_?DisposeGlobal@V8@v8@@CAXPEAPEAVObject@internal@2@@Z 00000001800482d8     node:node.exe
 0003:000012e0       __imp_?GlobalizeReference@V8@v8@@CAPEAPEAVObject@internal@2@PEAVIsolate@42@PEAPEAV342@@Z 00000001800482e0     node:node.exe
 0003:000012e8       __imp_?IntegerValue@Value@v8@@QEBA_JXZ 00000001800482e8     node:node.exe
 0003:000012f0       __imp_?NumberValue@Value@v8@@QEBANXZ 00000001800482f0     node:node.exe
 0003:000012f8       __imp_?BooleanValue@Value@v8@@QEBA_NXZ 00000001800482f8     node:node.exe
 0003:00001300       __imp_?IsNumber@Value@v8@@QEBA_NXZ 0000000180048300     node:node.exe
 0003:00001308       __imp_?IsBoolean@Value@v8@@QEBA_NXZ 0000000180048308     node:node.exe
 0003:00001310       __imp_?IsObject@Value@v8@@QEBA_NXZ 0000000180048310     node:node.exe
 0003:00001318       __imp_?Escape@EscapableHandleScope@v8@@AEAAPEAPEAVObject@internal@2@PEAPEAV342@@Z 0000000180048318     node:node.exe
 0003:00001320       __imp_??0EscapableHandleScope@v8@@QEAA@PEAVIsolate@1@@Z 0000000180048320     node:node.exe
 0003:00001328       __imp_?NewFromUtf8@String@v8@@SA?AV?$Local@VString@v8@@@2@PEAVIsolate@2@PEBDW4NewStringType@12@H@Z 0000000180048328     node:node.exe
 0003:00001330       __imp_?WriteUtf8@String@v8@@QEBAHPEADHPEAHH@Z 0000000180048330     node:node.exe
 0003:00001338       __imp_?New@Number@v8@@SA?AV?$Local@VNumber@v8@@@2@PEAVIsolate@2@N@Z 0000000180048338     node:node.exe
 0003:00001340       __imp_?SlowGetAlignedPointerFromInternalField@Object@v8@@AEAAPEAXH@Z 0000000180048340     node:node.exe
 0003:00001348       __imp_?GetHiddenValue@Object@v8@@QEAA?AV?$Local@VValue@v8@@@2@V?$Local@VString@v8@@@2@@Z 0000000180048348     node:node.exe
 0003:00001350       __imp_?SetHiddenValue@Object@v8@@QEAA_NV?$Local@VString@v8@@@2@V?$Local@VValue@v8@@@2@@Z 0000000180048350     node:node.exe
 0003:00001358       __imp_?SetAlignedPointerInInternalField@Object@v8@@QEAAXHPEAX@Z 0000000180048358     node:node.exe
 0003:00001360       __imp_?InternalFieldCount@Object@v8@@QEAAHXZ 0000000180048360     node:node.exe
 0003:00001368       __imp_?SetAccessor@Object@v8@@QEAA_NV?$Local@VString@v8@@@2@P6AX0AEBV?$PropertyCallbackInfo@VValue@v8@@@2@@ZP6AX0V?$Local@VValue@v8@@@2@AEBV?$PropertyCallbackInfo@X@2@@Z3W4AccessControl@2@W4PropertyAttribute@2@@Z 0000000180048368     node:node.exe
 0003:00001370       __imp_?Set@Object@v8@@QEAA_NV?$Local@VValue@v8@@@2@0@Z 0000000180048370     node:node.exe
 0003:00001378       __imp_?SetInternalFieldCount@ObjectTemplate@v8@@QEAAXH@Z 0000000180048378     node:node.exe
 0003:00001380       __imp_?SetAccessor@ObjectTemplate@v8@@QEAAXV?$Local@VString@v8@@@2@P6AX0AEBV?$PropertyCallbackInfo@VValue@v8@@@2@@ZP6AX0V?$Local@VValue@v8@@@2@AEBV?$PropertyCallbackInfo@X@2@@Z3W4AccessControl@2@W4PropertyAttribute@2@V?$Local@VAccessorSignature@v8@@@2@@Z 0000000180048380     node:node.exe
 0003:00001388       __imp_?NewInstance@ObjectTemplate@v8@@QEAA?AV?$Local@VObject@v8@@@2@XZ 0000000180048388     node:node.exe
 0003:00001390       __imp_node_module_register 0000000180048390     node:node.exe
 0003:00001398       __imp_?ToObject@Value@v8@@QEBA?AV?$Local@VObject@v8@@@2@XZ 0000000180048398     node:node.exe
 0003:000013a0       \177node_NULL_THUNK_DATA_DLA 00000001800483a0     node:node.exe
 0003:000013b0       __hmod__node_exe           00000001800483b0     node:node.exe
 0003:000013b8       __scrt_current_native_startup_state 00000001800483b8     LIBCMT:utility.obj
 0003:000013c0       __scrt_native_startup_lock 00000001800483c0     LIBCMT:utility.obj
 0003:00001970       __favor                    0000000180048970     LIBCMT:_cpu_disp_.obj
 0003:00001974       __scrt_debugger_hook_flag  0000000180048974     LIBCMT:utility_desktop.obj
 0003:00001980       ?__type_info_root_node@@3U__type_info_node@@A 0000000180048980     LIBCMT:tncleanup.obj
 0003:00001990       ?_OptionsStorage@?1??__local_stdio_scanf_options@@9@4_KA 0000000180048990     LIBCMT:default_local_stdio_options.obj
 0003:00001ab8       __pPurecall                0000000180048ab8     libvcruntime:purevirt_data.obj
 0003:00001ac0       ?pArgList@UnDecorator@@0PEAVReplicator@@EA 0000000180048ac0     libvcruntime:undname.obj
 0003:00001ac8       ?pZNameList@UnDecorator@@0PEAVReplicator@@EA 0000000180048ac8     libvcruntime:undname.obj
 0003:00001ad0       ?pTemplateArgList@UnDecorator@@0PEAVReplicator@@EA 0000000180048ad0     libvcruntime:undname.obj
 0003:00001ad8       ?gName@UnDecorator@@0PEBDEB 0000000180048ad8     libvcruntime:undname.obj
 0003:00001ae0       ?name@UnDecorator@@0PEBDEB 0000000180048ae0     libvcruntime:undname.obj
 0003:00001ae8       ?outputString@UnDecorator@@0PEADEA 0000000180048ae8     libvcruntime:undname.obj
 0003:00001af0       ?maxStringLength@UnDecorator@@0HA 0000000180048af0     libvcruntime:undname.obj
 0003:00001af4       ?disableFlags@UnDecorator@@0KA 0000000180048af4     libvcruntime:undname.obj
 0003:00001af8       ?fExplicitTemplateParams@UnDecorator@@0_NA 0000000180048af8     libvcruntime:undname.obj
 0003:00001af9       ?fGetTemplateArgumentList@UnDecorator@@0_NA 0000000180048af9     libvcruntime:undname.obj
 0003:00001b00       ?m_pGetParameter@UnDecorator@@0P6APEADJ@ZEA 0000000180048b00     libvcruntime:undname.obj
 0003:00001c68       _environ_table             0000000180048c68     libucrt:environment_initialization.obj
 0003:00001c70       _wenviron_table            0000000180048c70     libucrt:environment_initialization.obj
 0003:00001c78       __dcrt_initial_wide_environment 0000000180048c78     libucrt:environment_initialization.obj
 0003:00001c80       __dcrt_initial_narrow_environment 0000000180048c80     libucrt:environment_initialization.obj
 0003:00001c88       __acrt_atexit_table        0000000180048c88     libucrt:onexit.obj
 0003:00001ca0       __acrt_at_quick_exit_table 0000000180048ca0     libucrt:onexit.obj
 0003:00001cb8       _nstream                   0000000180048cb8     libucrt:_file.obj
 0003:00001cc0       __piob                     0000000180048cc0     libucrt:_file.obj
 0003:00001cc8       _cflush                    0000000180048cc8     libucrt:_file.obj
 0003:00001cd8       __acrt_stdout_buffer       0000000180048cd8     libucrt:_sftbuf.obj
 0003:00001ce0       __acrt_stderr_buffer       0000000180048ce0     libucrt:_sftbuf.obj
 0003:00001ce8       __acrt_locale_changed_data 0000000180048ce8     libucrt:wsetlocale.obj
 0003:00001cf0       __acrt_current_locale_data 0000000180048cf0     libucrt:nlsdata.obj
 0003:00001d00       __pioinfo                  0000000180048d00     libucrt:ioinit.obj
 0003:00002100       _nhandle                   0000000180049100     libucrt:ioinit.obj
 0003:000024e4       __mbcodepage               00000001800494e4     libucrt:mbctype.obj
 0003:000024e8       __ismbcodepage             00000001800494e8     libucrt:mbctype.obj
 0003:000024f0       __mbulinfo                 00000001800494f0     libucrt:mbctype.obj
 0003:00002500       __mblocalename             0000000180049500     libucrt:mbctype.obj
 0003:0000250c       __argc                     000000018004950c     libucrt:argv_data.obj
 0003:00002510       __argv                     0000000180049510     libucrt:argv_data.obj
 0003:00002518       __wargv                    0000000180049518     libucrt:argv_data.obj
 0003:00002520       _acmdln                    0000000180049520     libucrt:argv_data.obj
 0003:00002528       _wcmdln                    0000000180049528     libucrt:argv_data.obj
 0003:00002530       _pgmptr                    0000000180049530     libucrt:argv_data.obj
 0003:00002538       __acrt_heap                0000000180049538     libucrt:heap_handle.obj
 0003:0000254c       __acrt_lconv_static_null   000000018004954c     libucrt:localeconv.obj
 0003:00002550       __acrt_lconv_static_W_null 0000000180049550     libucrt:localeconv.obj
 0003:00002554       __fma3_is_available        0000000180049554     libucrt:fma3_available.obj
 0003:00002558       __use_fma3_lib             0000000180049558     libucrt:fma3_available.obj
 0003:00002560       ?DloadKernel32@@3PEAUHINSTANCE__@@EA 0000000180049560     DelayImp:delayhlp.obj
 0003:00002568       ?DloadAcquireSRWLockExclusive@@3P6AXPEA_K@ZEA 0000000180049568     DelayImp:delayhlp.obj
 0003:00002570       ?DloadReleaseSRWLockExclusive@@3P6AXPEA_K@ZEA 0000000180049570     DelayImp:delayhlp.obj
 0003:00002578       ?DloadSrwLock@@3_KA        0000000180049578     DelayImp:delayhlp.obj
 0003:00002580       ?DloadSectionLockCount@@3KA 0000000180049580     DelayImp:delayhlp.obj
 0003:00002584       ?DloadSectionOldProtection@@3KA 0000000180049584     DelayImp:delayhlp.obj
 0003:00002588       ?DloadSectionCommitPermanent@@3KA 0000000180049588     DelayImp:delayhlp.obj
 0003:00002590       ?_OptionsStorage@?1??__local_stdio_printf_options@@9@4_KA 0000000180049590     libRVO_wrap.obj
 0003:00002618       ?_exports_vectorline_clientData@@3VSWIGV8_ClientData@@A 0000000180049618     libRVO_wrap.obj
 0003:00002628       ?_exports_Agent_clientData@@3VSWIGV8_ClientData@@A 0000000180049628     libRVO_wrap.obj
 0003:00002638       ?_exports_KdTree_clientData@@3VSWIGV8_ClientData@@A 0000000180049638     libRVO_wrap.obj
 0003:00002650       ?_exports_vectorvector_clientData@@3VSWIGV8_ClientData@@A 0000000180049650     libRVO_wrap.obj
 0003:00002660       ?_exports_vectord_clientData@@3VSWIGV8_ClientData@@A 0000000180049660     libRVO_wrap.obj
 0003:00002670       ?_exports_vectori_clientData@@3VSWIGV8_ClientData@@A 0000000180049670     libRVO_wrap.obj
 0003:00002680       ?_exports_Line_clientData@@3VSWIGV8_ClientData@@A 0000000180049680     libRVO_wrap.obj
 0003:00002690       ?_exports_RVOSimulator_clientData@@3VSWIGV8_ClientData@@A 0000000180049690     libRVO_wrap.obj
 0003:000026a8       ?_exports_Obstacle_clientData@@3VSWIGV8_ClientData@@A 00000001800496a8     libRVO_wrap.obj
 0003:000026b8       ?_exports_Vector2_clientData@@3VSWIGV8_ClientData@@A 00000001800496b8     libRVO_wrap.obj
 0003:000026e8       ?id@?$num_put@DV?$ostreambuf_iterator@DU?$char_traits@D@std@@@std@@@std@@2V0locale@2@A 00000001800496e8     libRVO_wrap.obj
 0003:000026f0       ?id@?$numpunct@D@std@@2V0locale@2@A 00000001800496f0     libRVO_wrap.obj
 0003:000026f8       ?g_OutOfMemoryExceptionCallback@@3P6APEAXXZEA 00000001800496f8     libvcruntime:frame.obj
 0003:00002700       __dyn_tls_init_callback    0000000180049700     <common>
 0003:00002708       __scrt_ucrt_dll_is_in_use  0000000180049708     <common>

 entry point at        0001:0001bdc4

 Static symbols

 0000:fffb0000       .debug$S                   0000000180000000     kernel32:KERNEL32.dll
 0000:fffb0000       .debug$S                   0000000180000000     kernel32:KERNEL32.dll
 0000:fffb0000       .debug$S                   0000000180000000     kernel32:KERNEL32.dll
 0000:fffb0000       .debug$S                   0000000180000000     kernel32:KERNEL32.dll
 0000:fffb0000       .debug$S                   0000000180000000     node:node.exe
 0000:fffb0000       .debug$S                   0000000180000000     node:node.exe
 0000:fffb0000       .debug$S                   0000000180000000     node:node.exe
 0000:fffb0000       .debug$S                   0000000180000000     node:node.exe
 0000:fffb0000       .debug$S                   0000000180000000     kernel32:KERNEL32.dll
 0000:fffb0000       .debug$S                   0000000180000000     kernel32:KERNEL32.dll
 0000:fffb0000       .debug$S                   0000000180000000     kernel32:KERNEL32.dll
 0000:fffb0000       .debug$S                   0000000180000000     kernel32:KERNEL32.dll
 0000:fffb0000       .debug$S                   0000000180000000     kernel32:KERNEL32.dll
 0000:fffb0000       .debug$S                   0000000180000000     kernel32:KERNEL32.dll
 0000:fffb0000       .debug$S                   0000000180000000     kernel32:KERNEL32.dll
 0000:fffb0000       .debug$S                   0000000180000000     kernel32:KERNEL32.dll
 0000:fffb0000       .debug$S                   0000000180000000     node:node.exe
 0000:fffb0000       .debug$S                   0000000180000000     kernel32:KERNEL32.dll
 0000:fffb0000       .debug$S                   0000000180000000     node:node.exe
 0000:fffb0000       .debug$S                   0000000180000000     kernel32:KERNEL32.dll
 0000:fffb0000       .debug$S                   0000000180000000     node:node.exe
 0000:fffb0000       .debug$S                   0000000180000000     kernel32:KERNEL32.dll
 0000:fffb0000       .debug$S                   0000000180000000     libRVO.exp
 0000:fffb0000       .debug$S                   0000000180000000     kernel32:KERNEL32.dll
 0000:fffb0000       .debug$S                   0000000180000000     kernel32:KERNEL32.dll
 0000:fffb0000       .debug$S                   0000000180000000     kernel32:KERNEL32.dll
 0000:fffb0000       .debug$S                   0000000180000000     kernel32:KERNEL32.dll
 0000:fffb0000       .debug$S                   0000000180000000     kernel32:KERNEL32.dll
 0000:fffb0000       .debug$S                   0000000180000000     kernel32:KERNEL32.dll
 0000:fffb0000       .debug$S                   0000000180000000     kernel32:KERNEL32.dll
 0000:fffb0000       .debug$S                   0000000180000000     node:node.exe
 0000:fffb0000       .debug$S                   0000000180000000     kernel32:KERNEL32.dll
 0000:fffb0000       .debug$S                   0000000180000000     kernel32:KERNEL32.dll
 0000:fffb0000       .debug$S                   0000000180000000     node:node.exe
 0000:fffb0000       .debug$S                   0000000180000000     node:node.exe
 0000:fffb0000       .debug$S                   0000000180000000     node:node.exe
 0000:fffb0000       .debug$S                   0000000180000000     node:node.exe
 0000:fffb0000       .debug$S                   0000000180000000     node:node.exe
 0000:fffb0000       .debug$S                   0000000180000000     node:node.exe
 0000:fffb0000       .debug$S                   0000000180000000     kernel32:KERNEL32.dll
 0000:fffb0000       .debug$S                   0000000180000000     node:node.exe
 0000:fffb0000       .debug$S                   0000000180000000     node:node.exe
 0000:fffb0000       .debug$S                   0000000180000000     node:node.exe
 0000:fffb0000       .debug$S                   0000000180000000     node:node.exe
 0000:fffb0000       .debug$S                   0000000180000000     node:node.exe
 0000:fffb0000       .debug$S                   0000000180000000     node:node.exe
 0000:fffb0000       .debug$S                   0000000180000000     node:node.exe
 0000:fffb0000       .debug$S                   0000000180000000     node:node.exe
 0000:fffb0000       .debug$S                   0000000180000000     kernel32:KERNEL32.dll
 0000:fffb0000       .debug$S                   0000000180000000     node:node.exe
 0000:fffb0000       .debug$S                   0000000180000000     node:node.exe
 0000:fffb0000       .debug$S                   0000000180000000     node:node.exe
 0000:fffb0000       .debug$S                   0000000180000000     node:node.exe
 0000:fffb0000       .debug$S                   0000000180000000     node:node.exe
 0000:fffb0000       .debug$S                   0000000180000000     node:node.exe
 0000:fffb0000       .debug$S                   0000000180000000     node:node.exe
 0000:fffb0000       .debug$S                   0000000180000000     node:node.exe
 0000:fffb0000       .debug$S                   0000000180000000     node:node.exe
 0000:fffb0000       .debug$S                   0000000180000000     node:node.exe
 0000:fffb0000       .debug$S                   0000000180000000     node:node.exe
 0000:fffb0000       .debug$S                   0000000180000000     node:node.exe
 0000:fffb0000       .debug$S                   0000000180000000     node:node.exe
 0000:fffb0000       .debug$S                   0000000180000000     node:node.exe
 0000:fffb0000       .debug$S                   0000000180000000     node:node.exe
 0000:fffb0000       .debug$S                   0000000180000000     node:node.exe
 0000:fffb0000       .debug$S                   0000000180000000     node:node.exe
 0000:fffb0000       .debug$S                   0000000180000000     node:node.exe
 0000:fffb0000       .debug$S                   0000000180000000     node:node.exe
 0000:fffb0000       .debug$S                   0000000180000000     kernel32:KERNEL32.dll
 0000:fffb0000       .debug$S                   0000000180000000     node:node.exe
 0000:fffb0000       .debug$S                   0000000180000000     node:node.exe
 0000:fffb0000       .debug$S                   0000000180000000     node:node.exe
 0000:fffb0000       .debug$S                   0000000180000000     node:node.exe
 0000:fffb0000       .debug$S                   0000000180000000     node:node.exe
 0000:fffb0000       .debug$S                   0000000180000000     node:node.exe
 0000:fffb0000       .debug$S                   0000000180000000     node:node.exe
 0000:fffb0000       .debug$S                   0000000180000000     node:node.exe
 0000:fffb0000       .debug$S                   0000000180000000     node:node.exe
 0000:fffb0000       .debug$S                   0000000180000000     node:node.exe
 0000:fffb0000       .debug$S                   0000000180000000     node:node.exe
 0000:fffb0000       .debug$S                   0000000180000000     node:node.exe
 0000:fffb0000       .debug$S                   0000000180000000     kernel32:KERNEL32.dll
 0000:fffb0000       .debug$S                   0000000180000000     node:node.exe
 0000:fffb0000       .debug$S                   0000000180000000     node:node.exe
 0000:fffb0000       .debug$S                   0000000180000000     kernel32:KERNEL32.dll
 0000:fffb0000       .debug$S                   0000000180000000     kernel32:KERNEL32.dll
 0000:fffb0000       .debug$S                   0000000180000000     kernel32:KERNEL32.dll
 0000:fffb0000       .debug$S                   0000000180000000     kernel32:KERNEL32.dll
 0000:fffb0000       .debug$S                   0000000180000000     kernel32:KERNEL32.dll
 0000:fffb0000       .debug$S                   0000000180000000     kernel32:KERNEL32.dll
 0000:fffb0000       .debug$S                   0000000180000000     kernel32:KERNEL32.dll
 0000:fffb0000       .debug$S                   0000000180000000     kernel32:KERNEL32.dll
 0000:fffb0000       .debug$S                   0000000180000000     kernel32:KERNEL32.dll
 0000:fffb0000       .debug$S                   0000000180000000     kernel32:KERNEL32.dll
 0000:fffb0000       .debug$S                   0000000180000000     kernel32:KERNEL32.dll
 0000:fffb0000       .debug$S                   0000000180000000     kernel32:KERNEL32.dll
 0000:fffb0000       .debug$S                   0000000180000000     kernel32:KERNEL32.dll
 0000:fffb0000       .debug$S                   0000000180000000     kernel32:KERNEL32.dll
 0000:fffb0000       .debug$S                   0000000180000000     kernel32:KERNEL32.dll
 0000:fffb0000       .debug$S                   0000000180000000     kernel32:KERNEL32.dll
 0000:fffb0000       .debug$S                   0000000180000000     kernel32:KERNEL32.dll
 0000:fffb0000       .debug$S                   0000000180000000     kernel32:KERNEL32.dll
 0000:fffb0000       .debug$S                   0000000180000000     kernel32:KERNEL32.dll
 0000:fffb0000       .debug$S                   0000000180000000     kernel32:KERNEL32.dll
 0000:fffb0000       .debug$S                   0000000180000000     kernel32:KERNEL32.dll
 0000:fffb0000       .debug$S                   0000000180000000     kernel32:KERNEL32.dll
 0000:fffb0000       .debug$S                   0000000180000000     kernel32:KERNEL32.dll
 0000:fffb0000       .debug$S                   0000000180000000     kernel32:KERNEL32.dll
 0000:fffb0000       .debug$S                   0000000180000000     kernel32:KERNEL32.dll
 0000:fffb0000       .debug$S                   0000000180000000     kernel32:KERNEL32.dll
 0000:fffb0000       .debug$S                   0000000180000000     kernel32:KERNEL32.dll
 0000:fffb0000       .debug$S                   0000000180000000     kernel32:KERNEL32.dll
 0000:fffb0000       .debug$S                   0000000180000000     kernel32:KERNEL32.dll
 0000:fffb0000       .debug$S                   0000000180000000     kernel32:KERNEL32.dll
 0000:fffb0000       .debug$S                   0000000180000000     kernel32:KERNEL32.dll
 0000:fffb0000       .debug$S                   0000000180000000     kernel32:KERNEL32.dll
 0000:fffb0000       .debug$S                   0000000180000000     kernel32:KERNEL32.dll
 0000:fffb0000       .debug$S                   0000000180000000     kernel32:KERNEL32.dll
 0000:fffb0000       .debug$S                   0000000180000000     kernel32:KERNEL32.dll
 0000:fffb0000       .debug$S                   0000000180000000     kernel32:KERNEL32.dll
 0000:fffb0000       .debug$S                   0000000180000000     kernel32:KERNEL32.dll
 0000:fffb0000       .debug$S                   0000000180000000     kernel32:KERNEL32.dll
 0000:fffb0000       .debug$S                   0000000180000000     kernel32:KERNEL32.dll
 0000:fffb0000       .debug$S                   0000000180000000     kernel32:KERNEL32.dll
 0000:fffb0000       .debug$S                   0000000180000000     kernel32:KERNEL32.dll
 0000:fffb0000       .debug$S                   0000000180000000     kernel32:KERNEL32.dll
 0000:fffb0000       .debug$S                   0000000180000000     kernel32:KERNEL32.dll
 0000:fffb0000       .debug$S                   0000000180000000     kernel32:KERNEL32.dll
 0000:fffb0000       .debug$S                   0000000180000000     kernel32:KERNEL32.dll
 0000:fffb0000       .debug$S                   0000000180000000     kernel32:KERNEL32.dll
 0000:fffb0000       .debug$S                   0000000180000000     kernel32:KERNEL32.dll
 0000:fffb0000       .debug$S                   0000000180000000     kernel32:KERNEL32.dll
 0000:fffb0000       .debug$S                   0000000180000000     kernel32:KERNEL32.dll
 0000:fffb0000       .debug$S                   0000000180000000     kernel32:KERNEL32.dll
 0000:fffb0000       .debug$S                   0000000180000000     kernel32:KERNEL32.dll
 0000:fffb0000       .debug$S                   0000000180000000     kernel32:KERNEL32.dll
 0000:fffb0000       .debug$S                   0000000180000000     kernel32:KERNEL32.dll
 0000:fffb0000       .debug$S                   0000000180000000     kernel32:KERNEL32.dll
 0000:fffb0000       .debug$S                   0000000180000000     kernel32:KERNEL32.dll
 0000:fffb0000       .debug$S                   0000000180000000     kernel32:KERNEL32.dll
 0000:fffb0000       .debug$S                   0000000180000000     kernel32:KERNEL32.dll
 0000:fffb0000       .debug$S                   0000000180000000     kernel32:KERNEL32.dll
 0000:fffb0000       .debug$S                   0000000180000000     kernel32:KERNEL32.dll
 0000:fffb0000       .debug$S                   0000000180000000     kernel32:KERNEL32.dll
 0000:fffb0000       .debug$S                   0000000180000000     kernel32:KERNEL32.dll
 0000:fffb0000       .debug$S                   0000000180000000     kernel32:KERNEL32.dll
 0000:fffb0000       .debug$S                   0000000180000000     kernel32:KERNEL32.dll
 0000:fffb0000       .debug$S                   0000000180000000     kernel32:KERNEL32.dll
 0000:fffb0000       .debug$S                   0000000180000000     node:node.exe
 0001:00000000       ??__ESWIGV8_ErrorHandler@@YAXXZ 0000000180001000 f   libRVO_wrap.obj
 0001:00000010       ??__ESWIGV8_SWIGTYPE_Proxy_class_templ@@YAXXZ 0000000180001010 f   libRVO_wrap.obj
 0001:00000020       ??__E_exports_Vector2_clientData@@YAXXZ 0000000180001020 f   libRVO_wrap.obj
 0001:00000030       ??__E_exports_Agent_clientData@@YAXXZ 0000000180001030 f   libRVO_wrap.obj
 0001:00000040       ??__E_exports_Obstacle_clientData@@YAXXZ 0000000180001040 f   libRVO_wrap.obj
 0001:00000050       ??__E_exports_KdTree_clientData@@YAXXZ 0000000180001050 f   libRVO_wrap.obj
 0001:00000060       ??__E_exports_Line_clientData@@YAXXZ 0000000180001060 f   libRVO_wrap.obj
 0001:00000070       ??__E_exports_RVOSimulator_clientData@@YAXXZ 0000000180001070 f   libRVO_wrap.obj
 0001:00000080       ??__E_exports_vectori_clientData@@YAXXZ 0000000180001080 f   libRVO_wrap.obj
 0001:00000090       ??__E_exports_vectord_clientData@@YAXXZ 0000000180001090 f   libRVO_wrap.obj
 0001:000000a0       ??__E_exports_vectorline_clientData@@YAXXZ 00000001800010a0 f   libRVO_wrap.obj
 0001:000000b0       ??__E_exports_vectorvector_clientData@@YAXXZ 00000001800010b0 f   libRVO_wrap.obj
 0001:000001c0       SWIG_TypeCheck             00000001800011c0 f   libRVO_wrap.obj
 0001:00000260       SWIG_MangledTypeQueryModule 0000000180001260 f   libRVO_wrap.obj
 0001:000004c0       ?SWIG_V8_ConvertInstancePtr@@YAHV?$Local@VObject@v8@@@v8@@PEAPEAXPEAUswig_type_info@@H@Z 00000001800014c0 f   libRVO_wrap.obj
 0001:000005f0       ?SWIGV8_Proxy_DefaultDtor@@YAXAEBV?$WeakCallbackData@VObject@v8@@VSWIGV8_Proxy@@@v8@@@Z 00000001800015f0 f   libRVO_wrap.obj
 0001:00000650       ?SWIGV8_SetPrivateData@@YAXV?$Local@VObject@v8@@@v8@@PEAXPEAUswig_type_info@@H@Z 0000000180001650 f   libRVO_wrap.obj
 0001:00000730       ?SWIG_V8_ConvertPtr@@YAHV?$Local@VValue@v8@@@v8@@PEAPEAXPEAUswig_type_info@@H@Z 0000000180001730 f   libRVO_wrap.obj
 0001:000007e0       ?SWIG_V8_NewPointerObj@@YA?AV?$Local@VValue@v8@@@v8@@PEAXPEAUswig_type_info@@H@Z 00000001800017e0 f   libRVO_wrap.obj
 0001:000008c0       ?_SWIGV8_wrap_equals@@YAXAEBV?$FunctionCallbackInfo@VValue@v8@@@v8@@@Z 00000001800018c0 f   libRVO_wrap.obj
 0001:00000aa0       ?_wrap_getCPtr@@YAXAEBV?$FunctionCallbackInfo@VValue@v8@@@v8@@@Z 0000000180001aa0 f   libRVO_wrap.obj
 0001:00000bf0       ?SWIGV8_CreateClassTemplate@@YA?AV?$Local@VFunctionTemplate@v8@@@v8@@PEBD@Z 0000000180001bf0 f   libRVO_wrap.obj
 0001:00000dd0       ?SWIGV8_AddStaticFunction@@YAXV?$Local@VObject@v8@@@v8@@PEBDAEBQ6AXAEBV?$FunctionCallbackInfo@VValue@v8@@@2@@Z@Z 0000000180001dd0 f   libRVO_wrap.obj
 0001:00000e70       ?JS_veto_set_variable@@YAXV?$Local@VString@v8@@@v8@@V?$Local@VValue@v8@@@2@AEBV?$PropertyCallbackInfo@X@2@@Z 0000000180001e70 f   libRVO_wrap.obj
 0001:00001060       ?SWIG_AsVal_float@@YAHV?$Local@VValue@v8@@@v8@@PEAM@Z 0000000180002060 f   libRVO_wrap.obj
 0001:00001100       ?SWIG_AsVal_size_t@@YAHV?$Local@VValue@v8@@@v8@@PEA_K@Z 0000000180002100 f   libRVO_wrap.obj
 0001:000011c0       ?_wrap_new_Vector2__SWIG_0@@YAXAEBV?$FunctionCallbackInfo@VValue@v8@@@v8@@AEAVV8ErrorHandler@@@Z 00000001800021c0 f   libRVO_wrap.obj
 0001:00001280       ?_wrap_new_Vector2__SWIG_1@@YAXAEBV?$FunctionCallbackInfo@VValue@v8@@@v8@@AEAVV8ErrorHandler@@@Z 0000000180002280 f   libRVO_wrap.obj
 0001:00001450       ?_wrap_new_Vector2@@YAXAEBV?$FunctionCallbackInfo@VValue@v8@@@v8@@@Z 0000000180002450 f   libRVO_wrap.obj
 0001:00001590       ?_wrap_Vector2_x@@YAXAEBV?$FunctionCallbackInfo@VValue@v8@@@v8@@@Z 0000000180002590 f   libRVO_wrap.obj
 0001:00001770       ?_wrap_Vector2_y@@YAXAEBV?$FunctionCallbackInfo@VValue@v8@@@v8@@@Z 0000000180002770 f   libRVO_wrap.obj
 0001:00001950       ?_wrap_Vector2_sub__SWIG_0@@YAXAEBV?$FunctionCallbackInfo@VValue@v8@@@v8@@AEAVV8ErrorHandler@@@Z 0000000180002950 f   libRVO_wrap.obj
 0001:00001b30       ?_wrap_Vector2_mul__SWIG_0@@YAXAEBV?$FunctionCallbackInfo@VValue@v8@@@v8@@AEAVV8ErrorHandler@@@Z 0000000180002b30 f   libRVO_wrap.obj
 0001:00001de0       ?_wrap_Vector2_mul__SWIG_1@@YAXAEBV?$FunctionCallbackInfo@VValue@v8@@@v8@@AEAVV8ErrorHandler@@@Z 0000000180002de0 f   libRVO_wrap.obj
 0001:00002020       ?_wrap_Vector2__wrap_Vector2_mul@@YAXAEBV?$FunctionCallbackInfo@VValue@v8@@@v8@@@Z 0000000180003020 f   libRVO_wrap.obj
 0001:00002130       ?_wrap_Vector2_div@@YAXAEBV?$FunctionCallbackInfo@VValue@v8@@@v8@@@Z 0000000180003130 f   libRVO_wrap.obj
 0001:000023d0       ?_wrap_Vector2_add@@YAXAEBV?$FunctionCallbackInfo@VValue@v8@@@v8@@@Z 00000001800033d0 f   libRVO_wrap.obj
 0001:00002610       ?_wrap_Vector2_sub__SWIG_1@@YAXAEBV?$FunctionCallbackInfo@VValue@v8@@@v8@@AEAVV8ErrorHandler@@@Z 0000000180003610 f   libRVO_wrap.obj
 0001:000028e0       ?_wrap_Vector2__wrap_Vector2_sub@@YAXAEBV?$FunctionCallbackInfo@VValue@v8@@@v8@@@Z 00000001800038e0 f   libRVO_wrap.obj
 0001:000029f0       ?_wrap_Vector2_equals@@YAXAEBV?$FunctionCallbackInfo@VValue@v8@@@v8@@@Z 00000001800039f0 f   libRVO_wrap.obj
 0001:00002c10       ?_wrap_Vector2_notEqual@@YAXAEBV?$FunctionCallbackInfo@VValue@v8@@@v8@@@Z 0000000180003c10 f   libRVO_wrap.obj
 0001:00002e30       ?_wrap_Vector2_multiply@@YAXAEBV?$FunctionCallbackInfo@VValue@v8@@@v8@@@Z 0000000180003e30 f   libRVO_wrap.obj
 0001:000030a0       ?_wrap_Vector2_divide@@YAXAEBV?$FunctionCallbackInfo@VValue@v8@@@v8@@@Z 00000001800040a0 f   libRVO_wrap.obj
 0001:00003310       ?_wrap_Vector2_adding@@YAXAEBV?$FunctionCallbackInfo@VValue@v8@@@v8@@@Z 0000000180004310 f   libRVO_wrap.obj
 0001:00003530       ?_wrap_Vector2_subtract@@YAXAEBV?$FunctionCallbackInfo@VValue@v8@@@v8@@@Z 0000000180004530 f   libRVO_wrap.obj
 0001:00003750       ?_wrap_delete_Vector2@@YAXAEBV?$WeakCallbackData@VObject@v8@@VSWIGV8_Proxy@@@v8@@@Z 0000000180004750 f   libRVO_wrap.obj
 0001:000037c0       ?_wrap_abs@@YAXAEBV?$FunctionCallbackInfo@VValue@v8@@@v8@@@Z 00000001800047c0 f   libRVO_wrap.obj
 0001:000039c0       ?_wrap_absSq@@YAXAEBV?$FunctionCallbackInfo@VValue@v8@@@v8@@@Z 00000001800049c0 f   libRVO_wrap.obj
 0001:00003bb0       ?_wrap_det@@YAXAEBV?$FunctionCallbackInfo@VValue@v8@@@v8@@@Z 0000000180004bb0 f   libRVO_wrap.obj
 0001:00003e00       ?_wrap_normalize@@YAXAEBV?$FunctionCallbackInfo@VValue@v8@@@v8@@@Z 0000000180004e00 f   libRVO_wrap.obj
 0001:00004050       ?_wrap_RVO_EPSILON_get@@YAXV?$Local@VString@v8@@@v8@@AEBV?$PropertyCallbackInfo@VValue@v8@@@2@@Z 0000000180005050 f   libRVO_wrap.obj
 0001:000040d0       ?_wrap_distSqPointLineSegment@@YAXAEBV?$FunctionCallbackInfo@VValue@v8@@@v8@@@Z 00000001800050d0 f   libRVO_wrap.obj
 0001:00004370       ?_wrap_leftOf@@YAXAEBV?$FunctionCallbackInfo@VValue@v8@@@v8@@@Z 0000000180005370 f   libRVO_wrap.obj
 0001:00004630       ?_wrap_sqr@@YAXAEBV?$FunctionCallbackInfo@VValue@v8@@@v8@@@Z 0000000180005630 f   libRVO_wrap.obj
 0001:00004790       ?_wrap_delete_Agent@@YAXAEBV?$WeakCallbackData@VObject@v8@@VSWIGV8_Proxy@@@v8@@@Z 0000000180005790 f   libRVO_wrap.obj
 0001:00004820       ?_wrap_new_veto_Agent@@YAXAEBV?$FunctionCallbackInfo@VValue@v8@@@v8@@@Z 0000000180005820 f   libRVO_wrap.obj
 0001:000048d0       ?_wrap_linearProgram1@@YAXAEBV?$FunctionCallbackInfo@VValue@v8@@@v8@@@Z 00000001800058d0 f   libRVO_wrap.obj
 0001:00004c50       ?_wrap_linearProgram2@@YAXAEBV?$FunctionCallbackInfo@VValue@v8@@@v8@@@Z 0000000180005c50 f   libRVO_wrap.obj
 0001:00004f90       ?_wrap_linearProgram3@@YAXAEBV?$FunctionCallbackInfo@VValue@v8@@@v8@@@Z 0000000180005f90 f   libRVO_wrap.obj
 0001:00005270       ?_wrap_delete_Obstacle@@YAXAEBV?$WeakCallbackData@VObject@v8@@VSWIGV8_Proxy@@@v8@@@Z 0000000180006270 f   libRVO_wrap.obj
 0001:000052e0       ?_wrap_new_veto_Obstacle@@YAXAEBV?$FunctionCallbackInfo@VValue@v8@@@v8@@@Z 00000001800062e0 f   libRVO_wrap.obj
 0001:00005390       ?_wrap_new_veto_KdTree@@YAXAEBV?$FunctionCallbackInfo@VValue@v8@@@v8@@@Z 0000000180006390 f   libRVO_wrap.obj
 0001:00005440       ?_wrap_RVO_ERROR_get@@YAXV?$Local@VString@v8@@@v8@@AEBV?$PropertyCallbackInfo@VValue@v8@@@2@@Z 0000000180006440 f   libRVO_wrap.obj
 0001:000054c0       ?_wrap_Line_point_set@@YAXV?$Local@VString@v8@@@v8@@V?$Local@VValue@v8@@@2@AEBV?$PropertyCallbackInfo@X@2@@Z 00000001800064c0 f   libRVO_wrap.obj
 0001:00005700       ?_wrap_Line_point_get@@YAXV?$Local@VString@v8@@@v8@@AEBV?$PropertyCallbackInfo@VValue@v8@@@2@@Z 0000000180006700 f   libRVO_wrap.obj
 0001:000058b0       ?_wrap_Line_direction_set@@YAXV?$Local@VString@v8@@@v8@@V?$Local@VValue@v8@@@2@AEBV?$PropertyCallbackInfo@X@2@@Z 00000001800068b0 f   libRVO_wrap.obj
 0001:00005af0       ?_wrap_Line_direction_get@@YAXV?$Local@VString@v8@@@v8@@AEBV?$PropertyCallbackInfo@VValue@v8@@@2@@Z 0000000180006af0 f   libRVO_wrap.obj
 0001:00005cb0       ?_wrap_new_Line@@YAXAEBV?$FunctionCallbackInfo@VValue@v8@@@v8@@@Z 0000000180006cb0 f   libRVO_wrap.obj
 0001:00005db0       ?_wrap_delete_Line@@YAXAEBV?$WeakCallbackData@VObject@v8@@VSWIGV8_Proxy@@@v8@@@Z 0000000180006db0 f   libRVO_wrap.obj
 0001:00005e20       ?_wrap_new_RVOSimulator__SWIG_0@@YAXAEBV?$FunctionCallbackInfo@VValue@v8@@@v8@@AEAVV8ErrorHandler@@@Z 0000000180006e20 f   libRVO_wrap.obj
 0001:00005f40       ?_wrap_new_RVOSimulator__SWIG_1@@YAXAEBV?$FunctionCallbackInfo@VValue@v8@@@v8@@AEAVV8ErrorHandler@@@Z 0000000180006f40 f   libRVO_wrap.obj
 0001:00006350       ?_wrap_new_RVOSimulator__SWIG_2@@YAXAEBV?$FunctionCallbackInfo@VValue@v8@@@v8@@AEAVV8ErrorHandler@@@Z 0000000180007350 f   libRVO_wrap.obj
 0001:000066c0       ?_wrap_new_RVOSimulator@@YAXAEBV?$FunctionCallbackInfo@VValue@v8@@@v8@@@Z 00000001800076c0 f   libRVO_wrap.obj
 0001:00006800       ?_wrap_delete_RVOSimulator@@YAXAEBV?$WeakCallbackData@VObject@v8@@VSWIGV8_Proxy@@@v8@@@Z 0000000180007800 f   libRVO_wrap.obj
 0001:00006880       ?_wrap_RVOSimulator_addAgent__SWIG_0@@YAXAEBV?$FunctionCallbackInfo@VValue@v8@@@v8@@AEAVV8ErrorHandler@@@Z 0000000180007880 f   libRVO_wrap.obj
 0001:00006b40       ?_wrap_RVOSimulator_addAgent__SWIG_1@@YAXAEBV?$FunctionCallbackInfo@VValue@v8@@@v8@@AEAVV8ErrorHandler@@@Z 0000000180007b40 f   libRVO_wrap.obj
 0001:00007020       ?_wrap_RVOSimulator_addAgent__SWIG_2@@YAXAEBV?$FunctionCallbackInfo@VValue@v8@@@v8@@AEAVV8ErrorHandler@@@Z 0000000180008020 f   libRVO_wrap.obj
 0001:00007450       ?_wrap_RVOSimulator__wrap_RVOSimulator_addAgent@@YAXAEBV?$FunctionCallbackInfo@VValue@v8@@@v8@@@Z 0000000180008450 f   libRVO_wrap.obj
 0001:00007590       ?_wrap_RVOSimulator_addObstacle@@YAXAEBV?$FunctionCallbackInfo@VValue@v8@@@v8@@@Z 0000000180008590 f   libRVO_wrap.obj
 0001:000077c0       ?_wrap_RVOSimulator_doStep@@YAXAEBV?$FunctionCallbackInfo@VValue@v8@@@v8@@@Z 00000001800087c0 f   libRVO_wrap.obj
 0001:00007960       ?_wrap_RVOSimulator_getAgentAgentNeighbor@@YAXAEBV?$FunctionCallbackInfo@VValue@v8@@@v8@@@Z 0000000180008960 f   libRVO_wrap.obj
 0001:00007be0       ?_wrap_RVOSimulator_getAgentMaxNeighbors@@YAXAEBV?$FunctionCallbackInfo@VValue@v8@@@v8@@@Z 0000000180008be0 f   libRVO_wrap.obj
 0001:00007e30       ?_wrap_RVOSimulator_getAgentMaxSpeed@@YAXAEBV?$FunctionCallbackInfo@VValue@v8@@@v8@@@Z 0000000180008e30 f   libRVO_wrap.obj
 0001:00008070       ?_wrap_RVOSimulator_getAgentNeighborDist@@YAXAEBV?$FunctionCallbackInfo@VValue@v8@@@v8@@@Z 0000000180009070 f   libRVO_wrap.obj
 0001:000082b0       ?_wrap_RVOSimulator_getAgentNumAgentNeighbors@@YAXAEBV?$FunctionCallbackInfo@VValue@v8@@@v8@@@Z 00000001800092b0 f   libRVO_wrap.obj
 0001:00008500       ?_wrap_RVOSimulator_getAgentNumObstacleNeighbors@@YAXAEBV?$FunctionCallbackInfo@VValue@v8@@@v8@@@Z 0000000180009500 f   libRVO_wrap.obj
 0001:00008750       ?_wrap_RVOSimulator_getAgentNumORCALines@@YAXAEBV?$FunctionCallbackInfo@VValue@v8@@@v8@@@Z 0000000180009750 f   libRVO_wrap.obj
 0001:000089a0       ?_wrap_RVOSimulator_getAgentObstacleNeighbor@@YAXAEBV?$FunctionCallbackInfo@VValue@v8@@@v8@@@Z 00000001800099a0 f   libRVO_wrap.obj
 0001:00008c10       ?_wrap_RVOSimulator_getAgentORCALine@@YAXAEBV?$FunctionCallbackInfo@VValue@v8@@@v8@@@Z 0000000180009c10 f   libRVO_wrap.obj
 0001:00008e60       ?_wrap_RVOSimulator_getAgentPosition@@YAXAEBV?$FunctionCallbackInfo@VValue@v8@@@v8@@@Z 0000000180009e60 f   libRVO_wrap.obj
 0001:00009090       ?_wrap_RVOSimulator_getAgentPrefVelocity@@YAXAEBV?$FunctionCallbackInfo@VValue@v8@@@v8@@@Z 000000018000a090 f   libRVO_wrap.obj
 0001:000092c0       ?_wrap_RVOSimulator_getAgentRadius@@YAXAEBV?$FunctionCallbackInfo@VValue@v8@@@v8@@@Z 000000018000a2c0 f   libRVO_wrap.obj
 0001:00009500       ?_wrap_RVOSimulator_getAgentTimeHorizon@@YAXAEBV?$FunctionCallbackInfo@VValue@v8@@@v8@@@Z 000000018000a500 f   libRVO_wrap.obj
 0001:00009740       ?_wrap_RVOSimulator_getAgentTimeHorizonObst@@YAXAEBV?$FunctionCallbackInfo@VValue@v8@@@v8@@@Z 000000018000a740 f   libRVO_wrap.obj
 0001:00009980       ?_wrap_RVOSimulator_getAgentVelocity@@YAXAEBV?$FunctionCallbackInfo@VValue@v8@@@v8@@@Z 000000018000a980 f   libRVO_wrap.obj
 0001:00009bb0       ?_wrap_RVOSimulator_getGlobalTime@@YAXAEBV?$FunctionCallbackInfo@VValue@v8@@@v8@@@Z 000000018000abb0 f   libRVO_wrap.obj
 0001:00009d90       ?_wrap_RVOSimulator_getNumAgents@@YAXAEBV?$FunctionCallbackInfo@VValue@v8@@@v8@@@Z 000000018000ad90 f   libRVO_wrap.obj
 0001:00009f80       ?_wrap_RVOSimulator_getNumObstacleVertices@@YAXAEBV?$FunctionCallbackInfo@VValue@v8@@@v8@@@Z 000000018000af80 f   libRVO_wrap.obj
 0001:0000a170       ?_wrap_RVOSimulator_getObstacleVertex@@YAXAEBV?$FunctionCallbackInfo@VValue@v8@@@v8@@@Z 000000018000b170 f   libRVO_wrap.obj
 0001:0000a3a0       ?_wrap_RVOSimulator_getNextObstacleVertexNo@@YAXAEBV?$FunctionCallbackInfo@VValue@v8@@@v8@@@Z 000000018000b3a0 f   libRVO_wrap.obj
 0001:0000a5f0       ?_wrap_RVOSimulator_getPrevObstacleVertexNo@@YAXAEBV?$FunctionCallbackInfo@VValue@v8@@@v8@@@Z 000000018000b5f0 f   libRVO_wrap.obj
 0001:0000a840       ?_wrap_RVOSimulator_getTimeStep@@YAXAEBV?$FunctionCallbackInfo@VValue@v8@@@v8@@@Z 000000018000b840 f   libRVO_wrap.obj
 0001:0000aa20       ?_wrap_RVOSimulator_processObstacles@@YAXAEBV?$FunctionCallbackInfo@VValue@v8@@@v8@@@Z 000000018000ba20 f   libRVO_wrap.obj
 0001:0000abc0       ?_wrap_RVOSimulator_queryVisibility__SWIG_0@@YAXAEBV?$FunctionCallbackInfo@VValue@v8@@@v8@@AEAVV8ErrorHandler@@@Z 000000018000bbc0 f   libRVO_wrap.obj
 0001:0000af30       ?_wrap_RVOSimulator_queryVisibility__SWIG_1@@YAXAEBV?$FunctionCallbackInfo@VValue@v8@@@v8@@AEAVV8ErrorHandler@@@Z 000000018000bf30 f   libRVO_wrap.obj
 0001:0000b240       ?_wrap_RVOSimulator__wrap_RVOSimulator_queryVisibility@@YAXAEBV?$FunctionCallbackInfo@VValue@v8@@@v8@@@Z 000000018000c240 f   libRVO_wrap.obj
 0001:0000b350       ?_wrap_RVOSimulator_setAgentDefaults__SWIG_0@@YAXAEBV?$FunctionCallbackInfo@VValue@v8@@@v8@@AEAVV8ErrorHandler@@@Z 000000018000c350 f   libRVO_wrap.obj
 0001:0000b790       ?_wrap_RVOSimulator_setAgentDefaults__SWIG_1@@YAXAEBV?$FunctionCallbackInfo@VValue@v8@@@v8@@AEAVV8ErrorHandler@@@Z 000000018000c790 f   libRVO_wrap.obj
 0001:0000bb20       ?_wrap_RVOSimulator__wrap_RVOSimulator_setAgentDefaults@@YAXAEBV?$FunctionCallbackInfo@VValue@v8@@@v8@@@Z 000000018000cb20 f   libRVO_wrap.obj
 0001:0000bc30       ?_wrap_RVOSimulator_setAgentMaxNeighbors@@YAXAEBV?$FunctionCallbackInfo@VValue@v8@@@v8@@@Z 000000018000cc30 f   libRVO_wrap.obj
 0001:0000be70       ?_wrap_RVOSimulator_setAgentMaxSpeed@@YAXAEBV?$FunctionCallbackInfo@VValue@v8@@@v8@@@Z 000000018000ce70 f   libRVO_wrap.obj
 0001:0000c080       ?_wrap_RVOSimulator_setAgentNeighborDist@@YAXAEBV?$FunctionCallbackInfo@VValue@v8@@@v8@@@Z 000000018000d080 f   libRVO_wrap.obj
 0001:0000c290       ?_wrap_RVOSimulator_setAgentPosition@@YAXAEBV?$FunctionCallbackInfo@VValue@v8@@@v8@@@Z 000000018000d290 f   libRVO_wrap.obj
 0001:0000c4c0       ?_wrap_RVOSimulator_setAgentPrefVelocity@@YAXAEBV?$FunctionCallbackInfo@VValue@v8@@@v8@@@Z 000000018000d4c0 f   libRVO_wrap.obj
 0001:0000c6f0       ?_wrap_RVOSimulator_setAgentRadius@@YAXAEBV?$FunctionCallbackInfo@VValue@v8@@@v8@@@Z 000000018000d6f0 f   libRVO_wrap.obj
 0001:0000c900       ?_wrap_RVOSimulator_setAgentTimeHorizon@@YAXAEBV?$FunctionCallbackInfo@VValue@v8@@@v8@@@Z 000000018000d900 f   libRVO_wrap.obj
 0001:0000cb10       ?_wrap_RVOSimulator_setAgentTimeHorizonObst@@YAXAEBV?$FunctionCallbackInfo@VValue@v8@@@v8@@@Z 000000018000db10 f   libRVO_wrap.obj
 0001:0000cd20       ?_wrap_RVOSimulator_setAgentVelocity@@YAXAEBV?$FunctionCallbackInfo@VValue@v8@@@v8@@@Z 000000018000dd20 f   libRVO_wrap.obj
 0001:0000cf50       ?_wrap_RVOSimulator_setTimeStep@@YAXAEBV?$FunctionCallbackInfo@VValue@v8@@@v8@@@Z 000000018000df50 f   libRVO_wrap.obj
 0001:0000d170       ?_wrap_new_vectori__SWIG_0@@YAXAEBV?$FunctionCallbackInfo@VValue@v8@@@v8@@AEAVV8ErrorHandler@@@Z 000000018000e170 f   libRVO_wrap.obj
 0001:0000d240       ?_wrap_new_vectori__SWIG_1@@YAXAEBV?$FunctionCallbackInfo@VValue@v8@@@v8@@AEAVV8ErrorHandler@@@Z 000000018000e240 f   libRVO_wrap.obj
 0001:0000d350       ?_wrap_new_vectori@@YAXAEBV?$FunctionCallbackInfo@VValue@v8@@@v8@@@Z 000000018000e350 f   libRVO_wrap.obj
 0001:0000d460       ?_wrap_vectori_size@@YAXAEBV?$FunctionCallbackInfo@VValue@v8@@@v8@@@Z 000000018000e460 f   libRVO_wrap.obj
 0001:0000d650       ?_wrap_vectori_capacity@@YAXAEBV?$FunctionCallbackInfo@VValue@v8@@@v8@@@Z 000000018000e650 f   libRVO_wrap.obj
 0001:0000d840       ?_wrap_vectori_reserve@@YAXAEBV?$FunctionCallbackInfo@VValue@v8@@@v8@@@Z 000000018000e840 f   libRVO_wrap.obj
 0001:0000da60       ?_wrap_vectori_isEmpty@@YAXAEBV?$FunctionCallbackInfo@VValue@v8@@@v8@@@Z 000000018000ea60 f   libRVO_wrap.obj
 0001:0000dc30       ?_wrap_vectori_clear@@YAXAEBV?$FunctionCallbackInfo@VValue@v8@@@v8@@@Z 000000018000ec30 f   libRVO_wrap.obj
 0001:0000ddd0       ?_wrap_vectori_add@@YAXAEBV?$FunctionCallbackInfo@VValue@v8@@@v8@@@Z 000000018000edd0 f   libRVO_wrap.obj
 0001:0000dfc0       ?_wrap_vectori_get@@YAXAEBV?$FunctionCallbackInfo@VValue@v8@@@v8@@@Z 000000018000efc0 f   libRVO_wrap.obj
 0001:0000e240       ?_wrap_vectori_set@@YAXAEBV?$FunctionCallbackInfo@VValue@v8@@@v8@@@Z 000000018000f240 f   libRVO_wrap.obj
 0001:0000e4c0       ?_wrap_delete_vectori@@YAXAEBV?$WeakCallbackData@VObject@v8@@VSWIGV8_Proxy@@@v8@@@Z 000000018000f4c0 f   libRVO_wrap.obj
 0001:0000e560       ?_wrap_new_vectord__SWIG_0@@YAXAEBV?$FunctionCallbackInfo@VValue@v8@@@v8@@AEAVV8ErrorHandler@@@Z 000000018000f560 f   libRVO_wrap.obj
 0001:0000e630       ?_wrap_new_vectord__SWIG_1@@YAXAEBV?$FunctionCallbackInfo@VValue@v8@@@v8@@AEAVV8ErrorHandler@@@Z 000000018000f630 f   libRVO_wrap.obj
 0001:0000e740       ?_wrap_new_vectord@@YAXAEBV?$FunctionCallbackInfo@VValue@v8@@@v8@@@Z 000000018000f740 f   libRVO_wrap.obj
 0001:0000e850       ?_wrap_vectord_size@@YAXAEBV?$FunctionCallbackInfo@VValue@v8@@@v8@@@Z 000000018000f850 f   libRVO_wrap.obj
 0001:0000ea40       ?_wrap_vectord_capacity@@YAXAEBV?$FunctionCallbackInfo@VValue@v8@@@v8@@@Z 000000018000fa40 f   libRVO_wrap.obj
 0001:0000ec30       ?_wrap_vectord_reserve@@YAXAEBV?$FunctionCallbackInfo@VValue@v8@@@v8@@@Z 000000018000fc30 f   libRVO_wrap.obj
 0001:0000ee50       ?_wrap_vectord_isEmpty@@YAXAEBV?$FunctionCallbackInfo@VValue@v8@@@v8@@@Z 000000018000fe50 f   libRVO_wrap.obj
 0001:0000f020       ?_wrap_vectord_clear@@YAXAEBV?$FunctionCallbackInfo@VValue@v8@@@v8@@@Z 0000000180010020 f   libRVO_wrap.obj
 0001:0000f1c0       ?_wrap_vectord_add@@YAXAEBV?$FunctionCallbackInfo@VValue@v8@@@v8@@@Z 00000001800101c0 f   libRVO_wrap.obj
 0001:0000f3c0       ?_wrap_vectord_get@@YAXAEBV?$FunctionCallbackInfo@VValue@v8@@@v8@@@Z 00000001800103c0 f   libRVO_wrap.obj
 0001:0000f650       ?_wrap_vectord_set@@YAXAEBV?$FunctionCallbackInfo@VValue@v8@@@v8@@@Z 0000000180010650 f   libRVO_wrap.obj
 0001:0000f8d0       ?_wrap_delete_vectorvector@@YAXAEBV?$WeakCallbackData@VObject@v8@@VSWIGV8_Proxy@@@v8@@@Z 00000001800108d0 f   libRVO_wrap.obj
 0001:0000f8d0       ?_wrap_delete_vectord@@YAXAEBV?$WeakCallbackData@VObject@v8@@VSWIGV8_Proxy@@@v8@@@Z 00000001800108d0 f   libRVO_wrap.obj
 0001:0000f970       ?_wrap_new_vectorline__SWIG_0@@YAXAEBV?$FunctionCallbackInfo@VValue@v8@@@v8@@AEAVV8ErrorHandler@@@Z 0000000180010970 f   libRVO_wrap.obj
 0001:0000fa40       ?_wrap_new_vectorline__SWIG_1@@YAXAEBV?$FunctionCallbackInfo@VValue@v8@@@v8@@AEAVV8ErrorHandler@@@Z 0000000180010a40 f   libRVO_wrap.obj
 0001:0000fb50       ?_wrap_new_vectorline@@YAXAEBV?$FunctionCallbackInfo@VValue@v8@@@v8@@@Z 0000000180010b50 f   libRVO_wrap.obj
 0001:0000fc60       ?_wrap_vectorline_size@@YAXAEBV?$FunctionCallbackInfo@VValue@v8@@@v8@@@Z 0000000180010c60 f   libRVO_wrap.obj
 0001:0000fe50       ?_wrap_vectorline_capacity@@YAXAEBV?$FunctionCallbackInfo@VValue@v8@@@v8@@@Z 0000000180010e50 f   libRVO_wrap.obj
 0001:00010040       ?_wrap_vectorline_reserve@@YAXAEBV?$FunctionCallbackInfo@VValue@v8@@@v8@@@Z 0000000180011040 f   libRVO_wrap.obj
 0001:00010260       ?_wrap_vectorline_isEmpty@@YAXAEBV?$FunctionCallbackInfo@VValue@v8@@@v8@@@Z 0000000180011260 f   libRVO_wrap.obj
 0001:00010430       ?_wrap_vectorline_clear@@YAXAEBV?$FunctionCallbackInfo@VValue@v8@@@v8@@@Z 0000000180011430 f   libRVO_wrap.obj
 0001:000105d0       ?_wrap_vectorline_add@@YAXAEBV?$FunctionCallbackInfo@VValue@v8@@@v8@@@Z 00000001800115d0 f   libRVO_wrap.obj
 0001:000107a0       ?_wrap_vectorline_get@@YAXAEBV?$FunctionCallbackInfo@VValue@v8@@@v8@@@Z 00000001800117a0 f   libRVO_wrap.obj
 0001:00010a20       ?_wrap_vectorline_set@@YAXAEBV?$FunctionCallbackInfo@VValue@v8@@@v8@@@Z 0000000180011a20 f   libRVO_wrap.obj
 0001:00010cc0       ?_wrap_delete_vectorline@@YAXAEBV?$WeakCallbackData@VObject@v8@@VSWIGV8_Proxy@@@v8@@@Z 0000000180011cc0 f   libRVO_wrap.obj
 0001:00010d40       ?_wrap_new_vectorvector__SWIG_0@@YAXAEBV?$FunctionCallbackInfo@VValue@v8@@@v8@@AEAVV8ErrorHandler@@@Z 0000000180011d40 f   libRVO_wrap.obj
 0001:00010e10       ?_wrap_new_vectorvector__SWIG_1@@YAXAEBV?$FunctionCallbackInfo@VValue@v8@@@v8@@AEAVV8ErrorHandler@@@Z 0000000180011e10 f   libRVO_wrap.obj
 0001:00010f20       ?_wrap_new_vectorvector@@YAXAEBV?$FunctionCallbackInfo@VValue@v8@@@v8@@@Z 0000000180011f20 f   libRVO_wrap.obj
 0001:00011030       ?_wrap_vectorvector_size@@YAXAEBV?$FunctionCallbackInfo@VValue@v8@@@v8@@@Z 0000000180012030 f   libRVO_wrap.obj
 0001:00011220       ?_wrap_vectorvector_capacity@@YAXAEBV?$FunctionCallbackInfo@VValue@v8@@@v8@@@Z 0000000180012220 f   libRVO_wrap.obj
 0001:00011410       ?_wrap_vectorvector_reserve@@YAXAEBV?$FunctionCallbackInfo@VValue@v8@@@v8@@@Z 0000000180012410 f   libRVO_wrap.obj
 0001:00011630       ?_wrap_vectorvector_isEmpty@@YAXAEBV?$FunctionCallbackInfo@VValue@v8@@@v8@@@Z 0000000180012630 f   libRVO_wrap.obj
 0001:00011800       ?_wrap_vectorvector_clear@@YAXAEBV?$FunctionCallbackInfo@VValue@v8@@@v8@@@Z 0000000180012800 f   libRVO_wrap.obj
 0001:000119a0       ?_wrap_vectorvector_add@@YAXAEBV?$FunctionCallbackInfo@VValue@v8@@@v8@@@Z 00000001800129a0 f   libRVO_wrap.obj
 0001:00011b70       ?_wrap_vectorvector_get@@YAXAEBV?$FunctionCallbackInfo@VValue@v8@@@v8@@@Z 0000000180012b70 f   libRVO_wrap.obj
 0001:00011de0       ?_wrap_vectorvector_set@@YAXAEBV?$FunctionCallbackInfo@VValue@v8@@@v8@@@Z 0000000180012de0 f   libRVO_wrap.obj
 0001:00012080       ?SWIG_V8_SetModule@@YAXPEAXPEAUswig_module_info@@@Z 0000000180013080 f   libRVO_wrap.obj
 0001:00012140       ?SWIG_V8_GetModule@@YAPEAUswig_module_info@@PEAX@Z 0000000180013140 f   libRVO_wrap.obj
 0001:00012210       SWIG_InitializeModule      0000000180013210 f   libRVO_wrap.obj
 0001:000157c0       _register_libRVO           00000001800167c0 f   libRVO_wrap.obj
 0001:0001b100       ?load_exe_hook@@YAP6A_JXZIPEAUDelayLoadInfo@@@Z 000000018001c100 f   win_delay_load_hook.obj
 0001:0001b5f0       $$000000                   000000018001c5f0     LIBCMT:_amdsecgs_.obj
 0001:0001ba78       ?dllmain_crt_dispatch@@YAHQEAUHINSTANCE__@@KQEAX@Z 000000018001ca78 f   LIBCMT:dll_dllmain.obj
 0001:0001bac8       ?dllmain_crt_process_attach@@YAHQEAUHINSTANCE__@@QEAX@Z 000000018001cac8 f   LIBCMT:dll_dllmain.obj
 0001:0001bbf4       ?dllmain_crt_process_detach@@YAH_N@Z 000000018001cbf4 f   LIBCMT:dll_dllmain.obj
 0001:0001bc78       ?dllmain_dispatch@@YAHQEAUHINSTANCE__@@KQEAX@Z 000000018001cc78 f   LIBCMT:dll_dllmain.obj
 0001:0001bd70       ?dllmain_raw@@YAHQEAUHINSTANCE__@@KQEAX@Z 000000018001cd70 f   LIBCMT:dll_dllmain.obj
 0001:0001bfbc       capture_current_context    000000018001cfbc f   LIBCMT:gs_report.obj
 0001:0001c02c       capture_previous_context   000000018001d02c f   LIBCMT:gs_report.obj
 0001:0001c5e0       $$000000                   000000018001d5e0     libvcruntime:memcpy.obj
 0001:0001c687       MoveSmall                  000000018001d687     libvcruntime:memcpy.obj
 0001:0001ce40       $$000000                   000000018001de40     libvcruntime:memset.obj
 0001:0001cf2c       MsetTab                    000000018001df2c     libvcruntime:memset.obj
 0001:0001d26c       ?try_get_function@@YAPEAXW4function_id@?A0x679b24ab@@QEBDQEBW4module_id@2@2@Z 000000018001e26c f   libvcruntime:winapi_downlevel.obj
 0001:0001d6c0       $$000000                   000000018001e6c0     libvcruntime:_jmpuwind_.obj
 0001:0001df84       ??R<lambda_dd75445284c072d0bd3768540cc698fa>@@QEBAHXZ 000000018001ef84 f   libucrt:output.obj
 0001:00020b88       ??$common_assert_to_message_box@_W@@YAXQEB_W0IQEAX@Z 0000000180021b88 f   libucrt:assert.obj
 0001:00020c4c       ??$common_assert_to_message_box_build_string@_W@@YAXQEA_W_KQEB_W2IQEAX@Z 0000000180021c4c f   libucrt:assert.obj
 0001:00021420       ??$common_assert_to_stderr@_W@@YAXQEB_W0I@Z 0000000180022420 f   libucrt:assert.obj
 0001:00021590       ?get_assert_format@@YAPEB_W_W@Z 0000000180022590 f   libucrt:assert.obj
 0001:00021a14       ?atexit_exception_filter@@YAHK@Z 0000000180022a14 f   libucrt:exit.obj
 0001:00021a20       ?common_exit@@YAXHW4_crt_exit_cleanup_mode@@W4_crt_exit_return_mode@@@Z 0000000180022a20 f   libucrt:exit.obj
 0001:00021b8c       ?exit_or_terminate_process@@YAXI@Z 0000000180022b8c f   libucrt:exit.obj
 0001:00021bd8       ?try_cor_exit_process@@YAXI@Z 0000000180022bd8 f   libucrt:exit.obj
 0001:00021c70       ??$parse_command_line@D@@YAXPEADPEAPEAD0PEA_K2@Z 0000000180022c70 f   libucrt:argv_parsing.obj
 0001:00022008       ??$common_initialize_environment_nolock@D@@YAHXZ 0000000180023008 f   libucrt:environment_initialization.obj
 0001:00022074       ??$create_environment@D@@YAQEAPEADQEAD@Z 0000000180023074 f   libucrt:environment_initialization.obj
 0001:00022170       ??$free_environment@_W@@YAXQEAPEA_W@Z 0000000180023170 f   libucrt:environment_initialization.obj
 0001:00022170       ??$free_environment@D@@YAXQEAPEAD@Z 0000000180023170 f   libucrt:environment_initialization.obj
 0001:000221b4       ??$uninitialize_environment_internal@D@@YAXAEAPEAPEAD@Z 00000001800231b4 f   libucrt:environment_initialization.obj
 0001:000221d0       ??$uninitialize_environment_internal@_W@@YAXAEAPEAPEA_W@Z 00000001800231d0 f   libucrt:environment_initialization.obj
 0001:00022408       ??R<lambda_4e60a939b0d047cfe11ddc22648dfba9>@@QEBAHXZ 0000000180023408 f   libucrt:onexit.obj
 0001:000226b8       initialize_global_variables 00000001800236b8 f   libucrt:initialization.obj
 0001:000226cc       initialize_c               00000001800236cc f   libucrt:initialization.obj
 0001:000226f0       uninitialize_environment   00000001800236f0 f   libucrt:initialization.obj
 0001:00022700       uninitialize_c             0000000180023700 f   libucrt:initialization.obj
 0001:00022700       uninitialize_global_state_isolation 0000000180023700 f   libucrt:initialization.obj
 0001:00022700       report_memory_leaks        0000000180023700 f   libucrt:initialization.obj
 0001:00022700       initialize_global_state_isolation 0000000180023700 f   libucrt:initialization.obj
 0001:00022700       initialize_environment     0000000180023700 f   libucrt:initialization.obj
 0001:00022704       initialize_pointers        0000000180023704 f   libucrt:initialization.obj
 0001:00022758       uninitialize_vcruntime     0000000180023758 f   libucrt:initialization.obj
 0001:00022760       uninitialize_allocated_memory 0000000180023760 f   libucrt:initialization.obj
 0001:0002364c       ?construct_ptd_array@@YAXQEAU__acrt_ptd@@@Z 000000018002464c f   libucrt:per_thread_data.obj
 0001:0002371c       ?destroy_fls@@YAXPEAX@Z    000000018002471c f   libucrt:per_thread_data.obj
 0001:0002373c       ?destroy_ptd_array@@YAXQEAU__acrt_ptd@@@Z 000000018002473c f   libucrt:per_thread_data.obj
 0001:00023834       ?replace_current_thread_locale_nolock@@YAXQEAU__acrt_ptd@@QEAU__crt_locale_data@@@Z 0000000180024834 f   libucrt:per_thread_data.obj
 0001:00023ae8       ?internal_isupper_l@@YA_NHQEAU__crt_locale_pointers@@@Z 0000000180024ae8 f   libucrt:tolower_toupper.obj
 0001:000244f4       ?fp_format_a@@YAHQEBNPEAD_KQEAD2H_NIQEAU__crt_locale_pointers@@@Z 00000001800254f4 f   libucrt:cvt.obj
 0001:00024854       ?fp_format_e@@YAHQEBNQEAD_K12H_NIQEAU__crt_locale_pointers@@@Z 0000000180025854 f   libucrt:cvt.obj
 0001:00024924       ?fp_format_e_internal@@YAHQEAD_KH_NIQEAU_strflt@@2QEAU__crt_locale_pointers@@@Z 0000000180025924 f   libucrt:cvt.obj
 0001:00024b00       ?fp_format_f_internal@@YAHQEAD_KHQEAU_strflt@@_NQEAU__crt_locale_pointers@@@Z 0000000180025b00 f   libucrt:cvt.obj
 0001:00024c48       ?fp_format_g@@YAHQEBNQEAD_K12H_NIQEAU__crt_locale_pointers@@@Z 0000000180025c48 f   libucrt:cvt.obj
 0001:00024d80       ?fp_format_nan_or_infinity@@YAHW4__acrt_fp_class@@_NPEAD_K1@Z 0000000180025d80 f   libucrt:cvt.obj
 0001:000255e4       ?initialize_inherited_file_handles_nolock@@YAXXZ 00000001800265e4 f   libucrt:ioinit.obj
 0001:000256d0       ?initialize_stdio_handles_nolock@@YAXXZ 00000001800266d0 f   libucrt:ioinit.obj
 0001:00025850       ??$common_xtox@K_W@@YAHKQEA_W_KI_N@Z 0000000180026850 f   libucrt:xtoa.obj
 0001:000258fc       ??$common_xtox_s@K_W@@YAHKQEA_W_KI_N@Z 00000001800268fc f   libucrt:xtoa.obj
 0001:00025bc0       ??$message_box_wait_thread@_W@@YAKQEAX@Z 0000000180026bc0 f   libucrt:crtmbox.obj
 0001:00025dd4       common_flush_all           0000000180026dd4 f   libucrt:fflush.obj
 0001:00025f3c       ??R<lambda_b721fa326cdb32351d23dfa67958c160>@@QEBAHXZ 0000000180026f3c f   libucrt:setvbuf.obj
 0001:000264b8       ?try_get_function@@YAPEAXW4function_id@?A0x63058377@@QEBDQEBW4module_id@2@2@Z 00000001800274b8 f   libucrt:winapi_thunks.obj
 0001:00026ce4       ?<helper_func_cdecl>@<lambda_2feae5270eb4d0d5532525f423405775>@@CAHPEBX0@Z 0000000180027ce4 f   libucrt:argv_wildcards.obj
 0001:00026cf8       ??$common_expand_argv_wildcards@D@@YAHQEAPEADQEAPEAPEAD@Z 0000000180027cf8 f   libucrt:argv_wildcards.obj
 0001:00026f04       ??$copy_and_add_argument_to_buffer@D@@YAHQEBD0_KAEAV?$argument_list@D@?A0xca0879c4@@@Z 0000000180027f04 f   libucrt:argv_wildcards.obj
 0001:00027014       ??$expand_argument_wildcards@D@@YAHQEAD0AEAV?$argument_list@D@?A0xca0879c4@@@Z 0000000180028014 f   libucrt:argv_wildcards.obj
 0001:000272c8       ??R<lambda_ad1ced32f4ac17aa236e5ef05d6b3b7c>@@QEBAXXZ 00000001800282c8 f   libucrt:mbctype.obj
 0001:000274e0       ?getSystemCP@@YAHH@Z       00000001800284e0 f   libucrt:mbctype.obj
 0001:00027560       ?setSBCS@@YAXPEAU__crt_multibyte_data@@@Z 0000000180028560 f   libucrt:mbctype.obj
 0001:000275f0       ?setSBUpLow@@YAXPEAU__crt_multibyte_data@@@Z 00000001800285f0 f   libucrt:mbctype.obj
 0001:000277d4       ?setmbcp_internal@@YAHH_N@Z 00000001800287d4 f   libucrt:mbctype.obj
 0001:00027d1c       ?x_ismbbtype_l@@YAHPEAU__crt_locale_pointers@@IHH@Z 0000000180028d1c f   libucrt:ismbbyte.obj
 0001:000286f4       ?__acrt_LCMapStringA_stat@@YAHPEAU__crt_locale_pointers@@PEB_WKPEBDHPEADHHH@Z 00000001800296f4 f   libucrt:lcmapstringa.obj
 0001:0002a3ec       memcpy_s                   000000018002b3ec f   libucrt:cfout.obj
 0001:0002a474       ??$write_buffer_nolock@D@@YA_NDV__crt_stdio_stream@@@Z 000000018002b474 f   libucrt:_flsbuf.obj
 0001:0002a578       ??$write_buffer_nolock@_W@@YA_N_WV__crt_stdio_stream@@@Z 000000018002b578 f   libucrt:_flsbuf.obj
 0001:0002ab24       ?free_crt_array_internal@@YAXQEAPEBX_K@Z 000000018002bb24 f   libucrt:inittime.obj
 0001:0002b274       ?write_double_translated_ansi_nolock@@YA?AUwrite_result@?A0x9c548279@@HQEBDI@Z 000000018002c274 f   libucrt:write.obj
 0001:0002b47c       ?write_text_ansi_nolock@@YA?AUwrite_result@?A0x9c548279@@HQEBDI@Z 000000018002c47c f   libucrt:write.obj
 0001:0002b584       ?write_text_utf16le_nolock@@YA?AUwrite_result@?A0x9c548279@@HQEBDI@Z 000000018002c584 f   libucrt:write.obj
 0001:0002b6a0       ?write_text_utf8_nolock@@YA?AUwrite_result@?A0x9c548279@@HQEBDI@Z 000000018002c6a0 f   libucrt:write.obj
 0001:0002bbe4       ?GetTableIndexFromLocaleName@@YAHPEB_W@Z 000000018002cbe4 f   libucrt:lcidtoname_downlevel.obj
 0001:0002bce0       ?shortsort@@YAXPEAD0_KP6AHPEBX2@Z@Z 000000018002cce0 f   libucrt:qsort.obj
 0001:0002c2f8       ?initialize_multibyte@@YAHXZ 000000018002d2f8 f   libucrt:multibyte_initializer.obj
 0001:0002c570       $$000000                   000000018002d570     libucrt:log10.obj
 0001:0002cb1c       ??$common_lseek@_J@@YA_JH_JH@Z 000000018002db1c f   libucrt:lseek.obj
 0001:0002cc0c       ??$common_lseek_nolock@_J@@YA_JH_JH@Z 000000018002dc0c f   libucrt:lseek.obj
 0001:0002cf98       common_control87           000000018002df98 f   libucrt:ieee.obj
 0001:0002d230       _call_matherr              000000018002e230 f   libucrt:libm_error.obj
 0001:0002d298       _exception_enabled         000000018002e298 f   libucrt:libm_error.obj
 0001:0002d670       _log_special_common        000000018002e670 f   libucrt:log_special.obj
 0001:0002d980       $$000000                   000000018002e980     libucrt:fpsr.obj
 0001:0002e650       $$000000                   000000018002f650     LIBCMT:_chkstk_.obj
 0001:0002e800       $$000000                   000000018002f800     libvcruntime:memcmp.obj
 0001:0002f180       ?CatchIt@@YAXPEAUEHExceptionRecord@@PEA_KPEAU_CONTEXT@@PEAU_xDISPATCHER_CONTEXT@@PEBU_s_FuncInfo@@PEBU_s_HandlerType@@PEBU_s_CatchableType@@PEBU_s_TryBlockMapEntry@@H1EE@Z 0000000180030180 f   libvcruntime:frame.obj
 0001:0002f244       ?ExFilterRethrow@@YAHPEAU_EXCEPTION_POINTERS@@PEAUEHExceptionRecord@@PEAH@Z 0000000180030244 f   libvcruntime:frame.obj
 0001:0002f2cc       ?FindHandler@@YAXPEAUEHExceptionRecord@@PEA_KPEAU_CONTEXT@@PEAU_xDISPATCHER_CONTEXT@@PEBU_s_FuncInfo@@EH1@Z 00000001800302cc f   libvcruntime:frame.obj
 0001:0002f79c       ?FindHandlerForForeignException@@YAXPEAUEHExceptionRecord@@PEA_KPEAU_CONTEXT@@PEAU_xDISPATCHER_CONTEXT@@PEBU_s_FuncInfo@@HH1@Z 000000018003079c f   libvcruntime:frame.obj
 0001:0002fa08       ?IsInExceptionSpec@@YAEPEAUEHExceptionRecord@@PEBU_s_ESTypeList@@@Z 0000000180030a08 f   libvcruntime:frame.obj
 0001:00030530       $$000000                   0000000180031530     libvcruntime:handlers.obj
 0001:00030630       $$000000                   0000000180031630     LIBCMT:_guard_dispatch_.obj
 0001:00030650       ?catch$0@?0??_wrap_vectori_get@@YAXAEBV?$FunctionCallbackInfo@VValue@v8@@@v8@@@Z@4HA 0000000180031650 f   libRVO_wrap.obj
 0001:0003065e       __catch$?_wrap_vectori_get@@YAXAEBV?$FunctionCallbackInfo@VValue@v8@@@v8@@@Z$3 000000018003165e f   libRVO_wrap.obj
 0001:000306f0       ?catch$0@?0??_wrap_vectori_set@@YAXAEBV?$FunctionCallbackInfo@VValue@v8@@@v8@@@Z@4HA 00000001800316f0 f   libRVO_wrap.obj
 0001:000306fe       __catch$?_wrap_vectori_set@@YAXAEBV?$FunctionCallbackInfo@VValue@v8@@@v8@@@Z$4 00000001800316fe f   libRVO_wrap.obj
 0001:00030790       ?catch$0@?0??_wrap_vectord_get@@YAXAEBV?$FunctionCallbackInfo@VValue@v8@@@v8@@@Z@4HA 0000000180031790 f   libRVO_wrap.obj
 0001:0003079e       __catch$?_wrap_vectord_get@@YAXAEBV?$FunctionCallbackInfo@VValue@v8@@@v8@@@Z$3 000000018003179e f   libRVO_wrap.obj
 0001:00030830       ?catch$0@?0??_wrap_vectord_set@@YAXAEBV?$FunctionCallbackInfo@VValue@v8@@@v8@@@Z@4HA 0000000180031830 f   libRVO_wrap.obj
 0001:0003083e       __catch$?_wrap_vectord_set@@YAXAEBV?$FunctionCallbackInfo@VValue@v8@@@v8@@@Z$4 000000018003183e f   libRVO_wrap.obj
 0001:000308d0       ?catch$0@?0??_wrap_vectorline_get@@YAXAEBV?$FunctionCallbackInfo@VValue@v8@@@v8@@@Z@4HA 00000001800318d0 f   libRVO_wrap.obj
 0001:000308de       __catch$?_wrap_vectorline_get@@YAXAEBV?$FunctionCallbackInfo@VValue@v8@@@v8@@@Z$3 00000001800318de f   libRVO_wrap.obj
 0001:00030970       ?catch$0@?0??_wrap_vectorline_set@@YAXAEBV?$FunctionCallbackInfo@VValue@v8@@@v8@@@Z@4HA 0000000180031970 f   libRVO_wrap.obj
 0001:0003097e       __catch$?_wrap_vectorline_set@@YAXAEBV?$FunctionCallbackInfo@VValue@v8@@@v8@@@Z$5 000000018003197e f   libRVO_wrap.obj
 0001:00030a10       ?catch$0@?0??_wrap_vectorvector_get@@YAXAEBV?$FunctionCallbackInfo@VValue@v8@@@v8@@@Z@4HA 0000000180031a10 f   libRVO_wrap.obj
 0001:00030a1e       __catch$?_wrap_vectorvector_get@@YAXAEBV?$FunctionCallbackInfo@VValue@v8@@@v8@@@Z$3 0000000180031a1e f   libRVO_wrap.obj
 0001:00030ab0       ?catch$0@?0??_wrap_vectorvector_set@@YAXAEBV?$FunctionCallbackInfo@VValue@v8@@@v8@@@Z@4HA 0000000180031ab0 f   libRVO_wrap.obj
 0001:00030abe       __catch$?_wrap_vectorvector_set@@YAXAEBV?$FunctionCallbackInfo@VValue@v8@@@v8@@@Z$5 0000000180031abe f   libRVO_wrap.obj
 0001:00030b4e       __scrt_is_nonwritable_in_current_image$filt$0 0000000180031b4e f   LIBCMT:utility.obj
 0001:00030b66       ?fin$0@?0??dllmain_crt_process_attach@@YAHQEAUHINSTANCE__@@QEAX@Z@4HA 0000000180031b66 f   LIBCMT:dll_dllmain.obj
 0001:00030b7d       ?fin$0@?0??dllmain_crt_process_detach@@YAH_N@Z@4HA 0000000180031b7d f   LIBCMT:dll_dllmain.obj
 0001:00030b99       ?filt$0@?0??dllmain_dispatch@@YAHQEAUHINSTANCE__@@KQEAX@Z@4HA 0000000180031b99 f   LIBCMT:dll_dllmain.obj
 0001:00030bcf       _query_new_handler$fin$0   0000000180031bcf f   libucrt:new_handler.obj
 0001:00030be5       ?filt$0@?0??common_exit@@YAXHW4_crt_exit_cleanup_mode@@W4_crt_exit_return_mode@@@Z@4HA 0000000180031be5 f   libucrt:exit.obj
 0001:00030c00       ?fin$1@?0??common_exit@@YAXHW4_crt_exit_cleanup_mode@@W4_crt_exit_return_mode@@@Z@4HA 0000000180031c00 f   libucrt:exit.obj
 0001:00030c19       ?fin$0@?0???$?RV<lambda_e24bbb7b643b32fcea6fa61b31d4c984>@@AEAV<lambda_275893d493268fdec8709772e3fcec0e>@@V<lambda_9d71df4d7cf3f480f8d633942495c3b0>@@@?$__crt_seh_guarded_call@H@@QEAAH$$QEAV<lambda_e24bbb7b643b32fcea6fa61b31d4c984>@@AEAV<lambda_275893d493268fdec8709772e3fcec0e>@@$$QEAV<lambda_9d71df4d7cf3f480f8d633942495c3b0>@@@Z@4HA 0000000180031c19 f   libucrt:onexit.obj
 0001:00030c36       __acrt_lowio_ensure_fh_exists$fin$0 0000000180031c36 f   libucrt:osfinfo.obj
 0001:00030c36       __acrt_initialize_lowio$fin$0 0000000180031c36 f   libucrt:ioinit.obj
 0001:00030c4f       common_flush_all$fin$0     0000000180031c4f f   libucrt:fflush.obj
 0001:00030c69       common_flush_all$fin$1     0000000180031c69 f   libucrt:fflush.obj
 0001:00030c82       ?fin$0@?0???$?RV<lambda_7b91131dde12e1c3dfc74ff76b3f2eac>@@AEAV<lambda_dd75445284c072d0bd3768540cc698fa>@@V<lambda_16bc4ecb55b4718497c16bceaea2ceaf>@@@?$__crt_seh_guarded_call@H@@QEAAH$$QEAV<lambda_7b91131dde12e1c3dfc74ff76b3f2eac>@@AEAV<lambda_dd75445284c072d0bd3768540cc698fa>@@$$QEAV<lambda_16bc4ecb55b4718497c16bceaea2ceaf>@@@Z@4HA 0000000180031c82 f   libucrt:output.obj
 0001:00030c82       ?fin$0@?0???$?RV<lambda_7a5ef57ff966f610505f1d28a3d40618>@@AEAV<lambda_b721fa326cdb32351d23dfa67958c160>@@V<lambda_5e0fb27672408a07956fe59e48ccb2aa>@@@?$__crt_seh_guarded_call@H@@QEAAH$$QEAV<lambda_7a5ef57ff966f610505f1d28a3d40618>@@AEAV<lambda_b721fa326cdb32351d23dfa67958c160>@@$$QEAV<lambda_5e0fb27672408a07956fe59e48ccb2aa>@@@Z@4HA 0000000180031c82 f   libucrt:setvbuf.obj
 0001:00030c9d       ?fin$0@?0???$?RV<lambda_b8c45f8f788dd370798f47cfe8ac3a86>@@AEAV<lambda_4e60a939b0d047cfe11ddc22648dfba9>@@V<lambda_332c3edc96d0294ec56c57d38c1cdfd5>@@@?$__crt_seh_guarded_call@H@@QEAAH$$QEAV<lambda_b8c45f8f788dd370798f47cfe8ac3a86>@@AEAV<lambda_4e60a939b0d047cfe11ddc22648dfba9>@@$$QEAV<lambda_332c3edc96d0294ec56c57d38c1cdfd5>@@@Z@4HA 0000000180031c9d f   libucrt:onexit.obj
 0001:00030c9d       ?fin$0@?0???$?RV<lambda_5e887d1dcbef67a5eb4283622ba103bf>@@AEAV<lambda_4466841279450cc726390878d4a41900>@@V<lambda_341c25c0346d94847f1f3c463c57e077>@@@?$__crt_seh_guarded_call@X@@QEAAX$$QEAV<lambda_5e887d1dcbef67a5eb4283622ba103bf>@@AEAV<lambda_4466841279450cc726390878d4a41900>@@$$QEAV<lambda_341c25c0346d94847f1f3c463c57e077>@@@Z@4HA 0000000180031c9d f   libucrt:per_thread_data.obj
 0001:00030c9d       ?fin$0@?0???$?RV<lambda_99476a1ad63dd22509b5d3e65b0ffc95>@@AEAV<lambda_ad1ced32f4ac17aa236e5ef05d6b3b7c>@@V<lambda_f7424dd8d45958661754dc4f2697e9c3>@@@?$__crt_seh_guarded_call@X@@QEAAX$$QEAV<lambda_99476a1ad63dd22509b5d3e65b0ffc95>@@AEAV<lambda_ad1ced32f4ac17aa236e5ef05d6b3b7c>@@$$QEAV<lambda_f7424dd8d45958661754dc4f2697e9c3>@@@Z@4HA 0000000180031c9d f   libucrt:mbctype.obj
 0001:00030c9d       ?fin$0@?0???$?RV<lambda_72d1df2b273a38828b1ce30cbf4cdab5>@@AEAV<lambda_876a65b173b8412d3a47c70a915b0cf4>@@V<lambda_41932305e351933ebe8f8be3ed8bb5dc>@@@?$__crt_seh_guarded_call@X@@QEAAX$$QEAV<lambda_72d1df2b273a38828b1ce30cbf4cdab5>@@AEAV<lambda_876a65b173b8412d3a47c70a915b0cf4>@@$$QEAV<lambda_41932305e351933ebe8f8be3ed8bb5dc>@@@Z@4HA 0000000180031c9d f   libucrt:per_thread_data.obj
 0001:00030c9d       ?fin$0@?0???$?RV<lambda_fb3a7dec4e47f37f22dae91bb15c9095>@@AEAV<lambda_698284760c8add0bfb0756c19673e34b>@@V<lambda_dfb8eca1e75fef3034a8fb18dd509707>@@@?$__crt_seh_guarded_call@X@@QEAAX$$QEAV<lambda_fb3a7dec4e47f37f22dae91bb15c9095>@@AEAV<lambda_698284760c8add0bfb0756c19673e34b>@@$$QEAV<lambda_dfb8eca1e75fef3034a8fb18dd509707>@@@Z@4HA 0000000180031c9d f   libucrt:per_thread_data.obj
 0001:00030c9d       ?fin$0@?0???$?RV<lambda_46352004c1216016012b18bd6f87e700>@@AEAV<lambda_3bd07e1a1191394380780325891bf33f>@@V<lambda_334532d3f185bcaa59b5be82d7d22bff>@@@?$__crt_seh_guarded_call@X@@QEAAX$$QEAV<lambda_46352004c1216016012b18bd6f87e700>@@AEAV<lambda_3bd07e1a1191394380780325891bf33f>@@$$QEAV<lambda_334532d3f185bcaa59b5be82d7d22bff>@@@Z@4HA 0000000180031c9d f   libucrt:per_thread_data.obj
 0001:00030c9d       ?fin$0@?0???$?RV<lambda_c36588078e9f5dfd39652860aa6b3aaf>@@AEAV<lambda_ec61778202f4f5fc7e7711acc23c3bca>@@V<lambda_dc9d2797ccde5d239b4a0efae8ebd7db>@@@?$__crt_seh_guarded_call@P6AXH@Z@@QEAAP6AXH@Z$$QEAV<lambda_c36588078e9f5dfd39652860aa6b3aaf>@@AEAV<lambda_ec61778202f4f5fc7e7711acc23c3bca>@@$$QEAV<lambda_dc9d2797ccde5d239b4a0efae8ebd7db>@@@Z@4HA 0000000180031c9d f   libucrt:signal.obj
 0001:00030cb7       raise$fin$0                0000000180031cb7 f   libucrt:signal.obj
 0001:00030cdb       __acrt_update_thread_multibyte_data$fin$0 0000000180031cdb f   libucrt:mbctype.obj
 0001:00030cf4       __acrt_update_thread_locale_data$fin$0 0000000180031cf4 f   libucrt:locale_refcounting.obj
 0001:00030cf4       __acrt_uninitialize_locale$fin$0 0000000180031cf4 f   libucrt:wsetlocale.obj
 0001:00030d0d       _fcloseall$fin$0           0000000180031d0d f   libucrt:closeall.obj
 0001:00030d26       ?fin$0@?0???$?RV<lambda_b521505b218e5242e90febf6bfebc422>@@AEAV<lambda_6978c1fb23f02e42e1d9e99668cc68aa>@@V<lambda_314360699dd331753a4119843814e9a7>@@@?$__crt_seh_guarded_call@H@@QEAAH$$QEAV<lambda_b521505b218e5242e90febf6bfebc422>@@AEAV<lambda_6978c1fb23f02e42e1d9e99668cc68aa>@@$$QEAV<lambda_314360699dd331753a4119843814e9a7>@@@Z@4HA 0000000180031d26 f   libucrt:commit.obj
 0001:00030d26       ?fin$0@?0???$?RV<lambda_bfedae4ebbf01fab1bb6dcc6a9e276e0>@@AEAV<lambda_2fe9b910cf3cbf4a0ab98a02ba45b3ec>@@V<lambda_237c231691f317818eb88cc1d5d642d6>@@@?$__crt_seh_guarded_call@H@@QEAAH$$QEAV<lambda_bfedae4ebbf01fab1bb6dcc6a9e276e0>@@AEAV<lambda_2fe9b910cf3cbf4a0ab98a02ba45b3ec>@@$$QEAV<lambda_237c231691f317818eb88cc1d5d642d6>@@@Z@4HA 0000000180031d26 f   libucrt:close.obj
 0001:00030d40       _write$fin$0               0000000180031d40 f   libucrt:write.obj
 0001:00030d40       ?fin$0@?0???$common_lseek@_J@@YA_JH_JH@Z@4HA 0000000180031d40 f   libucrt:lseek.obj
 0001:00030d57       fflush$fin$0               0000000180031d57 f   libucrt:fflush.obj
 0001:00030d57       fclose$fin$0               0000000180031d57 f   libucrt:fclose.obj
 0001:00030d6f       _ctrlfp$filt$0             0000000180031d6f f   libucrt:fpctrl.obj
 0001:00030d6f       common_control87$filt$0    0000000180031d6f f   libucrt:ieee.obj
 0001:00030da0       _IsNonwritableInCurrentImage$filt$0 0000000180031da0 f   LIBCMT:pesect.obj
 0001:00030dc0       _CallSETranslator$filt$0   0000000180031dc0 f   libvcruntime:trnsctrl.obj
 0001:00030e0c       __CxxCallCatchBlock$filt$0 0000000180031e0c f   libvcruntime:frame.obj
 0001:00030e31       __CxxCallCatchBlock$fin$1  0000000180031e31 f   libvcruntime:frame.obj
 0001:00030ea9       __DestructExceptionObject$filt$0 0000000180031ea9 f   libvcruntime:frame.obj
 0001:00030ec1       __FrameUnwindToState$filt$0 0000000180031ec1 f   libvcruntime:frame.obj
 0001:00030ed7       __FrameUnwindToState$fin$1 0000000180031ed7 f   libvcruntime:frame.obj
 0001:00030f00       ??__FSWIGV8_ErrorHandler@@YAXXZ 0000000180031f00 f   libRVO_wrap.obj
 0001:00030f10       ??__FSWIGV8_SWIGTYPE_Proxy_class_templ@@YAXXZ 0000000180031f10 f   libRVO_wrap.obj
 0001:00030f20       ??__F_exports_Vector2_clientData@@YAXXZ 0000000180031f20 f   libRVO_wrap.obj
 0001:00030f30       ??__F_exports_Agent_clientData@@YAXXZ 0000000180031f30 f   libRVO_wrap.obj
 0001:00030f40       ??__F_exports_Obstacle_clientData@@YAXXZ 0000000180031f40 f   libRVO_wrap.obj
 0001:00030f50       ??__F_exports_KdTree_clientData@@YAXXZ 0000000180031f50 f   libRVO_wrap.obj
 0001:00030f60       ??__F_exports_Line_clientData@@YAXXZ 0000000180031f60 f   libRVO_wrap.obj
 0001:00030f70       ??__F_exports_RVOSimulator_clientData@@YAXXZ 0000000180031f70 f   libRVO_wrap.obj
 0001:00030f80       ??__F_exports_vectori_clientData@@YAXXZ 0000000180031f80 f   libRVO_wrap.obj
 0001:00030f90       ??__F_exports_vectord_clientData@@YAXXZ 0000000180031f90 f   libRVO_wrap.obj
 0001:00030fa0       ??__F_exports_vectorline_clientData@@YAXXZ 0000000180031fa0 f   libRVO_wrap.obj
 0001:00030fb0       ??__F_exports_vectorvector_clientData@@YAXXZ 0000000180031fb0 f   libRVO_wrap.obj
 0002:00000290       ?SWIGV8_ErrorHandler$initializer$@@3P6AXXZEA 0000000180032290     libRVO_wrap.obj
 0002:00000298       ?SWIGV8_SWIGTYPE_Proxy_class_templ$initializer$@@3P6AXXZEA 0000000180032298     libRVO_wrap.obj
 0002:000002a0       ?_exports_Vector2_clientData$initializer$@@3P6AXXZEA 00000001800322a0     libRVO_wrap.obj
 0002:000002a8       ?_exports_Agent_clientData$initializer$@@3P6AXXZEA 00000001800322a8     libRVO_wrap.obj
 0002:000002b0       ?_exports_Obstacle_clientData$initializer$@@3P6AXXZEA 00000001800322b0     libRVO_wrap.obj
 0002:000002b8       ?_exports_KdTree_clientData$initializer$@@3P6AXXZEA 00000001800322b8     libRVO_wrap.obj
 0002:000002c0       ?_exports_Line_clientData$initializer$@@3P6AXXZEA 00000001800322c0     libRVO_wrap.obj
 0002:000002c8       ?_exports_RVOSimulator_clientData$initializer$@@3P6AXXZEA 00000001800322c8     libRVO_wrap.obj
 0002:000002d0       ?_exports_vectori_clientData$initializer$@@3P6AXXZEA 00000001800322d0     libRVO_wrap.obj
 0002:000002d8       ?_exports_vectord_clientData$initializer$@@3P6AXXZEA 00000001800322d8     libRVO_wrap.obj
 0002:000002e0       ?_exports_vectorline_clientData$initializer$@@3P6AXXZEA 00000001800322e0     libRVO_wrap.obj
 0002:000002e8       ?_exports_vectorvector_clientData$initializer$@@3P6AXXZEA 00000001800322e8     libRVO_wrap.obj
 0002:00000428       GS_ExceptionPointers       0000000180032428     LIBCMT:gs_report.obj
 0002:00000470       ?ExceptionTemplate@?1??_CxxThrowException@@9@4UEHExceptionRecord@@B 0000000180032470     libvcruntime:throw.obj
 0002:000004b0       ?module_names@?A0x679b24ab@@3QBQEB_WB 00000001800324b0     libvcruntime:winapi_downlevel.obj
 0002:00000580       ?candidate_modules@?1??try_get_FlsAlloc@@YAP6AKP6AXPEAX@Z@ZXZ@4QBW4module_id@?A0x679b24ab@@B 0000000180032580     libvcruntime:winapi_downlevel.obj
 0002:00000598       ?candidate_modules@?1??try_get_FlsFree@@YAP6AHK@ZXZ@4QBW4module_id@?A0x679b24ab@@B 0000000180032598     libvcruntime:winapi_downlevel.obj
 0002:000005a8       ?candidate_modules@?1??try_get_FlsGetValue@@YAP6APEAXK@ZXZ@4QBW4module_id@?A0x679b24ab@@B 00000001800325a8     libvcruntime:winapi_downlevel.obj
 0002:000005c0       ?candidate_modules@?1??try_get_FlsSetValue@@YAP6AHKPEAX@ZXZ@4QBW4module_id@?A0x679b24ab@@B 00000001800325c0     libvcruntime:winapi_downlevel.obj
 0002:000005d8       ?candidate_modules@?1??try_get_InitializeCriticalSectionEx@@YAP6AHPEAU_RTL_CRITICAL_SECTION@@KK@ZXZ@4QBW4module_id@?A0x679b24ab@@B 00000001800325d8     libvcruntime:winapi_downlevel.obj
 0002:00000600       ?tokenTable@@3QBQEBDB      0000000180032600     libvcruntime:undname.obj
 0002:00000670       ?nameTable@@3QBQEBDB       0000000180032670     libvcruntime:undname.obj
 0002:000008f8       ?rttiTable@@3QBQEBDB       00000001800328f8     libvcruntime:undname.obj
 0002:000013e0       __acrt_initializers        00000001800333e0     libucrt:initialization.obj
 0002:000014d0       errtable                   00000001800334d0     libucrt:errno.obj
 0002:00001d10       module_names               0000000180033d10     libucrt:winapi_thunks.obj
 0002:00002240       ?candidate_modules@?1??try_get_FlsAlloc@@YAP6AKP6AXPEAX@Z@ZXZ@4QBW4module_id@?A0x63058377@@B 0000000180034240     libucrt:winapi_thunks.obj
 0002:00002248       ?candidate_modules@?1??try_get_FlsFree@@YAP6AHK@ZXZ@4QBW4module_id@?A0x63058377@@B 0000000180034248     libucrt:winapi_thunks.obj
 0002:00002250       ?candidate_modules@?1??try_get_FlsGetValue@@YAP6APEAXK@ZXZ@4QBW4module_id@?A0x63058377@@B 0000000180034250     libucrt:winapi_thunks.obj
 0002:00002258       ?candidate_modules@?1??try_get_FlsSetValue@@YAP6AHKPEAX@ZXZ@4QBW4module_id@?A0x63058377@@B 0000000180034258     libucrt:winapi_thunks.obj
 0002:00002260       ?candidate_modules@?1??try_get_GetActiveWindow@@YAP6APEAUHWND__@@XZXZ@4QBW4module_id@?A0x63058377@@B 0000000180034260     libucrt:winapi_thunks.obj
 0002:00002278       ?candidate_modules@?1??try_get_GetCurrentPackageId@@YAP6AJPEAIPEAE@ZXZ@4QBW4module_id@?A0x63058377@@B 0000000180034278     libucrt:winapi_thunks.obj
 0002:00002298       ?candidate_modules@?1??try_get_GetLastActivePopup@@YAP6APEAUHWND__@@PEAU2@@ZXZ@4QBW4module_id@?A0x63058377@@B 0000000180034298     libucrt:winapi_thunks.obj
 0002:000022b8       ?candidate_modules@?1??try_get_GetProcessWindowStation@@YAP6APEAUHWINSTA__@@XZXZ@4QBW4module_id@?A0x63058377@@B 00000001800342b8     libucrt:winapi_thunks.obj
 0002:000022d8       ?candidate_modules@?1??try_get_GetUserObjectInformationW@@YAP6AHPEAXH0KPEAK@ZXZ@4QBW4module_id@?A0x63058377@@B 00000001800342d8     libucrt:winapi_thunks.obj
 0002:00002300       ?candidate_modules@?1??try_get_InitializeCriticalSectionEx@@YAP6AHPEAU_RTL_CRITICAL_SECTION@@KK@ZXZ@4QBW4module_id@?A0x63058377@@B 0000000180034300     libucrt:winapi_thunks.obj
 0002:00002308       ?candidate_modules@?1??try_get_LCMapStringEx@@YAP6AHPEB_WK0HPEA_WHPEAU_nlsversioninfo@@PEAX_J@ZXZ@4QBW4module_id@?A0x63058377@@B 0000000180034308     libucrt:winapi_thunks.obj
 0002:00002320       ?candidate_modules@?1??try_get_LocaleNameToLCID@@YAP6AKPEB_WK@ZXZ@4QBW4module_id@?A0x63058377@@B 0000000180034320     libucrt:winapi_thunks.obj
 0002:00002340       ?candidate_modules@?1??try_get_MessageBoxA@@YAP6AHPEAUHWND__@@PEBD1I@ZXZ@4QBW4module_id@?A0x63058377@@B 0000000180034340     libucrt:winapi_thunks.obj
 0002:00002358       ?candidate_modules@?1??try_get_MessageBoxW@@YAP6AHPEAUHWND__@@PEB_W1I@ZXZ@4QBW4module_id@?A0x63058377@@B 0000000180034358     libucrt:winapi_thunks.obj
 0002:00002370       _mb_locale_names           0000000180034370     libucrt:mbctype.obj
 0002:000035e0       LcidToLocaleNameTable      00000001800355e0     libucrt:lcidtoname_downlevel.obj
 0002:00005040       LocaleNameToIndexTable     0000000180037040     libucrt:lcidtoname_downlevel.obj
 0002:000068e0       __real_ninf                00000001800388e0     libucrt:log10.obj
 0002:000068f0       __real_inf                 00000001800388f0     libucrt:log10.obj
 0002:00006900       __real_neg_qnan            0000000180038900     libucrt:log10.obj
 0002:00006910       __real_qnanbit             0000000180038910     libucrt:log10.obj
 0002:00006920       __int_1023                 0000000180038920     libucrt:log10.obj
 0002:00006930       __mask_001                 0000000180038930     libucrt:log10.obj
 0002:00006940       __mask_mant                0000000180038940     libucrt:log10.obj
 0002:00006950       __mask_mant_top8           0000000180038950     libucrt:log10.obj
 0002:00006960       __mask_mant9               0000000180038960     libucrt:log10.obj
 0002:00006970       __real_log10_e             0000000180038970     libucrt:log10.obj
 0002:00006980       __real_log10_e_lead        0000000180038980     libucrt:log10.obj
 0002:00006990       __real_log10_e_tail        0000000180038990     libucrt:log10.obj
 0002:000069a0       __real_log10_2_lead        00000001800389a0     libucrt:log10.obj
 0002:000069b0       __real_log10_2_tail        00000001800389b0     libucrt:log10.obj
 0002:000069c0       __real_two                 00000001800389c0     libucrt:log10.obj
 0002:000069d0       __real_one                 00000001800389d0     libucrt:log10.obj
 0002:000069e0       __real_half                00000001800389e0     libucrt:log10.obj
 0002:000069f0       __mask_100                 00000001800389f0     libucrt:log10.obj
 0002:00006a00       __real_1_over_512          0000000180038a00     libucrt:log10.obj
 0002:00006a10       __real_1_over_2            0000000180038a10     libucrt:log10.obj
 0002:00006a20       __real_1_over_3            0000000180038a20     libucrt:log10.obj
 0002:00006a30       __real_1_over_4            0000000180038a30     libucrt:log10.obj
 0002:00006a40       __real_1_over_5            0000000180038a40     libucrt:log10.obj
 0002:00006a50       __real_1_over_6            0000000180038a50     libucrt:log10.obj
 0002:00006a60       __real_neg_1023            0000000180038a60     libucrt:log10.obj
 0002:00006a70       __mask_2045                0000000180038a70     libucrt:log10.obj
 0002:00006a80       __real_threshold           0000000180038a80     libucrt:log10.obj
 0002:00006a90       __real_near_one_lt         0000000180038a90     libucrt:log10.obj
 0002:00006aa0       __real_near_one_gt         0000000180038aa0     libucrt:log10.obj
 0002:00006ab0       __real_min_norm            0000000180038ab0     libucrt:log10.obj
 0002:00006ac0       __real_notsign             0000000180038ac0     libucrt:log10.obj
 0002:00006ad0       __real_ca1                 0000000180038ad0     libucrt:log10.obj
 0002:00006ae0       __real_ca2                 0000000180038ae0     libucrt:log10.obj
 0002:00006af0       __real_ca3                 0000000180038af0     libucrt:log10.obj
 0002:00006b00       __real_ca4                 0000000180038b00     libucrt:log10.obj
 0002:00006b10       __mask_lower               0000000180038b10     libucrt:log10.obj
 0002:00006b20       __flag_x_zero              0000000180038b20     libucrt:log10.obj
 0002:00006b24       __flag_x_neg               0000000180038b24     libucrt:log10.obj
 0002:00006b28       __flag_x_nan               0000000180038b28     libucrt:log10.obj
 0002:00008380       __real@433fffffffffffff    000000018003a380     libucrt:fpsr.obj
 0002:00008388       __real@c33fffffffffffff    000000018003a388     libucrt:fpsr.obj
 0002:000102a8       $cppxdata$?_wrap_vectorvector_set@@YAXAEBV?$FunctionCallbackInfo@VValue@v8@@@v8@@@Z 00000001800422a8     libRVO_wrap.obj
 0002:000102d0       $cppxdata$?_wrap_vectorvector_get@@YAXAEBV?$FunctionCallbackInfo@VValue@v8@@@v8@@@Z 00000001800422d0     libRVO_wrap.obj
 0002:000102f8       $cppxdata$?_wrap_vectorline_set@@YAXAEBV?$FunctionCallbackInfo@VValue@v8@@@v8@@@Z 00000001800422f8     libRVO_wrap.obj
 0002:00010320       $cppxdata$?_wrap_vectorline_get@@YAXAEBV?$FunctionCallbackInfo@VValue@v8@@@v8@@@Z 0000000180042320     libRVO_wrap.obj
 0002:00010348       $cppxdata$?_wrap_vectord_set@@YAXAEBV?$FunctionCallbackInfo@VValue@v8@@@v8@@@Z 0000000180042348     libRVO_wrap.obj
 0002:00010370       $cppxdata$?_wrap_vectord_get@@YAXAEBV?$FunctionCallbackInfo@VValue@v8@@@v8@@@Z 0000000180042370     libRVO_wrap.obj
 0002:00010398       $cppxdata$?_wrap_vectori_set@@YAXAEBV?$FunctionCallbackInfo@VValue@v8@@@v8@@@Z 0000000180042398     libRVO_wrap.obj
 0002:000103c0       $cppxdata$?_wrap_vectori_get@@YAXAEBV?$FunctionCallbackInfo@VValue@v8@@@v8@@@Z 00000001800423c0     libRVO_wrap.obj
 0002:00010440       ?ExceptionTemplate@?1??_UnwindNestedFrames@@9@4U_EXCEPTION_RECORD@@B 0000000180042440     libvcruntime:trnsctrl.obj
 0002:00010d80       $unwind$fwprintf           0000000180042d80     libucrt:assert.obj
 0002:00010d80       $unwind$sprintf            0000000180042d80     libRVO_wrap.obj
 0002:00010d8c       $unwind$??0?$output_processor@_WV?$string_output_adapter@_W@__crt_stdio_output@@V?$standard_base@_WV?$string_output_adapter@_W@__crt_stdio_output@@@2@@__crt_stdio_output@@QEAA@AEBV?$string_output_adapter@_W@1@_KQEB_WQEAU__crt_locale_pointers@@QEAD@Z 0000000180042d8c     libucrt:output.obj
 0002:00010d8c       $unwind$?type_case_integer@?$output_processor@_WV?$stream_output_adapter@_W@__crt_stdio_output@@V?$standard_base@_WV?$stream_output_adapter@_W@__crt_stdio_output@@@2@@__crt_stdio_output@@AEAA_NI_N@Z 0000000180042d8c     libucrt:output.obj
 0002:00010d8c       $unwind$??_Gexception@stdext@@UEAAPEAXI@Z 0000000180042d8c     libRVO_wrap.obj
 0002:00010d8c       $unwind$__acrt_uninitialize_stdio 0000000180042d8c     libucrt:_file.obj
 0002:00010d8c       $unwind$??_GV8ErrorHandler@@UEAAPEAXI@Z 0000000180042d8c     libRVO_wrap.obj
 0002:00010d8c       $unwind$_setfpstatusword   0000000180042d8c     libucrt:_fenvutils.obj
 0002:00010d8c       $unwind$??_Gout_of_range@std@@UEAAPEAXI@Z 0000000180042d8c     libRVO_wrap.obj
 0002:00010d8c       $unwind$_IsExceptionObjectToBeDestroyed 0000000180042d8c     libvcruntime:trnsctrl.obj
 0002:00010d8c       $unwind$_CreateFrameInfo   0000000180042d8c     libvcruntime:trnsctrl.obj
 0002:00010d8c       $unwind$?SWIGV8_Proxy_DefaultDtor@@YAXAEBV?$WeakCallbackData@VObject@v8@@VSWIGV8_Proxy@@@v8@@@Z 0000000180042d8c     libRVO_wrap.obj
 0002:00010d8c       $unwind$?__StateFromIp@@YAHPEBU_s_FuncInfo@@PEAU_xDISPATCHER_CONTEXT@@_J@Z 0000000180042d8c     libvcruntime:ehstate.obj
 0002:00010d8c       $unwind$??0bad_array_new_length@std@@QEAA@AEBV01@@Z 0000000180042d8c     LIBCMT:throw_bad_alloc.obj
 0002:00010d8c       $unwind$??0?$output_processor@_WV?$stream_output_adapter@_W@__crt_stdio_output@@V?$standard_base@_WV?$stream_output_adapter@_W@__crt_stdio_output@@@2@@__crt_stdio_output@@QEAA@AEBV?$stream_output_adapter@_W@1@_KQEB_WQEAU__crt_locale_pointers@@QEAD@Z 0000000180042d8c     libucrt:output.obj
 0002:00010d8c       $unwind$__vcrt_uninitialize_locks 0000000180042d8c     libvcruntime:locks.obj
 0002:00010d8c       $unwind$__vcrt_initialize_locks 0000000180042d8c     libvcruntime:locks.obj
 0002:00010d8c       $unwind$?load_exe_hook@@YAP6A_JXZIPEAUDelayLoadInfo@@@Z 0000000180042d8c     win_delay_load_hook.obj
 0002:00010d8c       $unwind$__acrt_update_locale_info 0000000180042d8c     libucrt:locale_update.obj
 0002:00010d8c       $unwind$?_Tidy@?$vector@U?$pair@MPEBVAgent@RVO@@@std@@V?$allocator@U?$pair@MPEBVAgent@RVO@@@std@@@2@@std@@IEAAXXZ 0000000180042d8c     libRVO_wrap.obj
 0002:00010d8c       $unwind$__acrt_update_multibyte_info 0000000180042d8c     libucrt:locale_update.obj
 0002:00010d8c       $unwind$_calloc_base       0000000180042d8c     libucrt:calloc_base.obj
 0002:00010d8c       $unwind$__std_type_info_destroy_list 0000000180042d8c     libvcruntime:std_type_info.obj
 0002:00010d8c       $unwind$?_wrap_delete_RVOSimulator@@YAXAEBV?$WeakCallbackData@VObject@v8@@VSWIGV8_Proxy@@@v8@@@Z 0000000180042d8c     libRVO_wrap.obj
 0002:00010d8c       $unwind$?_Tidy@?$vector@U?$pair@MPEBVObstacle@RVO@@@std@@V?$allocator@U?$pair@MPEBVObstacle@RVO@@@std@@@2@@std@@IEAAXXZ 0000000180042d8c     libRVO_wrap.obj
 0002:00010d8c       $unwind$__std_exception_destroy 0000000180042d8c     libvcruntime:std_exception.obj
 0002:00010d8c       $unwind$__acrt_freeptd     0000000180042d8c     libucrt:per_thread_data.obj
 0002:00010d8c       $unwind$_fflush_nolock     0000000180042d8c     libucrt:fflush.obj
 0002:00010d8c       $unwind$__vcrt_freeptd     0000000180042d8c     libvcruntime:per_thread_data.obj
 0002:00010d8c       $unwind$??0bad_exception@std@@QEAA@AEBV01@@Z 0000000180042d8c     libvcruntime:frame.obj
 0002:00010d8c       $unwind$?DloadReleaseSectionWriteAccess@@YAXXZ 0000000180042d8c     DelayImp:delayhlp.obj
 0002:00010d8c       $unwind$__acrt_initialize_locks 0000000180042d8c     libucrt:locks.obj
 0002:00010d8c       $unwind$??_GOverloadErrorHandler@@UEAAPEAXI@Z 0000000180042d8c     libRVO_wrap.obj
 0002:00010d8c       $unwind$__acrt_uninitialize_locks 0000000180042d8c     libucrt:locks.obj
 0002:00010d8c       $unwind$__acrt_stdio_free_buffer_nolock 0000000180042d8c     libucrt:_freebuf.obj
 0002:00010d8c       $unwind$??2@YAPEAX_K@Z     0000000180042d8c     LIBCMT:new_scalar.obj
 0002:00010d8c       $unwind$?_Tidy@?$vector@VLine@RVO@@V?$allocator@VLine@RVO@@@std@@@std@@IEAAXXZ 0000000180042d8c     libRVO_wrap.obj
 0002:00010d8c       $unwind$__acrt_fp_strflt_to_string 0000000180042d8c     libucrt:_fptostr.obj
 0002:00010d8c       $unwind$__acrt_stdio_allocate_buffer_nolock 0000000180042d8c     libucrt:_getbuf.obj
 0002:00010d8c       $unwind$__raise_securityfailure 0000000180042d8c     LIBCMT:gs_report.obj
 0002:00010d8c       $unwind$__acrt_allocate_buffer_for_argv 0000000180042d8c     libucrt:argv_parsing.obj
 0002:00010d8c       $unwind$?_wrap_delete_Line@@YAXAEBV?$WeakCallbackData@VObject@v8@@VSWIGV8_Proxy@@@v8@@@Z 0000000180042d8c     libRVO_wrap.obj
 0002:00010d8c       $unwind$__scrt_uninitialize_crt 0000000180042d8c     LIBCMT:utility.obj
 0002:00010d8c       $unwind$__scrt_initialize_crt 0000000180042d8c     LIBCMT:utility.obj
 0002:00010d8c       $unwind$?type_case_integer@?$output_processor@DV?$string_output_adapter@D@__crt_stdio_output@@V?$standard_base@DV?$string_output_adapter@D@__crt_stdio_output@@@2@@__crt_stdio_output@@AEAA_NI_N@Z 0000000180042d8c     libucrt:output.obj
 0002:00010d8c       $unwind$??0length_error@std@@QEAA@AEBV01@@Z 0000000180042d8c     libcpmt:xthrow.obj
 0002:00010d8c       $unwind$??0bad_alloc@std@@QEAA@AEBV01@@Z 0000000180042d8c     libcpmt:xthrow.obj
 0002:00010d8c       $unwind$__scrt_release_startup_lock 0000000180042d8c     LIBCMT:utility.obj
 0002:00010d8c       $unwind$__acrt_can_show_message_box 0000000180042d8c     libucrt:winapi_thunks.obj
 0002:00010d8c       $unwind$__acrt_uninitialize_winapi_thunks 0000000180042d8c     libucrt:winapi_thunks.obj
 0002:00010d8c       $unwind$?_wrap_delete_vectorline@@YAXAEBV?$WeakCallbackData@VObject@v8@@VSWIGV8_Proxy@@@v8@@@Z 0000000180042d8c     libRVO_wrap.obj
 0002:00010d8c       $unwind$initialize_pointers 0000000180042d8c     libucrt:initialization.obj
 0002:00010d8c       $unwind$_set_statfp        0000000180042d8c     libucrt:fpctrl.obj
 0002:00010d8c       $unwind$_onexit            0000000180042d8c     LIBCMT:utility.obj
 0002:00010d8c       $unwind$_clrfp             0000000180042d8c     libucrt:fpctrl.obj
 0002:00010d8c       $unwind$uninitialize_allocated_memory 0000000180042d8c     libucrt:initialization.obj
 0002:00010d8c       $unwind$?exit_or_terminate_process@@YAXI@Z 0000000180042d8c     libucrt:exit.obj
 0002:00010d8c       $unwind$??0exception@std@@QEAA@AEBV01@@Z 0000000180042d8c     libcpmt:xthrow.obj
 0002:00010d8c       $unwind$?buildAgentTree@KdTree@RVO@@AEAAXXZ 0000000180042d8c     KdTree.obj
 0002:00010d8c       $unwind$_clearfp           0000000180042d8c     libucrt:ieee.obj
 0002:00010d8c       $unwind$_SetImageBase      0000000180042d8c     libvcruntime:trnsctrl.obj
 0002:00010d8c       $unwind$_SetThrowImageBase 0000000180042d8c     libvcruntime:trnsctrl.obj
 0002:00010d8c       $unwind$?__GetUnwindTryBlock@@YAHPEA_KPEAU_xDISPATCHER_CONTEXT@@PEBU_s_FuncInfo@@@Z 0000000180042d8c     libvcruntime:ehstate.obj
 0002:00010d8c       $unwind$?_wrap_delete_Vector2@@YAXAEBV?$WeakCallbackData@VObject@v8@@VSWIGV8_Proxy@@@v8@@@Z 0000000180042d8c     libRVO_wrap.obj
 0002:00010d8c       $unwind$fesetenv           0000000180042d8c     libucrt:fesetenv.obj
 0002:00010d8c       $unwind$feholdexcept       0000000180042d8c     libucrt:feholdexcept.obj
 0002:00010d8c       $unwind$fegetenv           0000000180042d8c     libucrt:fegetenv.obj
 0002:00010d8c       $unwind$?_wrap_delete_Obstacle@@YAXAEBV?$WeakCallbackData@VObject@v8@@VSWIGV8_Proxy@@@v8@@@Z 0000000180042d8c     libRVO_wrap.obj
 0002:00010d8c       $unwind$_malloc_base       0000000180042d8c     libucrt:malloc_base.obj
 0002:00010d8c       $unwind$??$message_box_wait_thread@_W@@YAKQEAX@Z 0000000180042d8c     libucrt:crtmbox.obj
 0002:00010d8c       $unwind$wcscpy_s           0000000180042d8c     libucrt:wcscpy_s.obj
 0002:00010d8c       $unwind$?state_case_normal@?$output_processor@DV?$string_output_adapter@D@__crt_stdio_output@@V?$standard_base@DV?$string_output_adapter@D@__crt_stdio_output@@@2@@__crt_stdio_output@@AEAA_NXZ 0000000180042d8c     libucrt:output.obj
 0002:00010d8c       $unwind$??0?$output_processor@DV?$string_output_adapter@D@__crt_stdio_output@@V?$standard_base@DV?$string_output_adapter@D@__crt_stdio_output@@@2@@__crt_stdio_output@@QEAA@AEBV?$string_output_adapter@D@1@_KQEBDQEAU__crt_locale_pointers@@QEAD@Z 0000000180042d8c     libucrt:output.obj
 0002:00010d8c       $unwind$wcscat_s           0000000180042d8c     libucrt:wcscat_s.obj
 0002:00010d8c       $unwind$?type_case_integer@?$output_processor@_WV?$string_output_adapter@_W@__crt_stdio_output@@V?$standard_base@_WV?$string_output_adapter@_W@__crt_stdio_output@@@2@@__crt_stdio_output@@AEAA_NI_N@Z 0000000180042d8c     libucrt:output.obj
 0002:00010d8c       $unwind$??_Glogic_error@std@@UEAAPEAXI@Z 0000000180042d8c     libRVO_wrap.obj
 0002:00010d8c       $unwind$strcpy_s           0000000180042d8c     libucrt:strcpy_s.obj
 0002:00010d8c       $unwind$?_wrap_delete_Agent@@YAXAEBV?$WeakCallbackData@VObject@v8@@VSWIGV8_Proxy@@@v8@@@Z 0000000180042d8c     libRVO_wrap.obj
 0002:00010d8c       $unwind$??_Gtype_info@@UEAAPEAXI@Z 0000000180042d8c     LIBCMT:std_type_info_static.obj
 0002:00010d94       $unwind$SWIG_MangledTypeQueryModule 0000000180042d94     libRVO_wrap.obj
 0002:00010d94       $unwind$?DloadObtainSection@@YAPEAXPEAK0@Z 0000000180042d94     DelayImp:delayhlp.obj
 0002:00010da4       $unwind$isdigit            0000000180042da4     libucrt:_ctype.obj
 0002:00010da4       $unwind$?_wrap_RVO_ERROR_get@@YAXV?$Local@VString@v8@@@v8@@AEBV?$PropertyCallbackInfo@VValue@v8@@@2@@Z 0000000180042da4     libRVO_wrap.obj
 0002:00010da4       $unwind$?getSystemCP@@YAHH@Z 0000000180042da4     libucrt:mbctype.obj
 0002:00010da4       $unwind$_isleadbyte_l      0000000180042da4     libucrt:_wctype.obj
 0002:00010da4       $unwind$?_wrap_RVO_EPSILON_get@@YAXV?$Local@VString@v8@@@v8@@AEBV?$PropertyCallbackInfo@VValue@v8@@@2@@Z 0000000180042da4     libRVO_wrap.obj
 0002:00010da4       $unwind$?error@V8ErrorHandler@@UEAAXHPEBD@Z 0000000180042da4     libRVO_wrap.obj
 0002:00010dac       $unwind$?error@OverloadErrorHandler@@UEAAXHPEBD@Z 0000000180042dac     libRVO_wrap.obj
 0002:00010dbc       $unwind$__acrt_stdio_flush_nolock 0000000180042dbc     libucrt:fflush.obj
 0002:00010dbc       $unwind$?type_case_s@?$output_processor@_WV?$stream_output_adapter@_W@__crt_stdio_output@@V?$standard_base@_WV?$stream_output_adapter@_W@__crt_stdio_output@@@2@@__crt_stdio_output@@AEAA_NXZ 0000000180042dbc     libucrt:output.obj
 0002:00010dbc       $unwind$__acrt_getptd_noexit 0000000180042dbc     libucrt:per_thread_data.obj
 0002:00010dbc       $unwind$__acrt_execute_uninitializers 0000000180042dbc     libucrt:shared_initialization.obj
 0002:00010dbc       $unwind$??0?$vector@VVector2@RVO@@V?$allocator@VVector2@RVO@@@std@@@std@@QEAA@_K@Z 0000000180042dbc     libRVO_wrap.obj
 0002:00010dbc       $unwind$?type_case_n@?$output_processor@_WV?$stream_output_adapter@_W@__crt_stdio_output@@V?$standard_base@_WV?$stream_output_adapter@_W@__crt_stdio_output@@@2@@__crt_stdio_output@@AEAA_NXZ 0000000180042dbc     libucrt:output.obj
 0002:00010dbc       $unwind$??$common_lseek_nolock@_J@@YA_JH_JH@Z 0000000180042dbc     libucrt:lseek.obj
 0002:00010dbc       $unwind$__acrt_FlsSetValue 0000000180042dbc     libucrt:winapi_thunks.obj
 0002:00010dbc       $unwind$??0?$vector@VLine@RVO@@V?$allocator@VLine@RVO@@@std@@@std@@QEAA@_K@Z 0000000180042dbc     libRVO_wrap.obj
 0002:00010dbc       $unwind$?type_case_Z@?$output_processor@_WV?$stream_output_adapter@_W@__crt_stdio_output@@V?$standard_base@_WV?$stream_output_adapter@_W@__crt_stdio_output@@@2@@__crt_stdio_output@@AEAA_NXZ 0000000180042dbc     libucrt:output.obj
 0002:00010dbc       $unwind$_DllMainCRTStartup 0000000180042dbc     LIBCMT:dll_dllmain.obj
 0002:00010dbc       $unwind$??R<lambda_ad1ced32f4ac17aa236e5ef05d6b3b7c>@@QEBAXXZ 0000000180042dbc     libucrt:mbctype.obj
 0002:00010dbc       $unwind$__vcrt_getptd_noexit 0000000180042dbc     libvcruntime:per_thread_data.obj
 0002:00010dbc       $unwind$??0SWIGV8_Proxy@@QEAA@XZ 0000000180042dbc     libRVO_wrap.obj
 0002:00010dbc       $unwind$__vcrt_FlsSetValue 0000000180042dbc     libvcruntime:winapi_downlevel.obj
 0002:00010dbc       $unwind$?free_crt_array_internal@@YAXQEAPEBX_K@Z 0000000180042dbc     libucrt:inittime.obj
 0002:00010dbc       $unwind$_RTC_Terminate     0000000180042dbc     LIBCMT:_initsect_.obj
 0002:00010dbc       $unwind$memcpy_s           0000000180042dbc     libucrt:cfout.obj
 0002:00010dbc       $unwind$_RTC_Initialize    0000000180042dbc     LIBCMT:_initsect_.obj
 0002:00010dbc       $unwind$_initterm_e        0000000180042dbc     libucrt:initterm.obj
 0002:00010dbc       $unwind$?resize@?$vector@VAgentTreeNode@KdTree@RVO@@V?$allocator@VAgentTreeNode@KdTree@RVO@@@std@@@std@@QEAAX_K@Z 0000000180042dbc     KdTree.obj
 0002:00010dbc       $unwind$?type_case_Z@?$output_processor@DV?$string_output_adapter@D@__crt_stdio_output@@V?$standard_base@DV?$string_output_adapter@D@__crt_stdio_output@@@2@@__crt_stdio_output@@AEAA_NXZ 0000000180042dbc     libucrt:output.obj
 0002:00010dbc       $unwind$__acrt_LocaleNameToLCID 0000000180042dbc     libucrt:winapi_thunks.obj
 0002:00010dbc       $unwind$__acrt_stdio_flush_and_write_narrow_nolock 0000000180042dbc     libucrt:_flsbuf.obj
 0002:00010dbc       $unwind$?type_case_n@?$output_processor@_WV?$string_output_adapter@_W@__crt_stdio_output@@V?$standard_base@_WV?$string_output_adapter@_W@__crt_stdio_output@@@2@@__crt_stdio_output@@AEAA_NXZ 0000000180042dbc     libucrt:output.obj
 0002:00010dbc       $unwind$?type_case_s@?$output_processor@_WV?$string_output_adapter@_W@__crt_stdio_output@@V?$standard_base@_WV?$string_output_adapter@_W@__crt_stdio_output@@@2@@__crt_stdio_output@@AEAA_NXZ 0000000180042dbc     libucrt:output.obj
 0002:00010dbc       $unwind$?type_case_s@?$output_processor@DV?$string_output_adapter@D@__crt_stdio_output@@V?$standard_base@DV?$string_output_adapter@D@__crt_stdio_output@@@2@@__crt_stdio_output@@AEAA_NXZ 0000000180042dbc     libucrt:output.obj
 0002:00010dbc       $unwind$?type_case_n@?$output_processor@DV?$string_output_adapter@D@__crt_stdio_output@@V?$standard_base@DV?$string_output_adapter@D@__crt_stdio_output@@@2@@__crt_stdio_output@@AEAA_NXZ 0000000180042dbc     libucrt:output.obj
 0002:00010dbc       $unwind$_exception_enabled 0000000180042dbc     libucrt:libm_error.obj
 0002:00010dbc       $unwind$?type_case_Z@?$output_processor@_WV?$string_output_adapter@_W@__crt_stdio_output@@V?$standard_base@_WV?$string_output_adapter@_W@__crt_stdio_output@@@2@@__crt_stdio_output@@AEAA_NXZ 0000000180042dbc     libucrt:output.obj
 0002:00010dbc       $unwind$__acrt_stdio_flush_and_write_wide_nolock 0000000180042dbc     libucrt:_flsbuf.obj
 0002:00010dcc       $unwind$?SWIG_V8_ConvertInstancePtr@@YAHV?$Local@VObject@v8@@@v8@@PEAPEAXPEAUswig_type_info@@H@Z 0000000180042dcc     libRVO_wrap.obj
 0002:00010de0       $unwind$?SWIGV8_SetPrivateData@@YAXV?$Local@VObject@v8@@@v8@@PEAXPEAUswig_type_info@@H@Z 0000000180042de0     libRVO_wrap.obj
 0002:00010df4       $unwind$?SWIG_V8_ConvertPtr@@YAHV?$Local@VValue@v8@@@v8@@PEAPEAXPEAUswig_type_info@@H@Z 0000000180042df4     libRVO_wrap.obj
 0002:00010e00       $unwind$?SWIG_V8_NewPointerObj@@YA?AV?$Local@VValue@v8@@@v8@@PEAXPEAUswig_type_info@@H@Z 0000000180042e00     libRVO_wrap.obj
 0002:00010e14       $unwind$?_SWIGV8_wrap_equals@@YAXAEBV?$FunctionCallbackInfo@VValue@v8@@@v8@@@Z 0000000180042e14     libRVO_wrap.obj
 0002:00010e20       $unwind$?_wrap_RVOSimulator__wrap_RVOSimulator_setAgentDefaults@@YAXAEBV?$FunctionCallbackInfo@VValue@v8@@@v8@@@Z 0000000180042e20     libRVO_wrap.obj
 0002:00010e20       $unwind$?_wrap_RVOSimulator__wrap_RVOSimulator_addAgent@@YAXAEBV?$FunctionCallbackInfo@VValue@v8@@@v8@@@Z 0000000180042e20     libRVO_wrap.obj
 0002:00010e20       $unwind$?_wrap_Vector2__wrap_Vector2_mul@@YAXAEBV?$FunctionCallbackInfo@VValue@v8@@@v8@@@Z 0000000180042e20     libRVO_wrap.obj
 0002:00010e20       $unwind$?_wrap_new_vectorvector@@YAXAEBV?$FunctionCallbackInfo@VValue@v8@@@v8@@@Z 0000000180042e20     libRVO_wrap.obj
 0002:00010e20       $unwind$?_wrap_RVOSimulator__wrap_RVOSimulator_queryVisibility@@YAXAEBV?$FunctionCallbackInfo@VValue@v8@@@v8@@@Z 0000000180042e20     libRVO_wrap.obj
 0002:00010e20       $unwind$?_wrap_new_vectorline@@YAXAEBV?$FunctionCallbackInfo@VValue@v8@@@v8@@@Z 0000000180042e20     libRVO_wrap.obj
 0002:00010e20       $unwind$?_wrap_new_RVOSimulator@@YAXAEBV?$FunctionCallbackInfo@VValue@v8@@@v8@@@Z 0000000180042e20     libRVO_wrap.obj
 0002:00010e20       $unwind$?_wrap_Vector2__wrap_Vector2_sub@@YAXAEBV?$FunctionCallbackInfo@VValue@v8@@@v8@@@Z 0000000180042e20     libRVO_wrap.obj
 0002:00010e20       $unwind$?_wrap_getCPtr@@YAXAEBV?$FunctionCallbackInfo@VValue@v8@@@v8@@@Z 0000000180042e20     libRVO_wrap.obj
 0002:00010e20       $unwind$?_wrap_new_Vector2@@YAXAEBV?$FunctionCallbackInfo@VValue@v8@@@v8@@@Z 0000000180042e20     libRVO_wrap.obj
 0002:00010e20       $unwind$?_wrap_new_vectord@@YAXAEBV?$FunctionCallbackInfo@VValue@v8@@@v8@@@Z 0000000180042e20     libRVO_wrap.obj
 0002:00010e20       $unwind$?_wrap_new_vectori@@YAXAEBV?$FunctionCallbackInfo@VValue@v8@@@v8@@@Z 0000000180042e20     libRVO_wrap.obj
 0002:00010e2c       $chain$0$?_wrap_getCPtr@@YAXAEBV?$FunctionCallbackInfo@VValue@v8@@@v8@@@Z 0000000180042e2c     libRVO_wrap.obj
 0002:00010e40       $chain$1$?_wrap_getCPtr@@YAXAEBV?$FunctionCallbackInfo@VValue@v8@@@v8@@@Z 0000000180042e40     libRVO_wrap.obj
 0002:00010e50       $unwind$?SWIGV8_CreateClassTemplate@@YA?AV?$Local@VFunctionTemplate@v8@@@v8@@PEBD@Z 0000000180042e50     libRVO_wrap.obj
 0002:00010e60       $unwind$?SWIGV8_AddStaticFunction@@YAXV?$Local@VObject@v8@@@v8@@PEBDAEBQ6AXAEBV?$FunctionCallbackInfo@VValue@v8@@@2@@Z@Z 0000000180042e60     libRVO_wrap.obj
 0002:00010e70       $unwind$?JS_veto_set_variable@@YAXV?$Local@VString@v8@@@v8@@V?$Local@VValue@v8@@@2@AEBV?$PropertyCallbackInfo@X@2@@Z 0000000180042e70     libRVO_wrap.obj
 0002:00010e84       $unwind$?distSqPointLineSegment@RVO@@YAMAEBVVector2@1@00@Z 0000000180042e84     libRVO_wrap.obj
 0002:00010e98       $unwind$?SWIG_AsVal_float@@YAHV?$Local@VValue@v8@@@v8@@PEAM@Z 0000000180042e98     libRVO_wrap.obj
 0002:00010ea8       $unwind$?SWIG_AsVal_size_t@@YAHV?$Local@VValue@v8@@@v8@@PEA_K@Z 0000000180042ea8     libRVO_wrap.obj
 0002:00010ebc       $unwind$_stricmp_l         0000000180042ebc     libucrt:stricmp.obj
 0002:00010ebc       $unwind$?_wrap_new_vectori__SWIG_0@@YAXAEBV?$FunctionCallbackInfo@VValue@v8@@@v8@@AEAVV8ErrorHandler@@@Z 0000000180042ebc     libRVO_wrap.obj
 0002:00010ebc       $unwind$?_wrap_new_vectord__SWIG_0@@YAXAEBV?$FunctionCallbackInfo@VValue@v8@@@v8@@AEAVV8ErrorHandler@@@Z 0000000180042ebc     libRVO_wrap.obj
 0002:00010ebc       $unwind$?_wrap_new_vectorline__SWIG_0@@YAXAEBV?$FunctionCallbackInfo@VValue@v8@@@v8@@AEAVV8ErrorHandler@@@Z 0000000180042ebc     libRVO_wrap.obj
 0002:00010ebc       $unwind$?_wrap_new_vectorvector__SWIG_0@@YAXAEBV?$FunctionCallbackInfo@VValue@v8@@@v8@@AEAVV8ErrorHandler@@@Z 0000000180042ebc     libRVO_wrap.obj
 0002:00010ebc       $unwind$?_wrap_new_Vector2__SWIG_0@@YAXAEBV?$FunctionCallbackInfo@VValue@v8@@@v8@@AEAVV8ErrorHandler@@@Z 0000000180042ebc     libRVO_wrap.obj
 0002:00010ebc       $unwind$?x_ismbbtype_l@@YAHPEAU__crt_locale_pointers@@IHH@Z 0000000180042ebc     libucrt:ismbbyte.obj
 0002:00010ecc       $unwind$?_wrap_new_Vector2__SWIG_1@@YAXAEBV?$FunctionCallbackInfo@VValue@v8@@@v8@@AEAVV8ErrorHandler@@@Z 0000000180042ecc     libRVO_wrap.obj
 0002:00010eec       $unwind$?_wrap_Vector2_y@@YAXAEBV?$FunctionCallbackInfo@VValue@v8@@@v8@@@Z 0000000180042eec     libRVO_wrap.obj
 0002:00010eec       $unwind$?_wrap_RVOSimulator_getAgentTimeHorizonObst@@YAXAEBV?$FunctionCallbackInfo@VValue@v8@@@v8@@@Z 0000000180042eec     libRVO_wrap.obj
 0002:00010eec       $unwind$?_wrap_RVOSimulator_getAgentNeighborDist@@YAXAEBV?$FunctionCallbackInfo@VValue@v8@@@v8@@@Z 0000000180042eec     libRVO_wrap.obj
 0002:00010eec       $unwind$?_wrap_RVOSimulator_getTimeStep@@YAXAEBV?$FunctionCallbackInfo@VValue@v8@@@v8@@@Z 0000000180042eec     libRVO_wrap.obj
 0002:00010eec       $unwind$?_wrap_RVOSimulator_getAgentRadius@@YAXAEBV?$FunctionCallbackInfo@VValue@v8@@@v8@@@Z 0000000180042eec     libRVO_wrap.obj
 0002:00010eec       $unwind$?_wrap_Vector2_x@@YAXAEBV?$FunctionCallbackInfo@VValue@v8@@@v8@@@Z 0000000180042eec     libRVO_wrap.obj
 0002:00010eec       $unwind$?_wrap_RVOSimulator_getAgentTimeHorizon@@YAXAEBV?$FunctionCallbackInfo@VValue@v8@@@v8@@@Z 0000000180042eec     libRVO_wrap.obj
 0002:00010eec       $unwind$?_wrap_RVOSimulator_getAgentMaxSpeed@@YAXAEBV?$FunctionCallbackInfo@VValue@v8@@@v8@@@Z 0000000180042eec     libRVO_wrap.obj
 0002:00010eec       $unwind$?_wrap_RVOSimulator_getGlobalTime@@YAXAEBV?$FunctionCallbackInfo@VValue@v8@@@v8@@@Z 0000000180042eec     libRVO_wrap.obj
 0002:00010efc       $chain$0$?_wrap_Vector2_x@@YAXAEBV?$FunctionCallbackInfo@VValue@v8@@@v8@@@Z 0000000180042efc     libRVO_wrap.obj
 0002:00010f10       $chain$1$?_wrap_Vector2_x@@YAXAEBV?$FunctionCallbackInfo@VValue@v8@@@v8@@@Z 0000000180042f10     libRVO_wrap.obj
 0002:00010f20       $chain$0$?_wrap_Vector2_y@@YAXAEBV?$FunctionCallbackInfo@VValue@v8@@@v8@@@Z 0000000180042f20     libRVO_wrap.obj
 0002:00010f34       $chain$1$?_wrap_Vector2_y@@YAXAEBV?$FunctionCallbackInfo@VValue@v8@@@v8@@@Z 0000000180042f34     libRVO_wrap.obj
 0002:00010f44       $unwind$?_wrap_Vector2_sub__SWIG_0@@YAXAEBV?$FunctionCallbackInfo@VValue@v8@@@v8@@AEAVV8ErrorHandler@@@Z 0000000180042f44     libRVO_wrap.obj
 0002:00010f58       $chain$1$?_wrap_Vector2_sub__SWIG_0@@YAXAEBV?$FunctionCallbackInfo@VValue@v8@@@v8@@AEAVV8ErrorHandler@@@Z 0000000180042f58     libRVO_wrap.obj
 0002:00010f70       $chain$2$?_wrap_Vector2_sub__SWIG_0@@YAXAEBV?$FunctionCallbackInfo@VValue@v8@@@v8@@AEAVV8ErrorHandler@@@Z 0000000180042f70     libRVO_wrap.obj
 0002:00010f80       $unwind$?_wrap_RVOSimulator_queryVisibility__SWIG_1@@YAXAEBV?$FunctionCallbackInfo@VValue@v8@@@v8@@AEAVV8ErrorHandler@@@Z 0000000180042f80     libRVO_wrap.obj
 0002:00010f80       $unwind$?_wrap_Vector2_mul__SWIG_0@@YAXAEBV?$FunctionCallbackInfo@VValue@v8@@@v8@@AEAVV8ErrorHandler@@@Z 0000000180042f80     libRVO_wrap.obj
 0002:00010f80       $unwind$?_wrap_RVOSimulator_queryVisibility__SWIG_0@@YAXAEBV?$FunctionCallbackInfo@VValue@v8@@@v8@@AEAVV8ErrorHandler@@@Z 0000000180042f80     libRVO_wrap.obj
 0002:00010f94       $chain$0$?_wrap_Vector2_mul__SWIG_0@@YAXAEBV?$FunctionCallbackInfo@VValue@v8@@@v8@@AEAVV8ErrorHandler@@@Z 0000000180042f94     libRVO_wrap.obj
 0002:00010fa8       $chain$1$?_wrap_Vector2_mul__SWIG_0@@YAXAEBV?$FunctionCallbackInfo@VValue@v8@@@v8@@AEAVV8ErrorHandler@@@Z 0000000180042fa8     libRVO_wrap.obj
 0002:00010fb8       $unwind$?_wrap_Vector2_mul__SWIG_1@@YAXAEBV?$FunctionCallbackInfo@VValue@v8@@@v8@@AEAVV8ErrorHandler@@@Z 0000000180042fb8     libRVO_wrap.obj
 0002:00010fd0       $chain$0$?_wrap_Vector2_mul__SWIG_1@@YAXAEBV?$FunctionCallbackInfo@VValue@v8@@@v8@@AEAVV8ErrorHandler@@@Z 0000000180042fd0     libRVO_wrap.obj
 0002:00010fe4       $chain$1$?_wrap_Vector2_mul__SWIG_1@@YAXAEBV?$FunctionCallbackInfo@VValue@v8@@@v8@@AEAVV8ErrorHandler@@@Z 0000000180042fe4     libRVO_wrap.obj
 0002:00010ff4       $unwind$?_wrap_Vector2_div@@YAXAEBV?$FunctionCallbackInfo@VValue@v8@@@v8@@@Z 0000000180042ff4     libRVO_wrap.obj
 0002:00011008       $chain$0$?_wrap_Vector2_div@@YAXAEBV?$FunctionCallbackInfo@VValue@v8@@@v8@@@Z 0000000180043008     libRVO_wrap.obj
 0002:0001101c       $chain$1$?_wrap_Vector2_div@@YAXAEBV?$FunctionCallbackInfo@VValue@v8@@@v8@@@Z 000000018004301c     libRVO_wrap.obj
 0002:0001102c       $unwind$?_wrap_Vector2_add@@YAXAEBV?$FunctionCallbackInfo@VValue@v8@@@v8@@@Z 000000018004302c     libRVO_wrap.obj
 0002:0001103c       $chain$1$?_wrap_Vector2_add@@YAXAEBV?$FunctionCallbackInfo@VValue@v8@@@v8@@@Z 000000018004303c     libRVO_wrap.obj
 0002:00011054       $chain$2$?_wrap_Vector2_add@@YAXAEBV?$FunctionCallbackInfo@VValue@v8@@@v8@@@Z 0000000180043054     libRVO_wrap.obj
 0002:00011064       $unwind$?_wrap_Vector2_sub__SWIG_1@@YAXAEBV?$FunctionCallbackInfo@VValue@v8@@@v8@@AEAVV8ErrorHandler@@@Z 0000000180043064     libRVO_wrap.obj
 0002:00011078       $chain$1$?_wrap_Vector2_sub__SWIG_1@@YAXAEBV?$FunctionCallbackInfo@VValue@v8@@@v8@@AEAVV8ErrorHandler@@@Z 0000000180043078     libRVO_wrap.obj
 0002:00011090       $chain$2$?_wrap_Vector2_sub__SWIG_1@@YAXAEBV?$FunctionCallbackInfo@VValue@v8@@@v8@@AEAVV8ErrorHandler@@@Z 0000000180043090     libRVO_wrap.obj
 0002:000110a0       $unwind$?_wrap_RVOSimulator_setAgentRadius@@YAXAEBV?$FunctionCallbackInfo@VValue@v8@@@v8@@@Z 00000001800430a0     libRVO_wrap.obj
 0002:000110a0       $unwind$?_wrap_RVOSimulator_setAgentNeighborDist@@YAXAEBV?$FunctionCallbackInfo@VValue@v8@@@v8@@@Z 00000001800430a0     libRVO_wrap.obj
 0002:000110a0       $unwind$?_wrap_RVOSimulator_setAgentVelocity@@YAXAEBV?$FunctionCallbackInfo@VValue@v8@@@v8@@@Z 00000001800430a0     libRVO_wrap.obj
 0002:000110a0       $unwind$?_wrap_RVOSimulator_getAgentAgentNeighbor@@YAXAEBV?$FunctionCallbackInfo@VValue@v8@@@v8@@@Z 00000001800430a0     libRVO_wrap.obj
 0002:000110a0       $unwind$?_wrap_RVOSimulator_setAgentPrefVelocity@@YAXAEBV?$FunctionCallbackInfo@VValue@v8@@@v8@@@Z 00000001800430a0     libRVO_wrap.obj
 0002:000110a0       $unwind$?_wrap_RVOSimulator_setAgentPosition@@YAXAEBV?$FunctionCallbackInfo@VValue@v8@@@v8@@@Z 00000001800430a0     libRVO_wrap.obj
 0002:000110a0       $unwind$?_wrap_RVOSimulator_addObstacle@@YAXAEBV?$FunctionCallbackInfo@VValue@v8@@@v8@@@Z 00000001800430a0     libRVO_wrap.obj
 0002:000110a0       $unwind$?_wrap_RVOSimulator_setAgentTimeHorizonObst@@YAXAEBV?$FunctionCallbackInfo@VValue@v8@@@v8@@@Z 00000001800430a0     libRVO_wrap.obj
 0002:000110a0       $unwind$?_wrap_RVOSimulator_setAgentMaxSpeed@@YAXAEBV?$FunctionCallbackInfo@VValue@v8@@@v8@@@Z 00000001800430a0     libRVO_wrap.obj
 0002:000110a0       $unwind$?_wrap_Vector2_equals@@YAXAEBV?$FunctionCallbackInfo@VValue@v8@@@v8@@@Z 00000001800430a0     libRVO_wrap.obj
 0002:000110a0       $unwind$?_wrap_Vector2_notEqual@@YAXAEBV?$FunctionCallbackInfo@VValue@v8@@@v8@@@Z 00000001800430a0     libRVO_wrap.obj
 0002:000110a0       $unwind$?_wrap_vectorvector_add@@YAXAEBV?$FunctionCallbackInfo@VValue@v8@@@v8@@@Z 00000001800430a0     libRVO_wrap.obj
 0002:000110a0       $unwind$?_wrap_RVOSimulator_getAgentObstacleNeighbor@@YAXAEBV?$FunctionCallbackInfo@VValue@v8@@@v8@@@Z 00000001800430a0     libRVO_wrap.obj
 0002:000110a0       $unwind$?_wrap_Vector2_adding@@YAXAEBV?$FunctionCallbackInfo@VValue@v8@@@v8@@@Z 00000001800430a0     libRVO_wrap.obj
 0002:000110a0       $unwind$?_wrap_Vector2_subtract@@YAXAEBV?$FunctionCallbackInfo@VValue@v8@@@v8@@@Z 00000001800430a0     libRVO_wrap.obj
 0002:000110a0       $unwind$?_wrap_vectorline_add@@YAXAEBV?$FunctionCallbackInfo@VValue@v8@@@v8@@@Z 00000001800430a0     libRVO_wrap.obj
 0002:000110a0       $unwind$?_wrap_RVOSimulator_getAgentORCALine@@YAXAEBV?$FunctionCallbackInfo@VValue@v8@@@v8@@@Z 00000001800430a0     libRVO_wrap.obj
 0002:000110a0       $unwind$?_wrap_RVOSimulator_setAgentTimeHorizon@@YAXAEBV?$FunctionCallbackInfo@VValue@v8@@@v8@@@Z 00000001800430a0     libRVO_wrap.obj
 0002:000110b0       $unwind$?_wrap_Vector2_divide@@YAXAEBV?$FunctionCallbackInfo@VValue@v8@@@v8@@@Z 00000001800430b0     libRVO_wrap.obj
 0002:000110b0       $unwind$?_wrap_Vector2_multiply@@YAXAEBV?$FunctionCallbackInfo@VValue@v8@@@v8@@@Z 00000001800430b0     libRVO_wrap.obj
 0002:000110b0       $unwind$?_wrap_RVOSimulator_setTimeStep@@YAXAEBV?$FunctionCallbackInfo@VValue@v8@@@v8@@@Z 00000001800430b0     libRVO_wrap.obj
 0002:000110c4       $unwind$?_wrap_absSq@@YAXAEBV?$FunctionCallbackInfo@VValue@v8@@@v8@@@Z 00000001800430c4     libRVO_wrap.obj
 0002:000110c4       $unwind$?_wrap_abs@@YAXAEBV?$FunctionCallbackInfo@VValue@v8@@@v8@@@Z 00000001800430c4     libRVO_wrap.obj
 0002:000110d0       $chain$0$?_wrap_abs@@YAXAEBV?$FunctionCallbackInfo@VValue@v8@@@v8@@@Z 00000001800430d0     libRVO_wrap.obj
 0002:000110e4       $chain$1$?_wrap_abs@@YAXAEBV?$FunctionCallbackInfo@VValue@v8@@@v8@@@Z 00000001800430e4     libRVO_wrap.obj
 0002:000110f4       $chain$0$?_wrap_absSq@@YAXAEBV?$FunctionCallbackInfo@VValue@v8@@@v8@@@Z 00000001800430f4     libRVO_wrap.obj
 0002:00011108       $chain$1$?_wrap_absSq@@YAXAEBV?$FunctionCallbackInfo@VValue@v8@@@v8@@@Z 0000000180043108     libRVO_wrap.obj
 0002:00011118       $unwind$?_wrap_leftOf@@YAXAEBV?$FunctionCallbackInfo@VValue@v8@@@v8@@@Z 0000000180043118     libRVO_wrap.obj
 0002:00011118       $unwind$?_wrap_distSqPointLineSegment@@YAXAEBV?$FunctionCallbackInfo@VValue@v8@@@v8@@@Z 0000000180043118     libRVO_wrap.obj
 0002:00011118       $unwind$?_wrap_det@@YAXAEBV?$FunctionCallbackInfo@VValue@v8@@@v8@@@Z 0000000180043118     libRVO_wrap.obj
 0002:00011128       $chain$0$?_wrap_det@@YAXAEBV?$FunctionCallbackInfo@VValue@v8@@@v8@@@Z 0000000180043128     libRVO_wrap.obj
 0002:0001113c       $chain$1$?_wrap_det@@YAXAEBV?$FunctionCallbackInfo@VValue@v8@@@v8@@@Z 000000018004313c     libRVO_wrap.obj
 0002:0001114c       $unwind$?_wrap_normalize@@YAXAEBV?$FunctionCallbackInfo@VValue@v8@@@v8@@@Z 000000018004314c     libRVO_wrap.obj
 0002:00011158       $chain$1$?_wrap_normalize@@YAXAEBV?$FunctionCallbackInfo@VValue@v8@@@v8@@@Z 0000000180043158     libRVO_wrap.obj
 0002:00011170       $chain$2$?_wrap_normalize@@YAXAEBV?$FunctionCallbackInfo@VValue@v8@@@v8@@@Z 0000000180043170     libRVO_wrap.obj
 0002:00011180       $chain$0$?_wrap_distSqPointLineSegment@@YAXAEBV?$FunctionCallbackInfo@VValue@v8@@@v8@@@Z 0000000180043180     libRVO_wrap.obj
 0002:00011194       $chain$1$?_wrap_distSqPointLineSegment@@YAXAEBV?$FunctionCallbackInfo@VValue@v8@@@v8@@@Z 0000000180043194     libRVO_wrap.obj
 0002:000111a4       $chain$0$?_wrap_leftOf@@YAXAEBV?$FunctionCallbackInfo@VValue@v8@@@v8@@@Z 00000001800431a4     libRVO_wrap.obj
 0002:000111b8       $chain$1$?_wrap_leftOf@@YAXAEBV?$FunctionCallbackInfo@VValue@v8@@@v8@@@Z 00000001800431b8     libRVO_wrap.obj
 0002:000111c8       $unwind$?_wrap_sqr@@YAXAEBV?$FunctionCallbackInfo@VValue@v8@@@v8@@@Z 00000001800431c8     libRVO_wrap.obj
 0002:000111d8       $chain$0$?_wrap_delete_Agent@@YAXAEBV?$WeakCallbackData@VObject@v8@@VSWIGV8_Proxy@@@v8@@@Z 00000001800431d8     libRVO_wrap.obj
 0002:000111ec       $chain$1$?_wrap_delete_Agent@@YAXAEBV?$WeakCallbackData@VObject@v8@@VSWIGV8_Proxy@@@v8@@@Z 00000001800431ec     libRVO_wrap.obj
 0002:000111fc       $unwind$?_wrap_new_veto_Agent@@YAXAEBV?$FunctionCallbackInfo@VValue@v8@@@v8@@@Z 00000001800431fc     libRVO_wrap.obj
 0002:000111fc       $unwind$?_wrap_new_veto_KdTree@@YAXAEBV?$FunctionCallbackInfo@VValue@v8@@@v8@@@Z 00000001800431fc     libRVO_wrap.obj
 0002:000111fc       $unwind$?_wrap_new_veto_Obstacle@@YAXAEBV?$FunctionCallbackInfo@VValue@v8@@@v8@@@Z 00000001800431fc     libRVO_wrap.obj
 0002:000111fc       $unwind$?_wrap_new_Line@@YAXAEBV?$FunctionCallbackInfo@VValue@v8@@@v8@@@Z 00000001800431fc     libRVO_wrap.obj
 0002:00011208       $unwind$?_wrap_linearProgram1@@YAXAEBV?$FunctionCallbackInfo@VValue@v8@@@v8@@@Z 0000000180043208     libRVO_wrap.obj
 0002:00011218       $unwind$?_wrap_linearProgram2@@YAXAEBV?$FunctionCallbackInfo@VValue@v8@@@v8@@@Z 0000000180043218     libRVO_wrap.obj
 0002:00011228       $unwind$?_wrap_linearProgram3@@YAXAEBV?$FunctionCallbackInfo@VValue@v8@@@v8@@@Z 0000000180043228     libRVO_wrap.obj
 0002:00011238       $unwind$?_wrap_Line_point_set@@YAXV?$Local@VString@v8@@@v8@@V?$Local@VValue@v8@@@2@AEBV?$PropertyCallbackInfo@X@2@@Z 0000000180043238     libRVO_wrap.obj
 0002:00011238       $unwind$?_wrap_Line_direction_set@@YAXV?$Local@VString@v8@@@v8@@V?$Local@VValue@v8@@@2@AEBV?$PropertyCallbackInfo@X@2@@Z 0000000180043238     libRVO_wrap.obj
 0002:00011248       $chain$0$?_wrap_Line_point_set@@YAXV?$Local@VString@v8@@@v8@@V?$Local@VValue@v8@@@2@AEBV?$PropertyCallbackInfo@X@2@@Z 0000000180043248     libRVO_wrap.obj
 0002:0001125c       $chain$1$?_wrap_Line_point_set@@YAXV?$Local@VString@v8@@@v8@@V?$Local@VValue@v8@@@2@AEBV?$PropertyCallbackInfo@X@2@@Z 000000018004325c     libRVO_wrap.obj
 0002:0001126c       $unwind$?_wrap_Line_direction_get@@YAXV?$Local@VString@v8@@@v8@@AEBV?$PropertyCallbackInfo@VValue@v8@@@2@@Z 000000018004326c     libRVO_wrap.obj
 0002:0001126c       $unwind$?_wrap_Line_point_get@@YAXV?$Local@VString@v8@@@v8@@AEBV?$PropertyCallbackInfo@VValue@v8@@@2@@Z 000000018004326c     libRVO_wrap.obj
 0002:0001127c       $chain$0$?_wrap_Line_direction_set@@YAXV?$Local@VString@v8@@@v8@@V?$Local@VValue@v8@@@2@AEBV?$PropertyCallbackInfo@X@2@@Z 000000018004327c     libRVO_wrap.obj
 0002:00011290       $chain$1$?_wrap_Line_direction_set@@YAXV?$Local@VString@v8@@@v8@@V?$Local@VValue@v8@@@2@AEBV?$PropertyCallbackInfo@X@2@@Z 0000000180043290     libRVO_wrap.obj
 0002:000112a0       $unwind$?_wrap_new_RVOSimulator__SWIG_0@@YAXAEBV?$FunctionCallbackInfo@VValue@v8@@@v8@@AEAVV8ErrorHandler@@@Z 00000001800432a0     libRVO_wrap.obj
 0002:000112a0       $unwind$__CxxFrameHandler3 00000001800432a0     libvcruntime:trnsctrl.obj
 0002:000112b0       $chain$0$?_wrap_new_RVOSimulator__SWIG_0@@YAXAEBV?$FunctionCallbackInfo@VValue@v8@@@v8@@AEAVV8ErrorHandler@@@Z 00000001800432b0     libRVO_wrap.obj
 0002:000112c4       $chain$1$?_wrap_new_RVOSimulator__SWIG_0@@YAXAEBV?$FunctionCallbackInfo@VValue@v8@@@v8@@AEAVV8ErrorHandler@@@Z 00000001800432c4     libRVO_wrap.obj
 0002:000112d4       $unwind$?_wrap_new_RVOSimulator__SWIG_1@@YAXAEBV?$FunctionCallbackInfo@VValue@v8@@@v8@@AEAVV8ErrorHandler@@@Z 00000001800432d4     libRVO_wrap.obj
 0002:000112f4       $unwind$?_wrap_new_RVOSimulator__SWIG_2@@YAXAEBV?$FunctionCallbackInfo@VValue@v8@@@v8@@AEAVV8ErrorHandler@@@Z 00000001800432f4     libRVO_wrap.obj
 0002:00011314       $chain$0$?_wrap_delete_RVOSimulator@@YAXAEBV?$WeakCallbackData@VObject@v8@@VSWIGV8_Proxy@@@v8@@@Z 0000000180043314     libRVO_wrap.obj
 0002:00011328       $chain$1$?_wrap_delete_RVOSimulator@@YAXAEBV?$WeakCallbackData@VObject@v8@@VSWIGV8_Proxy@@@v8@@@Z 0000000180043328     libRVO_wrap.obj
 0002:00011338       $unwind$?_wrap_RVOSimulator_addAgent__SWIG_0@@YAXAEBV?$FunctionCallbackInfo@VValue@v8@@@v8@@AEAVV8ErrorHandler@@@Z 0000000180043338     libRVO_wrap.obj
 0002:0001134c       $unwind$?_wrap_RVOSimulator_addAgent__SWIG_1@@YAXAEBV?$FunctionCallbackInfo@VValue@v8@@@v8@@AEAVV8ErrorHandler@@@Z 000000018004334c     libRVO_wrap.obj
 0002:0001134c       $unwind$?_wrap_RVOSimulator_addAgent__SWIG_2@@YAXAEBV?$FunctionCallbackInfo@VValue@v8@@@v8@@AEAVV8ErrorHandler@@@Z 000000018004334c     libRVO_wrap.obj
 0002:00011364       $unwind$?_wrap_vectorline_reserve@@YAXAEBV?$FunctionCallbackInfo@VValue@v8@@@v8@@@Z 0000000180043364     libRVO_wrap.obj
 0002:00011364       $unwind$?_wrap_vectorline_capacity@@YAXAEBV?$FunctionCallbackInfo@VValue@v8@@@v8@@@Z 0000000180043364     libRVO_wrap.obj
 0002:00011364       $unwind$?_wrap_vectorline_clear@@YAXAEBV?$FunctionCallbackInfo@VValue@v8@@@v8@@@Z 0000000180043364     libRVO_wrap.obj
 0002:00011364       $unwind$?_wrap_RVOSimulator_getAgentVelocity@@YAXAEBV?$FunctionCallbackInfo@VValue@v8@@@v8@@@Z 0000000180043364     libRVO_wrap.obj
 0002:00011364       $unwind$?_wrap_RVOSimulator_getNumAgents@@YAXAEBV?$FunctionCallbackInfo@VValue@v8@@@v8@@@Z 0000000180043364     libRVO_wrap.obj
 0002:00011364       $unwind$?_wrap_vectorvector_size@@YAXAEBV?$FunctionCallbackInfo@VValue@v8@@@v8@@@Z 0000000180043364     libRVO_wrap.obj
 0002:00011364       $unwind$?_wrap_RVOSimulator_getNumObstacleVertices@@YAXAEBV?$FunctionCallbackInfo@VValue@v8@@@v8@@@Z 0000000180043364     libRVO_wrap.obj
 0002:00011364       $unwind$?_wrap_vectori_capacity@@YAXAEBV?$FunctionCallbackInfo@VValue@v8@@@v8@@@Z 0000000180043364     libRVO_wrap.obj
 0002:00011364       $unwind$?_wrap_RVOSimulator_getObstacleVertex@@YAXAEBV?$FunctionCallbackInfo@VValue@v8@@@v8@@@Z 0000000180043364     libRVO_wrap.obj
 0002:00011364       $unwind$?_wrap_RVOSimulator_getNextObstacleVertexNo@@YAXAEBV?$FunctionCallbackInfo@VValue@v8@@@v8@@@Z 0000000180043364     libRVO_wrap.obj
 0002:00011364       $unwind$?_wrap_RVOSimulator_getPrevObstacleVertexNo@@YAXAEBV?$FunctionCallbackInfo@VValue@v8@@@v8@@@Z 0000000180043364     libRVO_wrap.obj
 0002:00011364       $unwind$?_wrap_RVOSimulator_processObstacles@@YAXAEBV?$FunctionCallbackInfo@VValue@v8@@@v8@@@Z 0000000180043364     libRVO_wrap.obj
 0002:00011364       $unwind$?_wrap_vectorvector_capacity@@YAXAEBV?$FunctionCallbackInfo@VValue@v8@@@v8@@@Z 0000000180043364     libRVO_wrap.obj
 0002:00011364       $unwind$?_wrap_vectori_reserve@@YAXAEBV?$FunctionCallbackInfo@VValue@v8@@@v8@@@Z 0000000180043364     libRVO_wrap.obj
 0002:00011364       $unwind$?_wrap_vectorvector_reserve@@YAXAEBV?$FunctionCallbackInfo@VValue@v8@@@v8@@@Z 0000000180043364     libRVO_wrap.obj
 0002:00011364       $unwind$?_wrap_vectori_size@@YAXAEBV?$FunctionCallbackInfo@VValue@v8@@@v8@@@Z 0000000180043364     libRVO_wrap.obj
 0002:00011364       $unwind$?_wrap_RVOSimulator_setAgentMaxNeighbors@@YAXAEBV?$FunctionCallbackInfo@VValue@v8@@@v8@@@Z 0000000180043364     libRVO_wrap.obj
 0002:00011364       $unwind$?_wrap_RVOSimulator_getAgentNumAgentNeighbors@@YAXAEBV?$FunctionCallbackInfo@VValue@v8@@@v8@@@Z 0000000180043364     libRVO_wrap.obj
 0002:00011364       $unwind$?_wrap_RVOSimulator_getAgentPosition@@YAXAEBV?$FunctionCallbackInfo@VValue@v8@@@v8@@@Z 0000000180043364     libRVO_wrap.obj
 0002:00011364       $unwind$?_wrap_vectori_add@@YAXAEBV?$FunctionCallbackInfo@VValue@v8@@@v8@@@Z 0000000180043364     libRVO_wrap.obj
 0002:00011364       $unwind$?_wrap_vectord_add@@YAXAEBV?$FunctionCallbackInfo@VValue@v8@@@v8@@@Z 0000000180043364     libRVO_wrap.obj
 0002:00011364       $unwind$?_wrap_RVOSimulator_getAgentNumObstacleNeighbors@@YAXAEBV?$FunctionCallbackInfo@VValue@v8@@@v8@@@Z 0000000180043364     libRVO_wrap.obj
 0002:00011364       $unwind$?_wrap_vectord_clear@@YAXAEBV?$FunctionCallbackInfo@VValue@v8@@@v8@@@Z 0000000180043364     libRVO_wrap.obj
 0002:00011364       $unwind$?_wrap_vectorvector_clear@@YAXAEBV?$FunctionCallbackInfo@VValue@v8@@@v8@@@Z 0000000180043364     libRVO_wrap.obj
 0002:00011364       $unwind$?_wrap_vectord_reserve@@YAXAEBV?$FunctionCallbackInfo@VValue@v8@@@v8@@@Z 0000000180043364     libRVO_wrap.obj
 0002:00011364       $unwind$?_wrap_vectord_capacity@@YAXAEBV?$FunctionCallbackInfo@VValue@v8@@@v8@@@Z 0000000180043364     libRVO_wrap.obj
 0002:00011364       $unwind$?_wrap_vectord_size@@YAXAEBV?$FunctionCallbackInfo@VValue@v8@@@v8@@@Z 0000000180043364     libRVO_wrap.obj
 0002:00011364       $unwind$?_wrap_RVOSimulator_getAgentMaxNeighbors@@YAXAEBV?$FunctionCallbackInfo@VValue@v8@@@v8@@@Z 0000000180043364     libRVO_wrap.obj
 0002:00011364       $unwind$?_wrap_RVOSimulator_doStep@@YAXAEBV?$FunctionCallbackInfo@VValue@v8@@@v8@@@Z 0000000180043364     libRVO_wrap.obj
 0002:00011364       $unwind$?_wrap_RVOSimulator_getAgentNumORCALines@@YAXAEBV?$FunctionCallbackInfo@VValue@v8@@@v8@@@Z 0000000180043364     libRVO_wrap.obj
 0002:00011364       $unwind$?_wrap_vectorline_size@@YAXAEBV?$FunctionCallbackInfo@VValue@v8@@@v8@@@Z 0000000180043364     libRVO_wrap.obj
 0002:00011364       $unwind$?_wrap_vectori_clear@@YAXAEBV?$FunctionCallbackInfo@VValue@v8@@@v8@@@Z 0000000180043364     libRVO_wrap.obj
 0002:00011364       $unwind$?_wrap_RVOSimulator_getAgentPrefVelocity@@YAXAEBV?$FunctionCallbackInfo@VValue@v8@@@v8@@@Z 0000000180043364     libRVO_wrap.obj
 0002:00011374       $chain$0$?_wrap_RVOSimulator_getAgentMaxSpeed@@YAXAEBV?$FunctionCallbackInfo@VValue@v8@@@v8@@@Z 0000000180043374     libRVO_wrap.obj
 0002:00011388       $chain$1$?_wrap_RVOSimulator_getAgentMaxSpeed@@YAXAEBV?$FunctionCallbackInfo@VValue@v8@@@v8@@@Z 0000000180043388     libRVO_wrap.obj
 0002:00011398       $chain$0$?_wrap_RVOSimulator_getAgentNeighborDist@@YAXAEBV?$FunctionCallbackInfo@VValue@v8@@@v8@@@Z 0000000180043398     libRVO_wrap.obj
 0002:000113ac       $chain$1$?_wrap_RVOSimulator_getAgentNeighborDist@@YAXAEBV?$FunctionCallbackInfo@VValue@v8@@@v8@@@Z 00000001800433ac     libRVO_wrap.obj
 0002:000113bc       $chain$0$?_wrap_RVOSimulator_getAgentRadius@@YAXAEBV?$FunctionCallbackInfo@VValue@v8@@@v8@@@Z 00000001800433bc     libRVO_wrap.obj
 0002:000113d0       $chain$1$?_wrap_RVOSimulator_getAgentRadius@@YAXAEBV?$FunctionCallbackInfo@VValue@v8@@@v8@@@Z 00000001800433d0     libRVO_wrap.obj
 0002:000113e0       $chain$0$?_wrap_RVOSimulator_getAgentTimeHorizon@@YAXAEBV?$FunctionCallbackInfo@VValue@v8@@@v8@@@Z 00000001800433e0     libRVO_wrap.obj
 0002:000113f4       $chain$1$?_wrap_RVOSimulator_getAgentTimeHorizon@@YAXAEBV?$FunctionCallbackInfo@VValue@v8@@@v8@@@Z 00000001800433f4     libRVO_wrap.obj
 0002:00011404       $chain$0$?_wrap_RVOSimulator_getAgentTimeHorizonObst@@YAXAEBV?$FunctionCallbackInfo@VValue@v8@@@v8@@@Z 0000000180043404     libRVO_wrap.obj
 0002:00011418       $chain$1$?_wrap_RVOSimulator_getAgentTimeHorizonObst@@YAXAEBV?$FunctionCallbackInfo@VValue@v8@@@v8@@@Z 0000000180043418     libRVO_wrap.obj
 0002:00011428       $chain$0$?_wrap_RVOSimulator_getGlobalTime@@YAXAEBV?$FunctionCallbackInfo@VValue@v8@@@v8@@@Z 0000000180043428     libRVO_wrap.obj
 0002:0001143c       $chain$1$?_wrap_RVOSimulator_getGlobalTime@@YAXAEBV?$FunctionCallbackInfo@VValue@v8@@@v8@@@Z 000000018004343c     libRVO_wrap.obj
 0002:0001144c       $chain$0$?_wrap_RVOSimulator_getTimeStep@@YAXAEBV?$FunctionCallbackInfo@VValue@v8@@@v8@@@Z 000000018004344c     libRVO_wrap.obj
 0002:00011460       $chain$1$?_wrap_RVOSimulator_getTimeStep@@YAXAEBV?$FunctionCallbackInfo@VValue@v8@@@v8@@@Z 0000000180043460     libRVO_wrap.obj
 0002:00011470       $unwind$?_wrap_RVOSimulator_setAgentDefaults__SWIG_1@@YAXAEBV?$FunctionCallbackInfo@VValue@v8@@@v8@@AEAVV8ErrorHandler@@@Z 0000000180043470     libRVO_wrap.obj
 0002:00011470       $unwind$?_wrap_RVOSimulator_setAgentDefaults__SWIG_0@@YAXAEBV?$FunctionCallbackInfo@VValue@v8@@@v8@@AEAVV8ErrorHandler@@@Z 0000000180043470     libRVO_wrap.obj
 0002:00011488       $unwind$?_wrap_new_vectorvector__SWIG_1@@YAXAEBV?$FunctionCallbackInfo@VValue@v8@@@v8@@AEAVV8ErrorHandler@@@Z 0000000180043488     libRVO_wrap.obj
 0002:00011488       $unwind$?_wrap_new_vectori__SWIG_1@@YAXAEBV?$FunctionCallbackInfo@VValue@v8@@@v8@@AEAVV8ErrorHandler@@@Z 0000000180043488     libRVO_wrap.obj
 0002:00011488       $unwind$?_wrap_new_vectord__SWIG_1@@YAXAEBV?$FunctionCallbackInfo@VValue@v8@@@v8@@AEAVV8ErrorHandler@@@Z 0000000180043488     libRVO_wrap.obj
 0002:00011488       $unwind$?_wrap_new_vectorline__SWIG_1@@YAXAEBV?$FunctionCallbackInfo@VValue@v8@@@v8@@AEAVV8ErrorHandler@@@Z 0000000180043488     libRVO_wrap.obj
 0002:0001149c       $unwind$?_wrap_vectorline_isEmpty@@YAXAEBV?$FunctionCallbackInfo@VValue@v8@@@v8@@@Z 000000018004349c     libRVO_wrap.obj
 0002:0001149c       $unwind$?_wrap_vectord_isEmpty@@YAXAEBV?$FunctionCallbackInfo@VValue@v8@@@v8@@@Z 000000018004349c     libRVO_wrap.obj
 0002:0001149c       $unwind$?_wrap_vectorvector_isEmpty@@YAXAEBV?$FunctionCallbackInfo@VValue@v8@@@v8@@@Z 000000018004349c     libRVO_wrap.obj
 0002:0001149c       $unwind$?_wrap_vectori_isEmpty@@YAXAEBV?$FunctionCallbackInfo@VValue@v8@@@v8@@@Z 000000018004349c     libRVO_wrap.obj
 0002:000114ac       $unwind$?_wrap_vectori_get@@YAXAEBV?$FunctionCallbackInfo@VValue@v8@@@v8@@@Z 00000001800434ac     libRVO_wrap.obj
 0002:000114c4       $stateUnwindMap$?_wrap_vectori_set@@YAXAEBV?$FunctionCallbackInfo@VValue@v8@@@v8@@@Z 00000001800434c4     libRVO_wrap.obj
 0002:000114c4       $stateUnwindMap$?_wrap_vectorvector_set@@YAXAEBV?$FunctionCallbackInfo@VValue@v8@@@v8@@@Z 00000001800434c4     libRVO_wrap.obj
 0002:000114c4       $stateUnwindMap$?_wrap_vectorvector_get@@YAXAEBV?$FunctionCallbackInfo@VValue@v8@@@v8@@@Z 00000001800434c4     libRVO_wrap.obj
 0002:000114c4       $stateUnwindMap$?_wrap_vectord_set@@YAXAEBV?$FunctionCallbackInfo@VValue@v8@@@v8@@@Z 00000001800434c4     libRVO_wrap.obj
 0002:000114c4       $stateUnwindMap$?_wrap_vectorline_get@@YAXAEBV?$FunctionCallbackInfo@VValue@v8@@@v8@@@Z 00000001800434c4     libRVO_wrap.obj
 0002:000114c4       $stateUnwindMap$?_wrap_vectori_get@@YAXAEBV?$FunctionCallbackInfo@VValue@v8@@@v8@@@Z 00000001800434c4     libRVO_wrap.obj
 0002:000114c4       $stateUnwindMap$?_wrap_vectorline_set@@YAXAEBV?$FunctionCallbackInfo@VValue@v8@@@v8@@@Z 00000001800434c4     libRVO_wrap.obj
 0002:000114c4       $stateUnwindMap$?_wrap_vectord_get@@YAXAEBV?$FunctionCallbackInfo@VValue@v8@@@v8@@@Z 00000001800434c4     libRVO_wrap.obj
 0002:000114d4       $tryMap$?_wrap_vectori_get@@YAXAEBV?$FunctionCallbackInfo@VValue@v8@@@v8@@@Z 00000001800434d4     libRVO_wrap.obj
 0002:000114e8       $handlerMap$0$?_wrap_vectori_get@@YAXAEBV?$FunctionCallbackInfo@VValue@v8@@@v8@@@Z 00000001800434e8     libRVO_wrap.obj
 0002:00011500       $ip2state$?_wrap_vectori_get@@YAXAEBV?$FunctionCallbackInfo@VValue@v8@@@v8@@@Z 0000000180043500     libRVO_wrap.obj
 0002:00011540       $unwind$?catch$0@?0??_wrap_vectori_get@@YAXAEBV?$FunctionCallbackInfo@VValue@v8@@@v8@@@Z@4HA 0000000180043540     libRVO_wrap.obj
 0002:00011554       $unwind$?_wrap_vectori_set@@YAXAEBV?$FunctionCallbackInfo@VValue@v8@@@v8@@@Z 0000000180043554     libRVO_wrap.obj
 0002:0001156c       $tryMap$?_wrap_vectori_set@@YAXAEBV?$FunctionCallbackInfo@VValue@v8@@@v8@@@Z 000000018004356c     libRVO_wrap.obj
 0002:00011580       $handlerMap$0$?_wrap_vectori_set@@YAXAEBV?$FunctionCallbackInfo@VValue@v8@@@v8@@@Z 0000000180043580     libRVO_wrap.obj
 0002:000115a0       $ip2state$?_wrap_vectori_set@@YAXAEBV?$FunctionCallbackInfo@VValue@v8@@@v8@@@Z 00000001800435a0     libRVO_wrap.obj
 0002:000115e0       $unwind$?catch$0@?0??_wrap_vectori_set@@YAXAEBV?$FunctionCallbackInfo@VValue@v8@@@v8@@@Z@4HA 00000001800435e0     libRVO_wrap.obj
 0002:000115f4       $unwind$?_wrap_delete_vectord@@YAXAEBV?$WeakCallbackData@VObject@v8@@VSWIGV8_Proxy@@@v8@@@Z 00000001800435f4     libRVO_wrap.obj
 0002:000115f4       $unwind$?_wrap_delete_vectori@@YAXAEBV?$WeakCallbackData@VObject@v8@@VSWIGV8_Proxy@@@v8@@@Z 00000001800435f4     libRVO_wrap.obj
 0002:000115f4       $unwind$?_wrap_delete_vectorvector@@YAXAEBV?$WeakCallbackData@VObject@v8@@VSWIGV8_Proxy@@@v8@@@Z 00000001800435f4     libRVO_wrap.obj
 0002:00011600       $chain$0$?_wrap_delete_vectori@@YAXAEBV?$WeakCallbackData@VObject@v8@@VSWIGV8_Proxy@@@v8@@@Z 0000000180043600     libRVO_wrap.obj
 0002:00011614       $chain$1$?_wrap_delete_vectori@@YAXAEBV?$WeakCallbackData@VObject@v8@@VSWIGV8_Proxy@@@v8@@@Z 0000000180043614     libRVO_wrap.obj
 0002:00011624       $unwind$?_wrap_vectord_get@@YAXAEBV?$FunctionCallbackInfo@VValue@v8@@@v8@@@Z 0000000180043624     libRVO_wrap.obj
 0002:00011640       $tryMap$?_wrap_vectord_get@@YAXAEBV?$FunctionCallbackInfo@VValue@v8@@@v8@@@Z 0000000180043640     libRVO_wrap.obj
 0002:00011654       $handlerMap$0$?_wrap_vectord_get@@YAXAEBV?$FunctionCallbackInfo@VValue@v8@@@v8@@@Z 0000000180043654     libRVO_wrap.obj
 0002:00011670       $ip2state$?_wrap_vectord_get@@YAXAEBV?$FunctionCallbackInfo@VValue@v8@@@v8@@@Z 0000000180043670     libRVO_wrap.obj
 0002:000116b0       $unwind$?catch$0@?0??_wrap_vectord_get@@YAXAEBV?$FunctionCallbackInfo@VValue@v8@@@v8@@@Z@4HA 00000001800436b0     libRVO_wrap.obj
 0002:000116c4       $unwind$?_wrap_vectord_set@@YAXAEBV?$FunctionCallbackInfo@VValue@v8@@@v8@@@Z 00000001800436c4     libRVO_wrap.obj
 0002:000116dc       $tryMap$?_wrap_vectord_set@@YAXAEBV?$FunctionCallbackInfo@VValue@v8@@@v8@@@Z 00000001800436dc     libRVO_wrap.obj
 0002:000116f0       $handlerMap$0$?_wrap_vectord_set@@YAXAEBV?$FunctionCallbackInfo@VValue@v8@@@v8@@@Z 00000001800436f0     libRVO_wrap.obj
 0002:00011710       $ip2state$?_wrap_vectord_set@@YAXAEBV?$FunctionCallbackInfo@VValue@v8@@@v8@@@Z 0000000180043710     libRVO_wrap.obj
 0002:00011750       $unwind$?catch$0@?0??_wrap_vectord_set@@YAXAEBV?$FunctionCallbackInfo@VValue@v8@@@v8@@@Z@4HA 0000000180043750     libRVO_wrap.obj
 0002:00011764       $chain$0$?_wrap_delete_vectorvector@@YAXAEBV?$WeakCallbackData@VObject@v8@@VSWIGV8_Proxy@@@v8@@@Z 0000000180043764     libRVO_wrap.obj
 0002:00011764       $chain$0$?_wrap_delete_vectord@@YAXAEBV?$WeakCallbackData@VObject@v8@@VSWIGV8_Proxy@@@v8@@@Z 0000000180043764     libRVO_wrap.obj
 0002:00011778       $chain$1$?_wrap_delete_vectorvector@@YAXAEBV?$WeakCallbackData@VObject@v8@@VSWIGV8_Proxy@@@v8@@@Z 0000000180043778     libRVO_wrap.obj
 0002:00011778       $chain$1$?_wrap_delete_vectord@@YAXAEBV?$WeakCallbackData@VObject@v8@@VSWIGV8_Proxy@@@v8@@@Z 0000000180043778     libRVO_wrap.obj
 0002:00011788       $unwind$?_wrap_vectorline_get@@YAXAEBV?$FunctionCallbackInfo@VValue@v8@@@v8@@@Z 0000000180043788     libRVO_wrap.obj
 0002:000117a0       $tryMap$?_wrap_vectorline_get@@YAXAEBV?$FunctionCallbackInfo@VValue@v8@@@v8@@@Z 00000001800437a0     libRVO_wrap.obj
 0002:000117b4       $handlerMap$0$?_wrap_vectorline_get@@YAXAEBV?$FunctionCallbackInfo@VValue@v8@@@v8@@@Z 00000001800437b4     libRVO_wrap.obj
 0002:000117d0       $ip2state$?_wrap_vectorline_get@@YAXAEBV?$FunctionCallbackInfo@VValue@v8@@@v8@@@Z 00000001800437d0     libRVO_wrap.obj
 0002:00011810       $unwind$?catch$0@?0??_wrap_vectorline_get@@YAXAEBV?$FunctionCallbackInfo@VValue@v8@@@v8@@@Z@4HA 0000000180043810     libRVO_wrap.obj
 0002:00011824       $unwind$?_wrap_vectorline_set@@YAXAEBV?$FunctionCallbackInfo@VValue@v8@@@v8@@@Z 0000000180043824     libRVO_wrap.obj
 0002:0001183c       $tryMap$?_wrap_vectorline_set@@YAXAEBV?$FunctionCallbackInfo@VValue@v8@@@v8@@@Z 000000018004383c     libRVO_wrap.obj
 0002:00011850       $handlerMap$0$?_wrap_vectorline_set@@YAXAEBV?$FunctionCallbackInfo@VValue@v8@@@v8@@@Z 0000000180043850     libRVO_wrap.obj
 0002:00011870       $ip2state$?_wrap_vectorline_set@@YAXAEBV?$FunctionCallbackInfo@VValue@v8@@@v8@@@Z 0000000180043870     libRVO_wrap.obj
 0002:000118b0       $unwind$?catch$0@?0??_wrap_vectorline_set@@YAXAEBV?$FunctionCallbackInfo@VValue@v8@@@v8@@@Z@4HA 00000001800438b0     libRVO_wrap.obj
 0002:000118c4       $chain$0$?_wrap_delete_vectorline@@YAXAEBV?$WeakCallbackData@VObject@v8@@VSWIGV8_Proxy@@@v8@@@Z 00000001800438c4     libRVO_wrap.obj
 0002:000118d8       $chain$1$?_wrap_delete_vectorline@@YAXAEBV?$WeakCallbackData@VObject@v8@@VSWIGV8_Proxy@@@v8@@@Z 00000001800438d8     libRVO_wrap.obj
 0002:000118e8       $unwind$?_wrap_vectorvector_get@@YAXAEBV?$FunctionCallbackInfo@VValue@v8@@@v8@@@Z 00000001800438e8     libRVO_wrap.obj
 0002:00011900       $tryMap$?_wrap_vectorvector_get@@YAXAEBV?$FunctionCallbackInfo@VValue@v8@@@v8@@@Z 0000000180043900     libRVO_wrap.obj
 0002:00011914       $handlerMap$0$?_wrap_vectorvector_get@@YAXAEBV?$FunctionCallbackInfo@VValue@v8@@@v8@@@Z 0000000180043914     libRVO_wrap.obj
 0002:00011930       $ip2state$?_wrap_vectorvector_get@@YAXAEBV?$FunctionCallbackInfo@VValue@v8@@@v8@@@Z 0000000180043930     libRVO_wrap.obj
 0002:00011970       $unwind$?catch$0@?0??_wrap_vectorvector_get@@YAXAEBV?$FunctionCallbackInfo@VValue@v8@@@v8@@@Z@4HA 0000000180043970     libRVO_wrap.obj
 0002:00011984       $unwind$?_wrap_vectorvector_set@@YAXAEBV?$FunctionCallbackInfo@VValue@v8@@@v8@@@Z 0000000180043984     libRVO_wrap.obj
 0002:0001199c       $tryMap$?_wrap_vectorvector_set@@YAXAEBV?$FunctionCallbackInfo@VValue@v8@@@v8@@@Z 000000018004399c     libRVO_wrap.obj
 0002:000119b0       $handlerMap$0$?_wrap_vectorvector_set@@YAXAEBV?$FunctionCallbackInfo@VValue@v8@@@v8@@@Z 00000001800439b0     libRVO_wrap.obj
 0002:000119d0       $ip2state$?_wrap_vectorvector_set@@YAXAEBV?$FunctionCallbackInfo@VValue@v8@@@v8@@@Z 00000001800439d0     libRVO_wrap.obj
 0002:00011a10       $unwind$?catch$0@?0??_wrap_vectorvector_set@@YAXAEBV?$FunctionCallbackInfo@VValue@v8@@@v8@@@Z@4HA 0000000180043a10     libRVO_wrap.obj
 0002:00011a24       $unwind$?SWIG_V8_SetModule@@YAXPEAXPEAUswig_module_info@@@Z 0000000180043a24     libRVO_wrap.obj
 0002:00011a30       $unwind$?SWIG_V8_GetModule@@YAPEAUswig_module_info@@PEAX@Z 0000000180043a30     libRVO_wrap.obj
 0002:00011a38       $unwind$SWIG_InitializeModule 0000000180043a38     libRVO_wrap.obj
 0002:00011a44       $chain$0$SWIG_InitializeModule 0000000180043a44     libRVO_wrap.obj
 0002:00011a58       $chain$4$SWIG_InitializeModule 0000000180043a58     libRVO_wrap.obj
 0002:00011a78       $chain$5$SWIG_InitializeModule 0000000180043a78     libRVO_wrap.obj
 0002:00011a88       $chain$6$SWIG_InitializeModule 0000000180043a88     libRVO_wrap.obj
 0002:00011a98       $chain$7$SWIG_InitializeModule 0000000180043a98     libRVO_wrap.obj
 0002:00011abc       $unwind$libRVO_initialize  0000000180043abc     libRVO_wrap.obj
 0002:00011ad8       $unwind$?internal_isupper_l@@YA_NHQEAU__crt_locale_pointers@@@Z 0000000180043ad8     libucrt:tolower_toupper.obj
 0002:00011ad8       $unwind$__vcrt_FlsGetValue 0000000180043ad8     libvcruntime:winapi_downlevel.obj
 0002:00011ad8       $unwind$_callnewh          0000000180043ad8     libucrt:new_handler.obj
 0002:00011ad8       $unwind$?force_decimal_point@__crt_stdio_output@@YAXPEADQEAU__crt_locale_pointers@@@Z 0000000180043ad8     libucrt:output.obj
 0002:00011ad8       $unwind$?push_back@?$vector@HV?$allocator@H@std@@@std@@QEAAXAEBH@Z 0000000180043ad8     libRVO_wrap.obj
 0002:00011ad8       $unwind$??0?$vector@NV?$allocator@N@std@@@std@@QEAA@_K@Z 0000000180043ad8     libRVO_wrap.obj
 0002:00011ad8       $unwind$??1KdTree@RVO@@AEAA@XZ 0000000180043ad8     KdTree.obj
 0002:00011ad8       $unwind$?push_back@?$vector@VVector2@RVO@@V?$allocator@VVector2@RVO@@@std@@@std@@QEAAXAEBVVector2@RVO@@@Z 0000000180043ad8     libRVO_wrap.obj
 0002:00011ad8       $unwind$strncpy_s          0000000180043ad8     libucrt:strncpy_s.obj
 0002:00011ad8       $unwind$??0_LocaleUpdate@@QEAA@QEAU__crt_locale_pointers@@@Z 0000000180043ad8     libucrt:output.obj
 0002:00011ad8       $unwind$_updatetlocinfoEx_nolock 0000000180043ad8     libucrt:locale_refcounting.obj
 0002:00011ad8       $unwind$?DloadGetSRWLockFunctionPointers@@YAEXZ 0000000180043ad8     DelayImp:delayhlp.obj
 0002:00011ad8       $unwind$__acrt_uninitialize_lowio 0000000180043ad8     libucrt:ioinit.obj
 0002:00011ad8       $unwind$?push_back@?$vector@VLine@RVO@@V?$allocator@VLine@RVO@@@std@@@std@@QEAAXAEBVLine@RVO@@@Z 0000000180043ad8     libRVO_wrap.obj
 0002:00011ad8       $unwind$__acrt_get_parent_window 0000000180043ad8     libucrt:winapi_thunks.obj
 0002:00011ad8       $unwind$??$common_xtox@K_W@@YAHKQEA_W_KI_N@Z 0000000180043ad8     libucrt:xtoa.obj
 0002:00011ad8       $unwind$__acrt_stdio_begin_temporary_buffering_nolock 0000000180043ad8     libucrt:_sftbuf.obj
 0002:00011ad8       $unwind$__acrt_invoke_user_matherr 0000000180043ad8     libucrt:matherr.obj
 0002:00011ad8       $unwind$wcsncat_s          0000000180043ad8     libucrt:wcsncat_s.obj
 0002:00011ad8       $unwind$?try_cor_exit_process@@YAXI@Z 0000000180043ad8     libucrt:exit.obj
 0002:00011ad8       $unwind$__vcrt_FlsFree     0000000180043ad8     libvcruntime:winapi_downlevel.obj
 0002:00011ad8       $unwind$??_Glength_error@std@@UEAAPEAXI@Z 0000000180043ad8     libcpmt:xthrow.obj
 0002:00011ad8       $unwind$_fclose_nolock     0000000180043ad8     libucrt:fclose.obj
 0002:00011ad8       $unwind$?__SetUnwindTryBlock@@YAXPEA_KPEAU_xDISPATCHER_CONTEXT@@PEBU_s_FuncInfo@@H@Z 0000000180043ad8     libvcruntime:ehstate.obj
 0002:00011ad8       $unwind$?DloadAcquireSectionWriteAccess@@YAXXZ 0000000180043ad8     DelayImp:delayhlp.obj
 0002:00011ad8       $unwind$__acrt_FlsAlloc    0000000180043ad8     libucrt:winapi_thunks.obj
 0002:00011ad8       $unwind$??_Gbad_array_new_length@std@@UEAAPEAXI@Z 0000000180043ad8     LIBCMT:throw_bad_alloc.obj
 0002:00011ad8       $unwind$_FindAndUnlinkFrame 0000000180043ad8     libvcruntime:trnsctrl.obj
 0002:00011ad8       $unwind$??$common_initialize_environment_nolock@D@@YAHXZ 0000000180043ad8     libucrt:environment_initialization.obj
 0002:00011ad8       $unwind$__acrt_FlsFree     0000000180043ad8     libucrt:winapi_thunks.obj
 0002:00011ad8       $unwind$??_Gbad_alloc@std@@UEAAPEAXI@Z 0000000180043ad8     libcpmt:xthrow.obj
 0002:00011ad8       $unwind$??_Gbad_exception@std@@UEAAPEAXI@Z 0000000180043ad8     libvcruntime:frame.obj
 0002:00011ad8       $unwind$_realloc_base      0000000180043ad8     libucrt:realloc_base.obj
 0002:00011ad8       $unwind$__acrt_FlsGetValue 0000000180043ad8     libucrt:winapi_thunks.obj
 0002:00011ad8       $unwind$??_Gexception@std@@UEAAPEAXI@Z 0000000180043ad8     libcpmt:xthrow.obj
 0002:00011ad8       $unwind$__acrt_getptd      0000000180043ad8     libucrt:per_thread_data.obj
 0002:00011ad8       $unwind$__vcrt_FlsAlloc    0000000180043ad8     libvcruntime:winapi_downlevel.obj
 0002:00011ad8       $unwind$?push_back@?$vector@NV?$allocator@N@std@@@std@@QEAAXAEBN@Z 0000000180043ad8     libRVO_wrap.obj
 0002:00011ad8       $unwind$?type_case_c_tchar@?$output_processor@DV?$string_output_adapter@D@__crt_stdio_output@@V?$standard_base@DV?$string_output_adapter@D@__crt_stdio_output@@@2@@__crt_stdio_output@@AEAA_ND@Z 0000000180043ad8     libucrt:output.obj
 0002:00011ad8       $unwind$?replace_current_thread_locale_nolock@@YAXQEAU__acrt_ptd@@QEAU__crt_locale_data@@@Z 0000000180043ad8     libucrt:per_thread_data.obj
 0002:00011ad8       $unwind$?ExFilterRethrow@@YAHPEAU_EXCEPTION_POINTERS@@PEAUEHExceptionRecord@@PEAH@Z 0000000180043ad8     libvcruntime:frame.obj
 0002:00011ad8       $unwind$??0?$vector@HV?$allocator@H@std@@@std@@QEAA@_K@Z 0000000180043ad8     libRVO_wrap.obj
 0002:00011ad8       $unwind$_close_nolock      0000000180043ad8     libucrt:close.obj
 0002:00011ad8       $unwind$__acrt_errno_map_os_error 0000000180043ad8     libucrt:errno.obj
 0002:00011ae4       $unwind$?deallocate@?$_Wrap_alloc@V?$allocator@VAgentTreeNode@KdTree@RVO@@@std@@@std@@QEAAXPEAVAgentTreeNode@KdTree@RVO@@_K@Z 0000000180043ae4     KdTree.obj
 0002:00011ae4       $unwind$uninitialize_environment 0000000180043ae4     libucrt:initialization.obj
 0002:00011ae4       $unwind$initialize_c       0000000180043ae4     libucrt:initialization.obj
 0002:00011ae4       $unwind$__vcrt_initialize_ptd 0000000180043ae4     libvcruntime:per_thread_data.obj
 0002:00011ae4       $unwind$__dcrt_terminate_console_output 0000000180043ae4     libucrt:initcon.obj
 0002:00011ae4       $unwind$__scrt_acquire_startup_lock 0000000180043ae4     LIBCMT:utility.obj
 0002:00011ae4       $unwind$?state_case_size@?$output_processor@_WV?$stream_output_adapter@_W@__crt_stdio_output@@V?$standard_base@_WV?$stream_output_adapter@_W@__crt_stdio_output@@@2@@__crt_stdio_output@@AEAA_NXZ 0000000180043ae4     libucrt:output.obj
 0002:00011ae4       $unwind$__FrameUnwindFilter 0000000180043ae4     libvcruntime:frame.obj
 0002:00011ae4       $unwind$?allocate@?$_Wrap_alloc@V?$allocator@PEAVObstacle@RVO@@@std@@@std@@QEAAPEAPEAVObstacle@RVO@@_K@Z 0000000180043ae4     KdTree.obj
 0002:00011ae4       $unwind$__acrt_initialize_command_line 0000000180043ae4     libucrt:argv_data.obj
 0002:00011ae4       $unwind$?deallocate@?$_Wrap_alloc@V?$allocator@PEAVObstacle@RVO@@@std@@@std@@QEAAXPEAPEAVObstacle@RVO@@_K@Z 0000000180043ae4     KdTree.obj
 0002:00011ae4       $unwind$atexit             0000000180043ae4     LIBCMT:utility.obj
 0002:00011ae4       $unwind$?_Reserve@?$vector@VLine@RVO@@V?$allocator@VLine@RVO@@@std@@@std@@IEAAX_K@Z 0000000180043ae4     libRVO_wrap.obj
 0002:00011ae4       $unwind$_GetThrowImageBase 0000000180043ae4     libvcruntime:trnsctrl.obj
 0002:00011ae4       $unwind$_getfpcontrolword  0000000180043ae4     libucrt:_fenvutils.obj
 0002:00011ae4       $unwind$__acrt_initialize_multibyte 0000000180043ae4     libucrt:mbctype.obj
 0002:00011ae4       $unwind$__vcrt_uninitialize_ptd 0000000180043ae4     libvcruntime:per_thread_data.obj
 0002:00011ae4       $unwind$_isatty            0000000180043ae4     libucrt:isatty.obj
 0002:00011ae4       $unwind$?deallocate@?$_Wrap_alloc@V?$allocator@PEAVAgent@RVO@@@std@@@std@@QEAAXPEAPEAVAgent@RVO@@_K@Z 0000000180043ae4     KdTree.obj
 0002:00011ae4       $unwind$__acrt_thread_detach 0000000180043ae4     libucrt:initialization.obj
 0002:00011ae4       $unwind$?initialize_multibyte@@YAHXZ 0000000180043ae4     libucrt:multibyte_initializer.obj
 0002:00011ae4       $unwind$_set_error_mode    0000000180043ae4     libucrt:set_error_mode.obj
 0002:00011ae4       $unwind$__vcrt_getptd      0000000180043ae4     libvcruntime:per_thread_data.obj
 0002:00011ae4       $unwind$?_Reserve@?$vector@HV?$allocator@H@std@@@std@@IEAAX_K@Z 0000000180043ae4     libRVO_wrap.obj
 0002:00011ae4       $unwind$__acrt_uninitialize_ptd 0000000180043ae4     libucrt:per_thread_data.obj
 0002:00011ae4       $unwind$?_Reserve@?$vector@PEAVObstacle@RVO@@V?$allocator@PEAVObstacle@RVO@@@std@@@std@@IEAAX_K@Z 0000000180043ae4     KdTree.obj
 0002:00011ae4       $unwind$?deallocate@?$_Wrap_alloc@V?$allocator@H@std@@@std@@QEAAXPEAH_K@Z 0000000180043ae4     libRVO_wrap.obj
 0002:00011ae4       $unwind$?__GetCurrentState@@YAHPEA_KPEAU_xDISPATCHER_CONTEXT@@PEBU_s_FuncInfo@@@Z 0000000180043ae4     libvcruntime:ehstate.obj
 0002:00011ae4       $unwind$__acrt_initialize_ptd 0000000180043ae4     libucrt:per_thread_data.obj
 0002:00011ae4       $unwind$?_Reserve@?$vector@PEAVAgent@RVO@@V?$allocator@PEAVAgent@RVO@@@std@@@std@@IEAAX_K@Z 0000000180043ae4     KdTree.obj
 0002:00011ae4       $unwind$_stricmp           0000000180043ae4     libucrt:stricmp.obj
 0002:00011ae4       $unwind$abort              0000000180043ae4     libucrt:abort.obj
 0002:00011ae4       $unwind$?state_case_size@?$output_processor@_WV?$string_output_adapter@_W@__crt_stdio_output@@V?$standard_base@_WV?$string_output_adapter@_W@__crt_stdio_output@@@2@@__crt_stdio_output@@AEAA_NXZ 0000000180043ae4     libucrt:output.obj
 0002:00011ae4       $unwind$?dllmain_crt_dispatch@@YAHQEAUHINSTANCE__@@KQEAX@Z 0000000180043ae4     LIBCMT:dll_dllmain.obj
 0002:00011ae4       $unwind$__acrt_thread_attach 0000000180043ae4     libucrt:initialization.obj
 0002:00011ae4       $unwind$__pctype_func      0000000180043ae4     libucrt:ctype.obj
 0002:00011ae4       $unwind$_GetImageBase      0000000180043ae4     libvcruntime:trnsctrl.obj
 0002:00011ae4       $unwind$_invoke_watson     0000000180043ae4     libucrt:invalid_parameter.obj
 0002:00011ae4       $unwind$__acrt_uninitialize_critical 0000000180043ae4     libucrt:initialization.obj
 0002:00011ae4       $unwind$?_Reserve@?$vector@VVector2@RVO@@V?$allocator@VVector2@RVO@@@std@@@std@@IEAAX_K@Z 0000000180043ae4     libRVO_wrap.obj
 0002:00011ae4       $unwind$?deallocate@?$_Wrap_alloc@V?$allocator@N@std@@@std@@QEAAXPEAN_K@Z 0000000180043ae4     libRVO_wrap.obj
 0002:00011ae4       $unwind$_fileno            0000000180043ae4     libucrt:fileno.obj
 0002:00011ae4       $unwind$__GSHandlerCheck   0000000180043ae4     LIBCMT:_gshandler_.obj
 0002:00011ae4       $unwind$?allocate@?$_Wrap_alloc@V?$allocator@H@std@@@std@@QEAAPEAH_K@Z 0000000180043ae4     libRVO_wrap.obj
 0002:00011ae4       $unwind$_getfpstatusword   0000000180043ae4     libucrt:_fenvutils.obj
 0002:00011ae4       $unwind$__vcrt_initialize  0000000180043ae4     libvcruntime:initialization.obj
 0002:00011ae4       $unwind$__report_rangecheckfailure 0000000180043ae4     LIBCMT:gs_report.obj
 0002:00011ae4       $unwind$?_Reserve@?$vector@NV?$allocator@N@std@@@std@@IEAAX_K@Z 0000000180043ae4     libRVO_wrap.obj
 0002:00011ae4       $unwind$__scrt_dllmain_before_initialize_c 0000000180043ae4     LIBCMT:utility.obj
 0002:00011ae4       $unwind$__scrt_dllmain_after_initialize_c 0000000180043ae4     LIBCMT:utility.obj
 0002:00011ae4       $unwind$__vcrt_freefls     0000000180043ae4     libvcruntime:per_thread_data.obj
 0002:00011ae4       $unwind$tolower            0000000180043ae4     libucrt:tolower_toupper.obj
 0002:00011ae4       $unwind$__scrt_dllmain_uninitialize_c 0000000180043ae4     LIBCMT:utility.obj
 0002:00011ae4       $unwind$__vcrt_uninitialize 0000000180043ae4     libvcruntime:initialization.obj
 0002:00011ae4       $unwind$_msize             0000000180043ae4     libucrt:msize.obj
 0002:00011ae4       $unwind$__vcrt_uninitialize_critical 0000000180043ae4     libvcruntime:initialization.obj
 0002:00011ae4       $unwind$__scrt_initialize_default_local_stdio_options 0000000180043ae4     LIBCMT:default_local_stdio_options.obj
 0002:00011ae4       $unwind$?state_case_normal_tchar@?$output_processor@DV?$string_output_adapter@D@__crt_stdio_output@@V?$standard_base@DV?$string_output_adapter@D@__crt_stdio_output@@@2@@__crt_stdio_output@@AEAA_ND@Z 0000000180043ae4     libucrt:output.obj
 0002:00011ae4       $unwind$?_Reserve@?$vector@U?$pair@MPEBVAgent@RVO@@@std@@V?$allocator@U?$pair@MPEBVAgent@RVO@@@std@@@2@@std@@IEAAX_K@Z 0000000180043ae4     Agent.obj
 0002:00011ae4       $unwind$__vcrt_thread_attach 0000000180043ae4     libvcruntime:initialization.obj
 0002:00011ae4       $unwind$?allocate@?$_Wrap_alloc@V?$allocator@VLine@RVO@@@std@@@std@@QEAAPEAVLine@RVO@@_K@Z 0000000180043ae4     libRVO_wrap.obj
 0002:00011ae4       $unwind$__scrt_dllmain_uninitialize_critical 0000000180043ae4     LIBCMT:utility.obj
 0002:00011ae4       $unwind$__vcrt_thread_detach 0000000180043ae4     libvcruntime:initialization.obj
 0002:00011ae4       $unwind$?_Reserve@?$vector@U?$pair@MPEBVObstacle@RVO@@@std@@V?$allocator@U?$pair@MPEBVObstacle@RVO@@@std@@@2@@std@@IEAAX_K@Z 0000000180043ae4     Agent.obj
 0002:00011ae4       $unwind$?deallocate@?$_Wrap_alloc@V?$allocator@VVector2@RVO@@@std@@@std@@QEAAXPEAVVector2@RVO@@_K@Z 0000000180043ae4     libRVO_wrap.obj
 0002:00011ae4       $unwind$??$uninitialize_environment_internal@_W@@YAXAEAPEAPEA_W@Z 0000000180043ae4     libucrt:environment_initialization.obj
 0002:00011ae4       $unwind$??$uninitialize_environment_internal@D@@YAXAEAPEAPEAD@Z 0000000180043ae4     libucrt:environment_initialization.obj
 0002:00011ae4       $unwind$__acrt_release_locale_ref 0000000180043ae4     libucrt:locale_refcounting.obj
 0002:00011ae4       $unwind$?allocate@?$_Wrap_alloc@V?$allocator@VVector2@RVO@@@std@@@std@@QEAAPEAVVector2@RVO@@_K@Z 0000000180043ae4     libRVO_wrap.obj
 0002:00011ae4       $unwind$__scrt_dllmain_crt_thread_attach 0000000180043ae4     LIBCMT:utility.obj
 0002:00011ae4       $unwind$__acrt_DownlevelLocaleNameToLCID 0000000180043ae4     libucrt:lcidtoname_downlevel.obj
 0002:00011ae4       $unwind$__scrt_dllmain_crt_thread_detach 0000000180043ae4     LIBCMT:utility.obj
 0002:00011ae4       $unwind$_errno             0000000180043ae4     libucrt:errno.obj
 0002:00011ae4       $unwind$__dcrt_uninitialize_environments_nolock 0000000180043ae4     libucrt:environment_initialization.obj
 0002:00011ae4       $unwind$__acrt_initialize_heap 0000000180043ae4     libucrt:heap_handle.obj
 0002:00011ae4       $unwind$?state_case_size@?$output_processor@DV?$string_output_adapter@D@__crt_stdio_output@@V?$standard_base@DV?$string_output_adapter@D@__crt_stdio_output@@@2@@__crt_stdio_output@@AEAA_NXZ 0000000180043ae4     libucrt:output.obj
 0002:00011ae4       $unwind$_statfp            0000000180043ae4     libucrt:fpctrl.obj
 0002:00011ae4       $unwind$?allocate@?$_Wrap_alloc@V?$allocator@N@std@@@std@@QEAAPEAN_K@Z 0000000180043ae4     libRVO_wrap.obj
 0002:00011ae4       $unwind$_set_errno_from_matherr 0000000180043ae4     libucrt:fpexcept.obj
 0002:00011ae4       $unwind$__doserrno         0000000180043ae4     libucrt:errno.obj
 0002:00011ae4       $unwind$_get_osfhandle     0000000180043ae4     libucrt:osfinfo.obj
 0002:00011aec       $unwind$?_Reallocate@?$vector@PEAVObstacle@RVO@@V?$allocator@PEAVObstacle@RVO@@@std@@@std@@IEAAX_K@Z 0000000180043aec     KdTree.obj
 0002:00011aec       $unwind$??R<lambda_b721fa326cdb32351d23dfa67958c160>@@QEBAHXZ 0000000180043aec     libucrt:setvbuf.obj
 0002:00011aec       $unwind$?type_case_c_tchar@?$output_processor@_WV?$stream_output_adapter@_W@__crt_stdio_output@@V?$standard_base@_WV?$stream_output_adapter@_W@__crt_stdio_output@@@2@@__crt_stdio_output@@AEAA_N_W@Z 0000000180043aec     libucrt:output.obj
 0002:00011aec       $unwind$?_Reallocate@?$vector@HV?$allocator@H@std@@@std@@IEAAX_K@Z 0000000180043aec     libRVO_wrap.obj
 0002:00011aec       $unwind$?_Reallocate@?$vector@VAgentTreeNode@KdTree@RVO@@V?$allocator@VAgentTreeNode@KdTree@RVO@@@std@@@std@@IEAAX_K@Z 0000000180043aec     KdTree.obj
 0002:00011aec       $unwind$?type_case_c_tchar@?$output_processor@_WV?$string_output_adapter@_W@__crt_stdio_output@@V?$standard_base@_WV?$string_output_adapter@_W@__crt_stdio_output@@@2@@__crt_stdio_output@@AEAA_N_W@Z 0000000180043aec     libucrt:output.obj
 0002:00011aec       $unwind$?_Reallocate@?$vector@PEAVAgent@RVO@@V?$allocator@PEAVAgent@RVO@@@std@@@std@@IEAAX_K@Z 0000000180043aec     KdTree.obj
 0002:00011aec       $unwind$?_Reallocate@?$vector@NV?$allocator@N@std@@@std@@IEAAX_K@Z 0000000180043aec     libRVO_wrap.obj
 0002:00011afc       $chain$0$?_Reallocate@?$vector@NV?$allocator@N@std@@@std@@IEAAX_K@Z 0000000180043afc     libRVO_wrap.obj
 0002:00011afc       $chain$0$?_Reallocate@?$vector@PEAVAgent@RVO@@V?$allocator@PEAVAgent@RVO@@@std@@@std@@IEAAX_K@Z 0000000180043afc     KdTree.obj
 0002:00011afc       $chain$0$?_Reallocate@?$vector@PEAVObstacle@RVO@@V?$allocator@PEAVObstacle@RVO@@@std@@@std@@IEAAX_K@Z 0000000180043afc     KdTree.obj
 0002:00011b10       $chain$1$?_Reallocate@?$vector@NV?$allocator@N@std@@@std@@IEAAX_K@Z 0000000180043b10     libRVO_wrap.obj
 0002:00011b10       $chain$1$?_Reallocate@?$vector@PEAVAgent@RVO@@V?$allocator@PEAVAgent@RVO@@@std@@@std@@IEAAX_K@Z 0000000180043b10     KdTree.obj
 0002:00011b10       $chain$1$?_Reallocate@?$vector@PEAVObstacle@RVO@@V?$allocator@PEAVObstacle@RVO@@@std@@@std@@IEAAX_K@Z 0000000180043b10     KdTree.obj
 0002:00011b20       $chain$0$?_Reallocate@?$vector@HV?$allocator@H@std@@@std@@IEAAX_K@Z 0000000180043b20     libRVO_wrap.obj
 0002:00011b34       $chain$1$?_Reallocate@?$vector@HV?$allocator@H@std@@@std@@IEAAX_K@Z 0000000180043b34     libRVO_wrap.obj
 0002:00011b44       $unwind$?_Reallocate@?$vector@U?$pair@MPEBVAgent@RVO@@@std@@V?$allocator@U?$pair@MPEBVAgent@RVO@@@std@@@2@@std@@IEAAX_K@Z 0000000180043b44     Agent.obj
 0002:00011b44       $unwind$?_Reallocate@?$vector@VLine@RVO@@V?$allocator@VLine@RVO@@@std@@@std@@IEAAX_K@Z 0000000180043b44     libRVO_wrap.obj
 0002:00011b44       $unwind$?_Reallocate@?$vector@U?$pair@MPEBVObstacle@RVO@@@std@@V?$allocator@U?$pair@MPEBVObstacle@RVO@@@std@@@2@@std@@IEAAX_K@Z 0000000180043b44     Agent.obj
 0002:00011b58       $chain$0$?_Reallocate@?$vector@VLine@RVO@@V?$allocator@VLine@RVO@@@std@@@std@@IEAAX_K@Z 0000000180043b58     libRVO_wrap.obj
 0002:00011b58       $chain$0$?_Reallocate@?$vector@U?$pair@MPEBVObstacle@RVO@@@std@@V?$allocator@U?$pair@MPEBVObstacle@RVO@@@std@@@2@@std@@IEAAX_K@Z 0000000180043b58     Agent.obj
 0002:00011b58       $chain$0$?_Reallocate@?$vector@U?$pair@MPEBVAgent@RVO@@@std@@V?$allocator@U?$pair@MPEBVAgent@RVO@@@std@@@2@@std@@IEAAX_K@Z 0000000180043b58     Agent.obj
 0002:00011b6c       $chain$1$?_Reallocate@?$vector@U?$pair@MPEBVObstacle@RVO@@@std@@V?$allocator@U?$pair@MPEBVObstacle@RVO@@@std@@@2@@std@@IEAAX_K@Z 0000000180043b6c     Agent.obj
 0002:00011b6c       $chain$1$?_Reallocate@?$vector@U?$pair@MPEBVAgent@RVO@@@std@@V?$allocator@U?$pair@MPEBVAgent@RVO@@@std@@@2@@std@@IEAAX_K@Z 0000000180043b6c     Agent.obj
 0002:00011b6c       $chain$1$?_Reallocate@?$vector@VLine@RVO@@V?$allocator@VLine@RVO@@@std@@@std@@IEAAX_K@Z 0000000180043b6c     libRVO_wrap.obj
 0002:00011b7c       $chain$2$?_Reallocate@?$vector@U?$pair@MPEBVAgent@RVO@@@std@@V?$allocator@U?$pair@MPEBVAgent@RVO@@@std@@@2@@std@@IEAAX_K@Z 0000000180043b7c     Agent.obj
 0002:00011b7c       $chain$2$?_Reallocate@?$vector@VLine@RVO@@V?$allocator@VLine@RVO@@@std@@@std@@IEAAX_K@Z 0000000180043b7c     libRVO_wrap.obj
 0002:00011b7c       $chain$2$?_Reallocate@?$vector@U?$pair@MPEBVObstacle@RVO@@@std@@V?$allocator@U?$pair@MPEBVObstacle@RVO@@@std@@@2@@std@@IEAAX_K@Z 0000000180043b7c     Agent.obj
 0002:00011b90       $unwind$?_Reallocate@?$vector@VVector2@RVO@@V?$allocator@VVector2@RVO@@@std@@@std@@IEAAX_K@Z 0000000180043b90     libRVO_wrap.obj
 0002:00011ba0       $chain$0$?_Reallocate@?$vector@VVector2@RVO@@V?$allocator@VVector2@RVO@@@std@@@std@@IEAAX_K@Z 0000000180043ba0     libRVO_wrap.obj
 0002:00011bb4       $chain$1$?_Reallocate@?$vector@VVector2@RVO@@V?$allocator@VVector2@RVO@@@std@@@std@@IEAAX_K@Z 0000000180043bb4     libRVO_wrap.obj
 0002:00011bc4       $unwind$?computeNewVelocity@Agent@RVO@@AEAAXXZ 0000000180043bc4     Agent.obj
 0002:00011c04       $chain$0$?computeNewVelocity@Agent@RVO@@AEAAXXZ 0000000180043c04     Agent.obj
 0002:00011c18       $unwind$?insertAgentNeighbor@Agent@RVO@@AEAAXPEBV12@AEAM@Z 0000000180043c18     Agent.obj
 0002:00011c28       $chain$0$?insertAgentNeighbor@Agent@RVO@@AEAAXPEBV12@AEAM@Z 0000000180043c28     Agent.obj
 0002:00011c3c       $chain$1$?insertAgentNeighbor@Agent@RVO@@AEAAXPEBV12@AEAM@Z 0000000180043c3c     Agent.obj
 0002:00011c50       $chain$2$?insertAgentNeighbor@Agent@RVO@@AEAAXPEBV12@AEAM@Z 0000000180043c50     Agent.obj
 0002:00011c60       $chain$3$?insertAgentNeighbor@Agent@RVO@@AEAAXPEBV12@AEAM@Z 0000000180043c60     Agent.obj
 0002:00011c70       $unwind$?insertObstacleNeighbor@Agent@RVO@@AEAAXPEBVObstacle@2@M@Z 0000000180043c70     Agent.obj
 0002:00011c80       $chain$0$?insertObstacleNeighbor@Agent@RVO@@AEAAXPEBVObstacle@2@M@Z 0000000180043c80     Agent.obj
 0002:00011c94       $chain$1$?insertObstacleNeighbor@Agent@RVO@@AEAAXPEBVObstacle@2@M@Z 0000000180043c94     Agent.obj
 0002:00011ca4       $chain$2$?insertObstacleNeighbor@Agent@RVO@@AEAAXPEBVObstacle@2@M@Z 0000000180043ca4     Agent.obj
 0002:00011cb8       $chain$3$?insertObstacleNeighbor@Agent@RVO@@AEAAXPEBVObstacle@2@M@Z 0000000180043cb8     Agent.obj
 0002:00011cc8       $unwind$?linearProgram1@RVO@@YA_NAEBV?$vector@VLine@RVO@@V?$allocator@VLine@RVO@@@std@@@std@@_KMAEBVVector2@1@_NAEAV41@@Z 0000000180043cc8     Agent.obj
 0002:00011ce8       $chain$6$?linearProgram1@RVO@@YA_NAEBV?$vector@VLine@RVO@@V?$allocator@VLine@RVO@@@std@@@std@@_KMAEBVVector2@1@_NAEAV41@@Z 0000000180043ce8     Agent.obj
 0002:00011d14       $chain$7$?linearProgram1@RVO@@YA_NAEBV?$vector@VLine@RVO@@V?$allocator@VLine@RVO@@@std@@@std@@_KMAEBVVector2@1@_NAEAV41@@Z 0000000180043d14     Agent.obj
 0002:00011d24       $unwind$?linearProgram2@RVO@@YA_KAEBV?$vector@VLine@RVO@@V?$allocator@VLine@RVO@@@std@@@std@@MAEBVVector2@1@_NAEAV41@@Z 0000000180043d24     Agent.obj
 0002:00011d48       $unwind$?linearProgram3@RVO@@YAXAEBV?$vector@VLine@RVO@@V?$allocator@VLine@RVO@@@std@@@std@@_K1MAEAVVector2@1@@Z 0000000180043d48     Agent.obj
 0002:00011d60       $chain$12$?linearProgram3@RVO@@YAXAEBV?$vector@VLine@RVO@@V?$allocator@VLine@RVO@@@std@@@std@@_K1MAEAVVector2@1@@Z 0000000180043d60     Agent.obj
 0002:00011da4       $chain$13$?linearProgram3@RVO@@YAXAEBV?$vector@VLine@RVO@@V?$allocator@VLine@RVO@@@std@@@std@@_K1MAEAVVector2@1@@Z 0000000180043da4     Agent.obj
 0002:00011db4       $chain$14$?linearProgram3@RVO@@YAXAEBV?$vector@VLine@RVO@@V?$allocator@VLine@RVO@@@std@@@std@@_K1MAEAVVector2@1@@Z 0000000180043db4     Agent.obj
 0002:00011df8       $chain$0$?buildAgentTree@KdTree@RVO@@AEAAXXZ 0000000180043df8     KdTree.obj
 0002:00011e0c       $chain$1$?buildAgentTree@KdTree@RVO@@AEAAXXZ 0000000180043e0c     KdTree.obj
 0002:00011e20       $chain$2$?buildAgentTree@KdTree@RVO@@AEAAXXZ 0000000180043e20     KdTree.obj
 0002:00011e30       $chain$3$?buildAgentTree@KdTree@RVO@@AEAAXXZ 0000000180043e30     KdTree.obj
 0002:00011e40       $unwind$?buildAgentTreeRecursive@KdTree@RVO@@AEAAX_K00@Z 0000000180043e40     KdTree.obj
 0002:00011e58       $unwind$?buildObstacleTree@KdTree@RVO@@AEAAXXZ 0000000180043e58     KdTree.obj
 0002:00011e70       $unwind$?buildObstacleTreeRecursive@KdTree@RVO@@AEAAPEAVObstacleTreeNode@12@AEBV?$vector@PEAVObstacle@RVO@@V?$allocator@PEAVObstacle@RVO@@@std@@@std@@@Z 0000000180043e70     KdTree.obj
 0002:00011e7c       $chain$3$?buildObstacleTreeRecursive@KdTree@RVO@@AEAAPEAVObstacleTreeNode@12@AEBV?$vector@PEAVObstacle@RVO@@V?$allocator@PEAVObstacle@RVO@@@std@@@std@@@Z 0000000180043e7c     KdTree.obj
 0002:00011e9c       $chain$8$?buildObstacleTreeRecursive@KdTree@RVO@@AEAAPEAVObstacleTreeNode@12@AEBV?$vector@PEAVObstacle@RVO@@V?$allocator@PEAVObstacle@RVO@@@std@@@std@@@Z 0000000180043e9c     KdTree.obj
 0002:00011ec0       $chain$9$?buildObstacleTreeRecursive@KdTree@RVO@@AEAAPEAVObstacleTreeNode@12@AEBV?$vector@PEAVObstacle@RVO@@V?$allocator@PEAVObstacle@RVO@@@std@@@std@@@Z 0000000180043ec0     KdTree.obj
 0002:00011ed0       $chain$11$?buildObstacleTreeRecursive@KdTree@RVO@@AEAAPEAVObstacleTreeNode@12@AEBV?$vector@PEAVObstacle@RVO@@V?$allocator@PEAVObstacle@RVO@@@std@@@std@@@Z 0000000180043ed0     KdTree.obj
 0002:00011ef0       $unwind$??$free_environment@D@@YAXQEAPEAD@Z 0000000180043ef0     libucrt:environment_initialization.obj
 0002:00011ef0       $unwind$??$free_environment@_W@@YAXQEAPEA_W@Z 0000000180043ef0     libucrt:environment_initialization.obj
 0002:00011ef0       $unwind$?deleteObstacleTree@KdTree@RVO@@AEAAXPEAVObstacleTreeNode@12@@Z 0000000180043ef0     KdTree.obj
 0002:00011efc       $unwind$?queryAgentTreeRecursive@KdTree@RVO@@AEBAXPEAVAgent@2@AEAM_K@Z 0000000180043efc     KdTree.obj
 0002:00011f1c       $unwind$?queryObstacleTreeRecursive@KdTree@RVO@@AEBAXPEAVAgent@2@MPEBVObstacleTreeNode@12@@Z 0000000180043f1c     KdTree.obj
 0002:00011f2c       $chain$3$?queryObstacleTreeRecursive@KdTree@RVO@@AEBAXPEAVAgent@2@MPEBVObstacleTreeNode@12@@Z 0000000180043f2c     KdTree.obj
 0002:00011f4c       $chain$4$?queryObstacleTreeRecursive@KdTree@RVO@@AEBAXPEAVAgent@2@MPEBVObstacleTreeNode@12@@Z 0000000180043f4c     KdTree.obj
 0002:00011f5c       $unwind$?queryVisibilityRecursive@KdTree@RVO@@AEBA_NAEBVVector2@2@0MPEBVObstacleTreeNode@12@@Z 0000000180043f5c     KdTree.obj
 0002:00011f78       $chain$4$?queryVisibilityRecursive@KdTree@RVO@@AEBA_NAEBVVector2@2@0MPEBVObstacleTreeNode@12@@Z 0000000180043f78     KdTree.obj
 0002:00011f9c       $chain$5$?queryVisibilityRecursive@KdTree@RVO@@AEBA_NAEBVVector2@2@0MPEBVObstacleTreeNode@12@@Z 0000000180043f9c     KdTree.obj
 0002:00011fac       $unwind$?_Reserve@?$vector@VAgentTreeNode@KdTree@RVO@@V?$allocator@VAgentTreeNode@KdTree@RVO@@@std@@@std@@IEAAX_K@Z 0000000180043fac     KdTree.obj
 0002:00011fb4       $chain$0$?_Reallocate@?$vector@VAgentTreeNode@KdTree@RVO@@V?$allocator@VAgentTreeNode@KdTree@RVO@@@std@@@std@@IEAAX_K@Z 0000000180043fb4     KdTree.obj
 0002:00011fc8       $chain$1$?_Reallocate@?$vector@VAgentTreeNode@KdTree@RVO@@V?$allocator@VAgentTreeNode@KdTree@RVO@@@std@@@std@@IEAAX_K@Z 0000000180043fc8     KdTree.obj
 0002:00011fd8       $unwind$??0RVOSimulator@RVO@@QEAA@MM_KMMMMAEBVVector2@1@@Z 0000000180043fd8     RVOSimulator.obj
 0002:00011fec       $unwind$??$ensure_buffer_is_big_enough@D@formatting_buffer@__crt_stdio_output@@QEAA_N_K@Z 0000000180043fec     libucrt:output.obj
 0002:00011fec       $unwind$_wassert           0000000180043fec     libucrt:assert.obj
 0002:00011fec       $unwind$?dllmain_raw@@YAHQEAUHINSTANCE__@@KQEAX@Z 0000000180043fec     LIBCMT:dll_dllmain.obj
 0002:00011fec       $unwind$?expand_if_necessary@?$argument_list@D@?A0xca0879c4@@AEAAHXZ 0000000180043fec     libucrt:argv_wildcards.obj
 0002:00011fec       $unwind$_recalloc_base     0000000180043fec     libucrt:recalloc.obj
 0002:00011fec       $unwind$_seh_filter_exe    0000000180043fec     libucrt:exception_filter.obj
 0002:00011fec       $unwind$?setSBCS@@YAXPEAU__crt_multibyte_data@@@Z 0000000180043fec     libucrt:mbctype.obj
 0002:00011fec       $unwind$__acrt_InitializeCriticalSectionEx 0000000180043fec     libucrt:winapi_thunks.obj
 0002:00011fec       $unwind$?_ExecutionInCatch@@YAHPEAU_xDISPATCHER_CONTEXT@@PEBU_s_FuncInfo@@@Z 0000000180043fec     libvcruntime:trnsctrl.obj
 0002:00011fec       $unwind$??1RVOSimulator@RVO@@QEAA@XZ 0000000180043fec     RVOSimulator.obj
 0002:00011fec       $unwind$__acrt_free_locale 0000000180043fec     libucrt:locale_refcounting.obj
 0002:00011fec       $unwind$__vcrt_InitializeCriticalSectionEx 0000000180043fec     libvcruntime:winapi_downlevel.obj
 0002:00011fec       $unwind$__scrt_dllmain_exception_filter 0000000180043fec     LIBCMT:utility.obj
 0002:00011fec       $unwind$__acrt_execute_initializers 0000000180043fec     libucrt:shared_initialization.obj
 0002:00011fec       $unwind$__acrt_lowio_create_handle_array 0000000180043fec     libucrt:osfinfo.obj
 0002:00012000       $unwind$?addAgent@RVOSimulator@RVO@@QEAA_KAEBVVector2@2@@Z 0000000180044000     RVOSimulator.obj
 0002:00012010       $unwind$?addAgent@RVOSimulator@RVO@@QEAA_KAEBVVector2@2@M_KMMMM0@Z 0000000180044010     RVOSimulator.obj
 0002:00012028       $unwind$?addObstacle@RVOSimulator@RVO@@QEAA_KAEBV?$vector@VVector2@RVO@@V?$allocator@VVector2@RVO@@@std@@@std@@@Z 0000000180044028     RVOSimulator.obj
 0002:00012044       $chain$9$?addObstacle@RVOSimulator@RVO@@QEAA_KAEBV?$vector@VVector2@RVO@@V?$allocator@VVector2@RVO@@@std@@@std@@@Z 0000000180044044     RVOSimulator.obj
 0002:0001206c       $chain$10$?addObstacle@RVOSimulator@RVO@@QEAA_KAEBV?$vector@VVector2@RVO@@V?$allocator@VVector2@RVO@@@std@@@std@@@Z 000000018004406c     RVOSimulator.obj
 0002:0001207c       $unwind$?doStep@RVOSimulator@RVO@@QEAAXXZ 000000018004407c     RVOSimulator.obj
 0002:00012088       $chain$0$?doStep@RVOSimulator@RVO@@QEAAXXZ 0000000180044088     RVOSimulator.obj
 0002:0001209c       $chain$2$?doStep@RVOSimulator@RVO@@QEAAXXZ 000000018004409c     RVOSimulator.obj
 0002:000120b4       $chain$3$?doStep@RVOSimulator@RVO@@QEAAXXZ 00000001800440b4     RVOSimulator.obj
 0002:000120c4       $chain$4$?doStep@RVOSimulator@RVO@@QEAAXXZ 00000001800440c4     RVOSimulator.obj
 0002:000120d4       $unwind$?setAgentDefaults@RVOSimulator@RVO@@QEAAXM_KMMMMAEBVVector2@2@@Z 00000001800440d4     RVOSimulator.obj
 0002:000120e8       xdata                      00000001800440e8     node:node.exe
 0002:000120f0       $unwind$?__scrt_throw_std_bad_alloc@@YAXXZ 00000001800440f0     LIBCMT:throw_bad_alloc.obj
 0002:000120f0       $unwind$?__scrt_throw_std_bad_array_new_length@@YAXXZ 00000001800440f0     LIBCMT:throw_bad_alloc.obj
 0002:000120f0       $unwind$_raise_excf        00000001800440f0     libucrt:fpexcept.obj
 0002:000120f0       $unwind$?_Xbad_alloc@std@@YAXXZ 00000001800440f0     libcpmt:xthrow.obj
 0002:000120f0       $unwind$_raise_exc         00000001800440f0     libucrt:fpexcept.obj
 0002:000120f0       $unwind$?_Xlength_error@std@@YAXPEBD@Z 00000001800440f0     libcpmt:xthrow.obj
 0002:000120f0       $unwind$__dcrt_lowio_initialize_console_output 00000001800440f0     libucrt:initcon.obj
 0002:000120f8       $xdatasym                  00000001800440f8     LIBCMT:_amdsecgs_.obj
 0002:000120fc       $unwind$__scrt_is_nonwritable_in_current_image 00000001800440fc     LIBCMT:utility.obj
 0002:0001211c       $unwind$__scrt_is_nonwritable_in_current_image$filt$0 000000018004411c     LIBCMT:utility.obj
 0002:00012124       $unwind$__scrt_initialize_onexit_tables 0000000180044124     LIBCMT:utility.obj
 0002:00012130       $unwind$?dllmain_crt_process_attach@@YAHQEAUHINSTANCE__@@QEAX@Z 0000000180044130     LIBCMT:dll_dllmain.obj
 0002:0001215c       $unwind$?dllmain_crt_process_detach@@YAH_N@Z 000000018004415c     LIBCMT:dll_dllmain.obj
 0002:00012184       $unwind$?dllmain_dispatch@@YAHQEAUHINSTANCE__@@KQEAX@Z 0000000180044184     LIBCMT:dll_dllmain.obj
 0002:000121ac       $unwind$?filt$0@?0??dllmain_dispatch@@YAHQEAUHINSTANCE__@@KQEAX@Z@4HA 00000001800441ac     LIBCMT:dll_dllmain.obj
 0002:000121b4       $unwind$__report_securityfailure 00000001800441b4     LIBCMT:gs_report.obj
 0002:000121bc       $unwind$_putwch_nolock     00000001800441bc     libucrt:putwch.obj
 0002:000121bc       $unwind$__report_gsfailure 00000001800441bc     LIBCMT:gs_report.obj
 0002:000121c4       $unwind$capture_current_context 00000001800441c4     LIBCMT:gs_report.obj
 0002:000121d0       $unwind$capture_previous_context 00000001800441d0     LIBCMT:gs_report.obj
 0002:000121dc       $unwind$__isa_available_init 00000001800441dc     LIBCMT:_cpu_disp_.obj
 0002:000121ec       $unwind$__scrt_fastfail    00000001800441ec     LIBCMT:utility_desktop.obj
 0002:000121fc       $unwind$__security_init_cookie 00000001800441fc     LIBCMT:gs_support.obj
 0002:00012208       $xdatasym                  0000000180044208     LIBCMT:_guard_dispatch_.obj
 0002:00012210       $xdatasym                  0000000180044210     libvcruntime:memcpy.obj
 0002:00012214       $unwind$_CxxThrowException 0000000180044214     libvcruntime:throw.obj
 0002:00012228       $xdatasym                  0000000180044228     libvcruntime:memset.obj
 0002:00012230       $xdatasym                  0000000180044230     libvcruntime:_jmpuwind_.obj
 0002:00012244       $unwind$__acrt_call_reportfault 0000000180044244     libucrt:invalid_parameter.obj
 0002:00012264       $unwind$_invalid_parameter 0000000180044264     libucrt:invalid_parameter.obj
 0002:0001227c       $unwind$__stdio_common_vfwprintf 000000018004427c     libucrt:output.obj
 0002:00012284       $unwind$__stdio_common_vsprintf 0000000180044284     libucrt:output.obj
 0002:00012284       $unwind$__stdio_common_vswprintf 0000000180044284     libucrt:output.obj
 0002:000122a8       $unwind$?write_string@?$stream_output_adapter@_W@__crt_stdio_output@@QEBAXQEB_WHQEAH1@Z 00000001800442a8     libucrt:output.obj
 0002:000122c0       $unwind$?process@?$output_processor@_WV?$stream_output_adapter@_W@__crt_stdio_output@@V?$standard_base@_WV?$stream_output_adapter@_W@__crt_stdio_output@@@2@@__crt_stdio_output@@QEAAHXZ 00000001800442c0     libucrt:output.obj
 0002:000122d8       $unwind$?state_case_type@?$output_processor@_WV?$stream_output_adapter@_W@__crt_stdio_output@@V?$standard_base@_WV?$stream_output_adapter@_W@__crt_stdio_output@@@2@@__crt_stdio_output@@AEAA_NXZ 00000001800442d8     libucrt:output.obj
 0002:000122d8       $unwind$?state_case_type@?$output_processor@_WV?$string_output_adapter@_W@__crt_stdio_output@@V?$standard_base@_WV?$string_output_adapter@_W@__crt_stdio_output@@@2@@__crt_stdio_output@@AEAA_NXZ 00000001800442d8     libucrt:output.obj
 0002:000122fc       $unwind$?type_case_a@?$output_processor@_WV?$string_output_adapter@_W@__crt_stdio_output@@V?$standard_base@_WV?$string_output_adapter@_W@__crt_stdio_output@@@2@@__crt_stdio_output@@AEAA_NXZ 00000001800442fc     libucrt:output.obj
 0002:000122fc       $unwind$?type_case_a@?$output_processor@_WV?$stream_output_adapter@_W@__crt_stdio_output@@V?$standard_base@_WV?$stream_output_adapter@_W@__crt_stdio_output@@@2@@__crt_stdio_output@@AEAA_NXZ 00000001800442fc     libucrt:output.obj
 0002:0001230c       $unwind$?write_stored_string_tchar@?$output_processor@_WV?$stream_output_adapter@_W@__crt_stdio_output@@V?$standard_base@_WV?$stream_output_adapter@_W@__crt_stdio_output@@@2@@__crt_stdio_output@@AEAA_N_W@Z 000000018004430c     libucrt:output.obj
 0002:00012320       $unwind$??R<lambda_dd75445284c072d0bd3768540cc698fa>@@QEBAHXZ 0000000180044320     libucrt:output.obj
 0002:0001233c       $unwind$?process@?$output_processor@DV?$string_output_adapter@D@__crt_stdio_output@@V?$standard_base@DV?$string_output_adapter@D@__crt_stdio_output@@@2@@__crt_stdio_output@@QEAAHXZ 000000018004433c     libucrt:output.obj
 0002:0001234c       $unwind$?parse_int_from_format_string@?$output_processor@DV?$string_output_adapter@D@__crt_stdio_output@@V?$standard_base@DV?$string_output_adapter@D@__crt_stdio_output@@@2@@__crt_stdio_output@@AEAA_NQEAH@Z 000000018004434c     libucrt:output.obj
 0002:00012360       $unwind$?state_case_type@?$output_processor@DV?$string_output_adapter@D@__crt_stdio_output@@V?$standard_base@DV?$string_output_adapter@D@__crt_stdio_output@@@2@@__crt_stdio_output@@AEAA_NXZ 0000000180044360     libucrt:output.obj
 0002:00012378       $unwind$?type_case_a@?$output_processor@DV?$string_output_adapter@D@__crt_stdio_output@@V?$standard_base@DV?$string_output_adapter@D@__crt_stdio_output@@@2@@__crt_stdio_output@@AEAA_NXZ 0000000180044378     libucrt:output.obj
 0002:00012384       $unwind$?write_stored_string_tchar@?$output_processor@DV?$string_output_adapter@D@__crt_stdio_output@@V?$standard_base@DV?$string_output_adapter@D@__crt_stdio_output@@@2@@__crt_stdio_output@@AEAA_ND@Z 0000000180044384     libucrt:output.obj
 0002:0001239c       $unwind$?parse_int_from_format_string@?$output_processor@_WV?$string_output_adapter@_W@__crt_stdio_output@@V?$standard_base@_WV?$string_output_adapter@_W@__crt_stdio_output@@@2@@__crt_stdio_output@@AEAA_NQEAH@Z 000000018004439c     libucrt:output.obj
 0002:0001239c       $unwind$?parse_int_from_format_string@?$output_processor@_WV?$stream_output_adapter@_W@__crt_stdio_output@@V?$standard_base@_WV?$stream_output_adapter@_W@__crt_stdio_output@@@2@@__crt_stdio_output@@AEAA_NQEAH@Z 000000018004439c     libucrt:output.obj
 0002:000123b0       $unwind$?write_stored_string_tchar@?$output_processor@_WV?$string_output_adapter@_W@__crt_stdio_output@@V?$standard_base@_WV?$string_output_adapter@_W@__crt_stdio_output@@@2@@__crt_stdio_output@@AEAA_N_W@Z 00000001800443b0     libucrt:output.obj
 0002:000123c4       $unwind$??$write_multiple_characters@V?$stream_output_adapter@_W@__crt_stdio_output@@D@__crt_stdio_output@@YAXAEBV?$stream_output_adapter@_W@0@DHQEAH@Z 00000001800443c4     libucrt:output.obj
 0002:000123dc       $unwind$??$write_multiple_characters@V?$string_output_adapter@D@__crt_stdio_output@@D@__crt_stdio_output@@YAXAEBV?$string_output_adapter@D@0@DHQEAH@Z 00000001800443dc     libucrt:output.obj
 0002:000123dc       $unwind$??$type_case_integer_parse_into_buffer@_K@?$output_processor@DV?$string_output_adapter@D@__crt_stdio_output@@V?$standard_base@DV?$string_output_adapter@D@__crt_stdio_output@@@2@@__crt_stdio_output@@AEAAX_KI_N@Z 00000001800443dc     libucrt:output.obj
 0002:000123dc       $unwind$??$type_case_integer_parse_into_buffer@I@?$output_processor@_WV?$stream_output_adapter@_W@__crt_stdio_output@@V?$standard_base@_WV?$stream_output_adapter@_W@__crt_stdio_output@@@2@@__crt_stdio_output@@AEAAXII_N@Z 00000001800443dc     libucrt:output.obj
 0002:000123dc       $unwind$??$type_case_integer_parse_into_buffer@_K@?$output_processor@_WV?$string_output_adapter@_W@__crt_stdio_output@@V?$standard_base@_WV?$string_output_adapter@_W@__crt_stdio_output@@@2@@__crt_stdio_output@@AEAAX_KI_N@Z 00000001800443dc     libucrt:output.obj
 0002:000123dc       $unwind$??$type_case_integer_parse_into_buffer@I@?$output_processor@_WV?$string_output_adapter@_W@__crt_stdio_output@@V?$standard_base@_WV?$string_output_adapter@_W@__crt_stdio_output@@@2@@__crt_stdio_output@@AEAAXII_N@Z 00000001800443dc     libucrt:output.obj
 0002:000123dc       $unwind$??$type_case_integer_parse_into_buffer@_K@?$output_processor@_WV?$stream_output_adapter@_W@__crt_stdio_output@@V?$standard_base@_WV?$stream_output_adapter@_W@__crt_stdio_output@@@2@@__crt_stdio_output@@AEAAX_KI_N@Z 00000001800443dc     libucrt:output.obj
 0002:000123dc       $unwind$??$type_case_integer_parse_into_buffer@I@?$output_processor@DV?$string_output_adapter@D@__crt_stdio_output@@V?$standard_base@DV?$string_output_adapter@D@__crt_stdio_output@@@2@@__crt_stdio_output@@AEAAXII_N@Z 00000001800443dc     libucrt:output.obj
 0002:000123e4       $unwind$??$write_multiple_characters@V?$string_output_adapter@_W@__crt_stdio_output@@D@__crt_stdio_output@@YAXAEBV?$string_output_adapter@_W@0@DHQEAH@Z 00000001800443e4     libucrt:output.obj
 0002:000123f0       $unwind$??$?RV<lambda_7b91131dde12e1c3dfc74ff76b3f2eac>@@AEAV<lambda_dd75445284c072d0bd3768540cc698fa>@@V<lambda_16bc4ecb55b4718497c16bceaea2ceaf>@@@?$__crt_seh_guarded_call@H@@QEAAH$$QEAV<lambda_7b91131dde12e1c3dfc74ff76b3f2eac>@@AEAV<lambda_dd75445284c072d0bd3768540cc698fa>@@$$QEAV<lambda_16bc4ecb55b4718497c16bceaea2ceaf>@@@Z 00000001800443f0     libucrt:output.obj
 0002:00012414       $unwind$swprintf           0000000180044414     libucrt:assert.obj
 0002:00012424       $unwind$??$common_assert_to_stderr@_W@@YAXQEB_W0I@Z 0000000180044424     libucrt:assert.obj
 0002:00012440       $unwind$??$common_assert_to_message_box@_W@@YAXQEB_W0IQEAX@Z 0000000180044440     libucrt:assert.obj
 0002:0001245c       $unwind$??$common_assert_to_message_box_build_string@_W@@YAXQEA_W_KQEB_W2IQEAX@Z 000000018004445c     libucrt:assert.obj
 0002:0001247c       $unwind$_query_new_handler 000000018004447c     libucrt:new_handler.obj
 0002:0001249c       $unwind$?common_exit@@YAXHW4_crt_exit_cleanup_mode@@W4_crt_exit_return_mode@@@Z 000000018004449c     libucrt:exit.obj
 0002:000124dc       $unwind$_configure_narrow_argv 00000001800444dc     libucrt:argv_parsing.obj
 0002:000124f0       $unwind$??$create_environment@D@@YAQEAPEADQEAD@Z 00000001800444f0     libucrt:environment_initialization.obj
 0002:00012508       $unwind$_register_onexit_function 0000000180044508     libucrt:onexit.obj
 0002:00012510       $unwind$_execute_onexit_table 0000000180044510     libucrt:onexit.obj
 0002:00012518       $unwind$??$?RV<lambda_b8c45f8f788dd370798f47cfe8ac3a86>@@AEAV<lambda_4e60a939b0d047cfe11ddc22648dfba9>@@V<lambda_332c3edc96d0294ec56c57d38c1cdfd5>@@@?$__crt_seh_guarded_call@H@@QEAAH$$QEAV<lambda_b8c45f8f788dd370798f47cfe8ac3a86>@@AEAV<lambda_4e60a939b0d047cfe11ddc22648dfba9>@@$$QEAV<lambda_332c3edc96d0294ec56c57d38c1cdfd5>@@@Z 0000000180044518     libucrt:onexit.obj
 0002:0001253c       $unwind$??$?RV<lambda_e24bbb7b643b32fcea6fa61b31d4c984>@@AEAV<lambda_275893d493268fdec8709772e3fcec0e>@@V<lambda_9d71df4d7cf3f480f8d633942495c3b0>@@@?$__crt_seh_guarded_call@H@@QEAAH$$QEAV<lambda_e24bbb7b643b32fcea6fa61b31d4c984>@@AEAV<lambda_275893d493268fdec8709772e3fcec0e>@@$$QEAV<lambda_9d71df4d7cf3f480f8d633942495c3b0>@@@Z 000000018004453c     libucrt:onexit.obj
 0002:0001256c       $unwind$__acrt_initialize_stdio 000000018004456c     libucrt:_file.obj
 0002:0001256c       $unwind$__TypeMatch        000000018004456c     libvcruntime:frame.obj
 0002:0001256c       $unwind$__acrt_MessageBoxW 000000018004456c     libucrt:winapi_thunks.obj
 0002:0001256c       $unwind$?process@?$output_processor@_WV?$string_output_adapter@_W@__crt_stdio_output@@V?$standard_base@_WV?$string_output_adapter@_W@__crt_stdio_output@@@2@@__crt_stdio_output@@QEAAHXZ 000000018004456c     libucrt:output.obj
 0002:0001256c       $unwind$_initterm          000000018004456c     libucrt:initterm.obj
 0002:00012584       $unwind$terminate          0000000180044584     libucrt:terminate.obj
 0002:000125a4       $unwind$?destroy_fls@@YAXPEAX@Z 00000001800445a4     libucrt:per_thread_data.obj
 0002:000125a4       $unwind$__acrt_locale_free_numeric 00000001800445a4     libucrt:initnum.obj
 0002:000125a4       $unwind$__acrt_locale_free_lc_time_if_unreferenced 00000001800445a4     libucrt:locale_refcounting.obj
 0002:000125a4       $unwind$_free_base         00000001800445a4     libucrt:free_base.obj
 0002:000125ac       $unwind$??$parse_integer@KV?$c_string_character_source@D@__crt_strtox@@@__crt_strtox@@YAKQEAU__crt_locale_pointers@@V?$c_string_character_source@D@0@H_N@Z 00000001800445ac     libucrt:atox.obj
 0002:000125c8       $unwind$??$parse_integer@KV?$c_string_character_source@_W@__crt_strtox@@@__crt_strtox@@YAKQEAU__crt_locale_pointers@@V?$c_string_character_source@_W@0@H_N@Z 00000001800445c8     libucrt:atox.obj
 0002:000125e4       $unwind$?construct_ptd_array@@YAXQEAU__acrt_ptd@@@Z 00000001800445e4     libucrt:per_thread_data.obj
 0002:000125ec       $unwind$?destroy_ptd_array@@YAXQEAU__acrt_ptd@@@Z 00000001800445ec     libucrt:per_thread_data.obj
 0002:000125f4       $unwind$??$?RV<lambda_72d1df2b273a38828b1ce30cbf4cdab5>@@AEAV<lambda_876a65b173b8412d3a47c70a915b0cf4>@@V<lambda_41932305e351933ebe8f8be3ed8bb5dc>@@@?$__crt_seh_guarded_call@X@@QEAAX$$QEAV<lambda_72d1df2b273a38828b1ce30cbf4cdab5>@@AEAV<lambda_876a65b173b8412d3a47c70a915b0cf4>@@$$QEAV<lambda_41932305e351933ebe8f8be3ed8bb5dc>@@@Z 00000001800445f4     libucrt:per_thread_data.obj
 0002:00012618       $unwind$??$?RV<lambda_5e887d1dcbef67a5eb4283622ba103bf>@@AEAV<lambda_4466841279450cc726390878d4a41900>@@V<lambda_341c25c0346d94847f1f3c463c57e077>@@@?$__crt_seh_guarded_call@X@@QEAAX$$QEAV<lambda_5e887d1dcbef67a5eb4283622ba103bf>@@AEAV<lambda_4466841279450cc726390878d4a41900>@@$$QEAV<lambda_341c25c0346d94847f1f3c463c57e077>@@@Z 0000000180044618     libucrt:per_thread_data.obj
 0002:0001263c       $unwind$??$?RV<lambda_46352004c1216016012b18bd6f87e700>@@AEAV<lambda_3bd07e1a1191394380780325891bf33f>@@V<lambda_334532d3f185bcaa59b5be82d7d22bff>@@@?$__crt_seh_guarded_call@X@@QEAAX$$QEAV<lambda_46352004c1216016012b18bd6f87e700>@@AEAV<lambda_3bd07e1a1191394380780325891bf33f>@@$$QEAV<lambda_334532d3f185bcaa59b5be82d7d22bff>@@@Z 000000018004463c     libucrt:per_thread_data.obj
 0002:00012660       $unwind$??$?RV<lambda_fb3a7dec4e47f37f22dae91bb15c9095>@@AEAV<lambda_698284760c8add0bfb0756c19673e34b>@@V<lambda_dfb8eca1e75fef3034a8fb18dd509707>@@@?$__crt_seh_guarded_call@X@@QEAAX$$QEAV<lambda_fb3a7dec4e47f37f22dae91bb15c9095>@@AEAV<lambda_698284760c8add0bfb0756c19673e34b>@@$$QEAV<lambda_dfb8eca1e75fef3034a8fb18dd509707>@@@Z 0000000180044660     libucrt:per_thread_data.obj
 0002:00012684       $unwind$_tolower_l         0000000180044684     libucrt:tolower_toupper.obj
 0002:00012694       $unwind$wcstol             0000000180044694     libucrt:strtox.obj
 0002:00012694       $unwind$??$common_xtox_s@K_W@@YAHKQEA_W_KI_N@Z 0000000180044694     libucrt:xtoa.obj
 0002:00012694       $unwind$strtol             0000000180044694     libucrt:strtox.obj
 0002:00012694       $unwind$??0length_error@std@@QEAA@PEBD@Z 0000000180044694     libcpmt:xthrow.obj
 0002:0001269c       $unwind$_wctomb_s_l        000000018004469c     libucrt:wctomb.obj
 0002:000126ac       $unwind$strnlen            00000001800446ac     libucrt:strnlen.obj
 0002:000126ac       $unwind$wcsnlen            00000001800446ac     libucrt:strnlen.obj
 0002:000126b4       $unwind$__acrt_fp_format   00000001800446b4     libucrt:cvt.obj
 0002:000126d0       $unwind$?fp_format_nan_or_infinity@@YAHW4__acrt_fp_class@@_NPEAD_K1@Z 00000001800446d0     libucrt:cvt.obj
 0002:000126e4       $unwind$?fp_format_e_internal@@YAHQEAD_KH_NIQEAU_strflt@@2QEAU__crt_locale_pointers@@@Z 00000001800446e4     libucrt:cvt.obj
 0002:000126fc       $unwind$?fp_format_e@@YAHQEBNQEAD_K12H_NIQEAU__crt_locale_pointers@@@Z 00000001800446fc     libucrt:cvt.obj
 0002:00012710       $unwind$?fp_format_a@@YAHQEBNPEAD_KQEAD2H_NIQEAU__crt_locale_pointers@@@Z 0000000180044710     libucrt:cvt.obj
 0002:0001272c       $unwind$?fp_format_g@@YAHQEBNQEAD_K12H_NIQEAU__crt_locale_pointers@@@Z 000000018004472c     libucrt:cvt.obj
 0002:00012740       $unwind$_fputwc_nolock     0000000180044740     libucrt:fputwc.obj
 0002:0001275c       $unwind$__acrt_stdio_end_temporary_buffering_nolock 000000018004475c     libucrt:_sftbuf.obj
 0002:0001275c       $unwind$__vcrt_uninitialize_winapi_thunks 000000018004475c     libvcruntime:winapi_downlevel.obj
 0002:00012764       $unwind$__acrt_uninitialize_locale 0000000180044764     libucrt:wsetlocale.obj
 0002:00012784       $unwind$__acrt_initialize_lowio 0000000180044784     libucrt:ioinit.obj
 0002:000127a4       $unwind$?initialize_inherited_file_handles_nolock@@YAXXZ 00000001800447a4     libucrt:ioinit.obj
 0002:000127c0       $unwind$__std_exception_copy 00000001800447c0     libvcruntime:std_exception.obj
 0002:000127c0       $unwind$_free_osfhnd       00000001800447c0     libucrt:osfinfo.obj
 0002:000127c0       $unwind$?initialize_stdio_handles_nolock@@YAXXZ 00000001800447c0     libucrt:ioinit.obj
 0002:000127d4       $unwind$_invalid_parameter_noinfo_noreturn 00000001800447d4     libucrt:invalid_parameter.obj
 0002:000127d4       $unwind$_log10_special     00000001800447d4     libucrt:log_special.obj
 0002:000127d4       $unwind$_itow_s            00000001800447d4     libucrt:xtoa.obj
 0002:000127d4       $unwind$wctomb_s           00000001800447d4     libucrt:wctomb.obj
 0002:000127d4       $unwind$_invalid_parameter_noinfo 00000001800447d4     libucrt:invalid_parameter.obj
 0002:000127dc       $unwind$__acrt_show_wide_message_box 00000001800447dc     libucrt:crtmbox.obj
 0002:000127dc       $unwind$__acrt_LCMapStringEx 00000001800447dc     libucrt:winapi_thunks.obj
 0002:000127dc       $unwind$_mbtowc_l          00000001800447dc     libucrt:mbtowc.obj
 0002:000127f4       $unwind$fflush             00000001800447f4     libucrt:fflush.obj
 0002:00012818       $unwind$common_flush_all   0000000180044818     libucrt:fflush.obj
 0002:00012854       $unwind$setvbuf            0000000180044854     libucrt:setvbuf.obj
 0002:0001285c       $unwind$??$?RV<lambda_7a5ef57ff966f610505f1d28a3d40618>@@AEAV<lambda_b721fa326cdb32351d23dfa67958c160>@@V<lambda_5e0fb27672408a07956fe59e48ccb2aa>@@@?$__crt_seh_guarded_call@H@@QEAAH$$QEAV<lambda_7a5ef57ff966f610505f1d28a3d40618>@@AEAV<lambda_b721fa326cdb32351d23dfa67958c160>@@$$QEAV<lambda_5e0fb27672408a07956fe59e48ccb2aa>@@@Z 000000018004485c     libucrt:setvbuf.obj
 0002:00012880       $unwind$__acrt_get_sigabrt_handler 0000000180044880     libucrt:signal.obj
 0002:00012888       $unwind$raise              0000000180044888     libucrt:signal.obj
 0002:000128b4       $unwind$??$?RV<lambda_c36588078e9f5dfd39652860aa6b3aaf>@@AEAV<lambda_ec61778202f4f5fc7e7711acc23c3bca>@@V<lambda_dc9d2797ccde5d239b4a0efae8ebd7db>@@@?$__crt_seh_guarded_call@P6AXH@Z@@QEAAP6AXH@Z$$QEAV<lambda_c36588078e9f5dfd39652860aa6b3aaf>@@AEAV<lambda_ec61778202f4f5fc7e7711acc23c3bca>@@$$QEAV<lambda_dc9d2797ccde5d239b4a0efae8ebd7db>@@@Z 00000001800448b4     libucrt:signal.obj
 0002:000128d8       $unwind$__acrt_initialize_winapi_thunks 00000001800448d8     libucrt:winapi_thunks.obj
 0002:000128e0       $unwind$__acrt_is_interactive 00000001800448e0     libucrt:winapi_thunks.obj
 0002:000128f4       $unwind$?write_string@?$string_output_adapter@_W@__crt_stdio_output@@QEBAXQEB_WHQEAH1@Z 00000001800448f4     libucrt:output.obj
 0002:000128f4       $unwind$?try_get_function@@YAPEAXW4function_id@?A0x679b24ab@@QEBDQEBW4module_id@2@2@Z 00000001800448f4     libvcruntime:winapi_downlevel.obj
 0002:000128f4       $unwind$?try_get_function@@YAPEAXW4function_id@?A0x63058377@@QEBDQEBW4module_id@2@2@Z 00000001800448f4     libucrt:winapi_thunks.obj
 0002:000128f4       $unwind$?IsInExceptionSpec@@YAEPEAUEHExceptionRecord@@PEBU_s_ESTypeList@@@Z 00000001800448f4     libvcruntime:frame.obj
 0002:00012910       $unwind$??$common_expand_argv_wildcards@D@@YAHQEAPEADQEAPEAPEAD@Z 0000000180044910     libucrt:argv_wildcards.obj
 0002:00012928       $unwind$??$copy_and_add_argument_to_buffer@D@@YAHQEBD0_KAEAV?$argument_list@D@?A0xca0879c4@@@Z 0000000180044928     libucrt:argv_wildcards.obj
 0002:00012944       $unwind$??$expand_argument_wildcards@D@@YAHQEAD0AEAV?$argument_list@D@?A0xca0879c4@@@Z 0000000180044944     libucrt:argv_wildcards.obj
 0002:00012964       $unwind$__acrt_update_thread_multibyte_data 0000000180044964     libucrt:mbctype.obj
 0002:00012988       $unwind$_setmbcp_nolock    0000000180044988     libucrt:mbctype.obj
 0002:000129a8       $unwind$?setSBUpLow@@YAXPEAU__crt_multibyte_data@@@Z 00000001800449a8     libucrt:mbctype.obj
 0002:000129c4       $unwind$?setmbcp_internal@@YAHH_N@Z 00000001800449c4     libucrt:mbctype.obj
 0002:000129d4       $unwind$??$?RV<lambda_99476a1ad63dd22509b5d3e65b0ffc95>@@AEAV<lambda_ad1ced32f4ac17aa236e5ef05d6b3b7c>@@V<lambda_f7424dd8d45958661754dc4f2697e9c3>@@@?$__crt_seh_guarded_call@X@@QEAAX$$QEAV<lambda_99476a1ad63dd22509b5d3e65b0ffc95>@@AEAV<lambda_ad1ced32f4ac17aa236e5ef05d6b3b7c>@@$$QEAV<lambda_f7424dd8d45958661754dc4f2697e9c3>@@@Z 00000001800449d4     libucrt:mbctype.obj
 0002:000129f8       $unwind$__dcrt_get_narrow_environment_from_os 00000001800449f8     libucrt:get_environment_from_os.obj
 0002:000129f8       $unwind$?fp_format_f_internal@@YAHQEAD_KHQEAU_strflt@@_NQEAU__crt_locale_pointers@@@Z 00000001800449f8     libucrt:cvt.obj
 0002:00012a10       $unwind$__acrt_is_packaged_app 0000000180044a10     libucrt:winapi_thunks.obj
 0002:00012a10       $unwind$iswctype           0000000180044a10     libucrt:iswctype.obj
 0002:00012a1c       $unwind$_isctype_l         0000000180044a1c     libucrt:isctype.obj
 0002:00012a38       $unwind$__acrt_update_thread_locale_data 0000000180044a38     libucrt:locale_refcounting.obj
 0002:00012a5c       $unwind$__acrt_LCMapStringA 0000000180044a5c     libucrt:lcmapstringa.obj
 0002:00012a6c       $unwind$?__acrt_LCMapStringA_stat@@YAHPEAU__crt_locale_pointers@@PEB_WKPEBDHPEADHHH@Z 0000000180044a6c     libucrt:lcmapstringa.obj
 0002:00012a94       $unwind$__acrt_fltout      0000000180044a94     libucrt:cfout.obj
 0002:00012ab4       $unwind$?divide@__crt_strtox@@YA_KAEAUbig_integer@1@AEBU21@@Z 0000000180044ab4     libucrt:cfout.obj
 0002:00012ad4       $chain$5$?divide@__crt_strtox@@YA_KAEAUbig_integer@1@AEBU21@@Z 0000000180044ad4     libucrt:cfout.obj
 0002:00012ae8       $chain$6$?divide@__crt_strtox@@YA_KAEAUbig_integer@1@AEBU21@@Z 0000000180044ae8     libucrt:cfout.obj
 0002:00012af8       $unwind$??$write_buffer_nolock@D@@YA_NDV__crt_stdio_stream@@@Z 0000000180044af8     libucrt:_flsbuf.obj
 0002:00012b08       $unwind$??$write_buffer_nolock@_W@@YA_N_WV__crt_stdio_stream@@@Z 0000000180044b08     libucrt:_flsbuf.obj
 0002:00012b18       $unwind$_fcloseall         0000000180044b18     libucrt:closeall.obj
 0002:00012b3c       $unwind$__acrt_locale_free_monetary 0000000180044b3c     libucrt:initmon.obj
 0002:00012b44       $unwind$__acrt_locale_free_time 0000000180044b44     libucrt:inittime.obj
 0002:00012b54       $unwind$__acrt_GetStringTypeA 0000000180044b54     libucrt:getstringtypea.obj
 0002:00012b7c       $unwind$__acrt_lowio_destroy_handle_array 0000000180044b7c     libucrt:osfinfo.obj
 0002:00012b8c       $unwind$__acrt_lowio_ensure_fh_exists 0000000180044b8c     libucrt:osfinfo.obj
 0002:00012bb8       $unwind$_commit            0000000180044bb8     libucrt:commit.obj
 0002:00012bb8       $unwind$_close             0000000180044bb8     libucrt:close.obj
 0002:00012bc0       $unwind$??$?RV<lambda_b521505b218e5242e90febf6bfebc422>@@AEAV<lambda_6978c1fb23f02e42e1d9e99668cc68aa>@@V<lambda_314360699dd331753a4119843814e9a7>@@@?$__crt_seh_guarded_call@H@@QEAAH$$QEAV<lambda_b521505b218e5242e90febf6bfebc422>@@AEAV<lambda_6978c1fb23f02e42e1d9e99668cc68aa>@@$$QEAV<lambda_314360699dd331753a4119843814e9a7>@@@Z 0000000180044bc0     libucrt:commit.obj
 0002:00012be4       $unwind$_write             0000000180044be4     libucrt:write.obj
 0002:00012c14       $unwind$_write_nolock      0000000180044c14     libucrt:write.obj
 0002:00012c2c       $unwind$?write_double_translated_ansi_nolock@@YA?AUwrite_result@?A0x9c548279@@HQEBDI@Z 0000000180044c2c     libucrt:write.obj
 0002:00012c4c       $unwind$?write_text_utf16le_nolock@@YA?AUwrite_result@?A0x9c548279@@HQEBDI@Z 0000000180044c4c     libucrt:write.obj
 0002:00012c4c       $unwind$?write_text_ansi_nolock@@YA?AUwrite_result@?A0x9c548279@@HQEBDI@Z 0000000180044c4c     libucrt:write.obj
 0002:00012c6c       $unwind$?write_text_utf8_nolock@@YA?AUwrite_result@?A0x9c548279@@HQEBDI@Z 0000000180044c6c     libucrt:write.obj
 0002:00012c90       $unwind$?GetTableIndexFromLocaleName@@YAHPEB_W@Z 0000000180044c90     libucrt:lcidtoname_downlevel.obj
 0002:00012ca8       $unwind$qsort              0000000180044ca8     libucrt:qsort.obj
 0002:00012cc0       $chain$4$qsort             0000000180044cc0     libucrt:qsort.obj
 0002:00012ce4       $chain$5$qsort             0000000180044ce4     libucrt:qsort.obj
 0002:00012cf4       $unwind$?shortsort@@YAXPEAD0_KP6AHPEBX2@Z@Z 0000000180044cf4     libucrt:qsort.obj
 0002:00012d04       $chain$2$?shortsort@@YAXPEAD0_KP6AHPEBX2@Z@Z 0000000180044d04     libucrt:qsort.obj
 0002:00012d20       $chain$3$?shortsort@@YAXPEAD0_KP6AHPEBX2@Z@Z 0000000180044d20     libucrt:qsort.obj
 0002:00012d30       $unwind$strpbrk            0000000180044d30     libucrt:strpbrk.obj
 0002:00012d40       $unwind$_mbsdec_l          0000000180044d40     libucrt:mbsdec.obj
 0002:00012d50       $xdatasym                  0000000180044d50     libucrt:log10.obj
 0002:00012d5c       $unwind$??$common_lseek@_J@@YA_JH_JH@Z 0000000180044d5c     libucrt:lseek.obj
 0002:00012d8c       $unwind$fclose             0000000180044d8c     libucrt:fclose.obj
 0002:00012db0       $unwind$common_control87   0000000180044db0     libucrt:ieee.obj
 0002:00012de0       $unwind$_call_matherr      0000000180044de0     libucrt:libm_error.obj
 0002:00012de8       $unwind$_handle_errorf     0000000180044de8     libucrt:libm_error.obj
 0002:00012de8       $unwind$_handle_error      0000000180044de8     libucrt:libm_error.obj
 0002:00012e08       $unwind$__acrt_initialize_fma3 0000000180044e08     libucrt:fma3_available.obj
 0002:00012e10       $unwind$_log_special_common 0000000180044e10     libucrt:log_special.obj
 0002:00012e1c       $unwind$??$?RV<lambda_bfedae4ebbf01fab1bb6dcc6a9e276e0>@@AEAV<lambda_2fe9b910cf3cbf4a0ab98a02ba45b3ec>@@V<lambda_237c231691f317818eb88cc1d5d642d6>@@@?$__crt_seh_guarded_call@H@@QEAAH$$QEAV<lambda_bfedae4ebbf01fab1bb6dcc6a9e276e0>@@AEAV<lambda_2fe9b910cf3cbf4a0ab98a02ba45b3ec>@@$$QEAV<lambda_237c231691f317818eb88cc1d5d642d6>@@@Z 0000000180044e1c     libucrt:close.obj
 0002:00012e40       $xdatasym                  0000000180044e40     libucrt:fpsr.obj
 0002:00012e48       $unwind$_raise_exc_ex      0000000180044e48     libucrt:fpexcept.obj
 0002:00012e5c       $unwind$_ctrlfp            0000000180044e5c     libucrt:fpctrl.obj
 0002:00012e84       $unwind$?DloadMakePermanentImageCommit@@YAXPEAX_K@Z 0000000180044e84     DelayImp:delayhlp.obj
 0002:00012e90       $unwind$?DloadProtectSection@@YAXKPEAK@Z 0000000180044e90     DelayImp:delayhlp.obj
 0002:00012ea0       $unwind$__delayLoadHelper2 0000000180044ea0     DelayImp:delayhlp.obj
 0002:00012eb8       $unwind$_IsNonwritableInCurrentImage 0000000180044eb8     LIBCMT:pesect.obj
 0002:00012edc       $unwind$__GSHandlerCheckCommon 0000000180044edc     LIBCMT:_gshandler_.obj
 0002:00012ee8       $xdatasym                  0000000180044ee8     LIBCMT:_chkstk_.obj
 0002:00012ef0       $unwind$strrchr            0000000180044ef0     libvcruntime:strrchr.obj
 0002:00012ef8       $xdatasym                  0000000180044ef8     libvcruntime:memcmp.obj
 0002:00012efc       $unwind$?_GetEstablisherFrame@@YAPEA_KPEA_KPEAU_xDISPATCHER_CONTEXT@@PEBU_s_FuncInfo@@0@Z 0000000180044efc     libvcruntime:trnsctrl.obj
 0002:00012f14       $unwind$?__FrameUnwindToEmptyState@@YAXPEA_KPEAU_xDISPATCHER_CONTEXT@@PEBU_s_FuncInfo@@@Z 0000000180044f14     libvcruntime:trnsctrl.obj
 0002:00012f28       $unwind$_CallSETranslator  0000000180044f28     libvcruntime:trnsctrl.obj
 0002:00012f4c       $unwind$_CallSETranslator$filt$0 0000000180044f4c     libvcruntime:trnsctrl.obj
 0002:00012f54       $unwind$??R<lambda_4e60a939b0d047cfe11ddc22648dfba9>@@QEBAHXZ 0000000180044f54     libucrt:onexit.obj
 0002:00012f54       $unwind$?_GetRangeOfTrysToCheck@@YAPEBU_s_TryBlockMapEntry@@PEA_KPEBU_s_FuncInfo@@HHPEAI2PEAU_xDISPATCHER_CONTEXT@@@Z 0000000180044f54     libvcruntime:trnsctrl.obj
 0002:00012f54       $unwind$?write_string@?$string_output_adapter@D@__crt_stdio_output@@QEBAXQEBDHQEAH1@Z 0000000180044f54     libucrt:output.obj
 0002:00012f54       $unwind$??$parse_command_line@D@@YAXPEADPEAPEAD0PEA_K2@Z 0000000180044f54     libucrt:argv_parsing.obj
 0002:00012f70       $unwind$_UnwindNestedFrames 0000000180044f70     libvcruntime:trnsctrl.obj
 0002:00012f84       $unwind$?__SehTransFilter@@YAHPEAU_EXCEPTION_POINTERS@@PEAUEHExceptionRecord@@PEA_KPEAU_CONTEXT@@PEAU_xDISPATCHER_CONTEXT@@PEBU_s_FuncInfo@@PEAH@Z 0000000180044f84     libvcruntime:trnsctrl.obj
 0002:00012f98       $unwind$__CxxCallCatchBlock 0000000180044f98     libvcruntime:frame.obj
 0002:00012fd4       $unwind$__CxxCallCatchBlock$fin$1 0000000180044fd4     libvcruntime:frame.obj
 0002:00012fe0       $unwind$__FrameUnwindToState 0000000180044fe0     libvcruntime:frame.obj
 0002:0001301c       $unwind$?FindHandler@@YAXPEAUEHExceptionRecord@@PEA_KPEAU_CONTEXT@@PEAU_xDISPATCHER_CONTEXT@@PEBU_s_FuncInfo@@EH1@Z 000000018004501c     libvcruntime:frame.obj
 0002:0001303c       $unwind$?CatchIt@@YAXPEAUEHExceptionRecord@@PEA_KPEAU_CONTEXT@@PEAU_xDISPATCHER_CONTEXT@@PEBU_s_FuncInfo@@PEBU_s_HandlerType@@PEBU_s_CatchableType@@PEBU_s_TryBlockMapEntry@@H1EE@Z 000000018004503c     libvcruntime:frame.obj
 0002:00013054       $unwind$__BuildCatchObject 0000000180045054     libvcruntime:frame.obj
 0002:00013080       $unwind$?FindHandlerForForeignException@@YAXPEAUEHExceptionRecord@@PEA_KPEAU_CONTEXT@@PEAU_xDISPATCHER_CONTEXT@@PEBU_s_FuncInfo@@HH1@Z 0000000180045080     libvcruntime:frame.obj
 0002:00013098       $unwind$__DestructExceptionObject 0000000180045098     libvcruntime:frame.obj
 0002:000130bc       $unwind$?fin$0@?0???$?RV<lambda_5e887d1dcbef67a5eb4283622ba103bf>@@AEAV<lambda_4466841279450cc726390878d4a41900>@@V<lambda_341c25c0346d94847f1f3c463c57e077>@@@?$__crt_seh_guarded_call@X@@QEAAX$$QEAV<lambda_5e887d1dcbef67a5eb4283622ba103bf>@@AEAV<lambda_4466841279450cc726390878d4a41900>@@$$QEAV<lambda_341c25c0346d94847f1f3c463c57e077>@@@Z@4HA 00000001800450bc     libucrt:per_thread_data.obj
 0002:000130bc       $unwind$?fin$0@?0???$?RV<lambda_72d1df2b273a38828b1ce30cbf4cdab5>@@AEAV<lambda_876a65b173b8412d3a47c70a915b0cf4>@@V<lambda_41932305e351933ebe8f8be3ed8bb5dc>@@@?$__crt_seh_guarded_call@X@@QEAAX$$QEAV<lambda_72d1df2b273a38828b1ce30cbf4cdab5>@@AEAV<lambda_876a65b173b8412d3a47c70a915b0cf4>@@$$QEAV<lambda_41932305e351933ebe8f8be3ed8bb5dc>@@@Z@4HA 00000001800450bc     libucrt:per_thread_data.obj
 0002:000130bc       $unwind$?fin$0@?0???$?RV<lambda_c36588078e9f5dfd39652860aa6b3aaf>@@AEAV<lambda_ec61778202f4f5fc7e7711acc23c3bca>@@V<lambda_dc9d2797ccde5d239b4a0efae8ebd7db>@@@?$__crt_seh_guarded_call@P6AXH@Z@@QEAAP6AXH@Z$$QEAV<lambda_c36588078e9f5dfd39652860aa6b3aaf>@@AEAV<lambda_ec61778202f4f5fc7e7711acc23c3bca>@@$$QEAV<lambda_dc9d2797ccde5d239b4a0efae8ebd7db>@@@Z@4HA 00000001800450bc     libucrt:signal.obj
 0002:000130bc       $unwind$common_control87$filt$0 00000001800450bc     libucrt:ieee.obj
 0002:000130bc       $unwind$common_flush_all$fin$1 00000001800450bc     libucrt:fflush.obj
 0002:000130bc       $unwind$__FrameUnwindToState$fin$1 00000001800450bc     libvcruntime:frame.obj
 0002:000130bc       $unwind$?fin$0@?0???$?RV<lambda_bfedae4ebbf01fab1bb6dcc6a9e276e0>@@AEAV<lambda_2fe9b910cf3cbf4a0ab98a02ba45b3ec>@@V<lambda_237c231691f317818eb88cc1d5d642d6>@@@?$__crt_seh_guarded_call@H@@QEAAH$$QEAV<lambda_bfedae4ebbf01fab1bb6dcc6a9e276e0>@@AEAV<lambda_2fe9b910cf3cbf4a0ab98a02ba45b3ec>@@$$QEAV<lambda_237c231691f317818eb88cc1d5d642d6>@@@Z@4HA 00000001800450bc     libucrt:close.obj
 0002:000130bc       $unwind$?fin$0@?0??dllmain_crt_process_attach@@YAHQEAUHINSTANCE__@@QEAX@Z@4HA 00000001800450bc     LIBCMT:dll_dllmain.obj
 0002:000130bc       $unwind$__FrameUnwindToState$filt$0 00000001800450bc     libvcruntime:frame.obj
 0002:000130bc       $unwind$__acrt_initialize_lowio$fin$0 00000001800450bc     libucrt:ioinit.obj
 0002:000130bc       $unwind$_query_new_handler$fin$0 00000001800450bc     libucrt:new_handler.obj
 0002:000130bc       $unwind$_ctrlfp$filt$0     00000001800450bc     libucrt:fpctrl.obj
 0002:000130bc       $unwind$raise$fin$0        00000001800450bc     libucrt:signal.obj
 0002:000130bc       $unwind$_IsNonwritableInCurrentImage$filt$0 00000001800450bc     LIBCMT:pesect.obj
 0002:000130bc       $unwind$common_flush_all$fin$0 00000001800450bc     libucrt:fflush.obj
 0002:000130bc       $unwind$?fin$0@?0???$?RV<lambda_b8c45f8f788dd370798f47cfe8ac3a86>@@AEAV<lambda_4e60a939b0d047cfe11ddc22648dfba9>@@V<lambda_332c3edc96d0294ec56c57d38c1cdfd5>@@@?$__crt_seh_guarded_call@H@@QEAAH$$QEAV<lambda_b8c45f8f788dd370798f47cfe8ac3a86>@@AEAV<lambda_4e60a939b0d047cfe11ddc22648dfba9>@@$$QEAV<lambda_332c3edc96d0294ec56c57d38c1cdfd5>@@@Z@4HA 00000001800450bc     libucrt:onexit.obj
 0002:000130bc       $unwind$__CxxCallCatchBlock$filt$0 00000001800450bc     libvcruntime:frame.obj
 0002:000130bc       $unwind$_fcloseall$fin$0   00000001800450bc     libucrt:closeall.obj
 0002:000130bc       $unwind$?fin$0@?0???$?RV<lambda_99476a1ad63dd22509b5d3e65b0ffc95>@@AEAV<lambda_ad1ced32f4ac17aa236e5ef05d6b3b7c>@@V<lambda_f7424dd8d45958661754dc4f2697e9c3>@@@?$__crt_seh_guarded_call@X@@QEAAX$$QEAV<lambda_99476a1ad63dd22509b5d3e65b0ffc95>@@AEAV<lambda_ad1ced32f4ac17aa236e5ef05d6b3b7c>@@$$QEAV<lambda_f7424dd8d45958661754dc4f2697e9c3>@@@Z@4HA 00000001800450bc     libucrt:mbctype.obj
 0002:000130bc       $unwind$__acrt_uninitialize_locale$fin$0 00000001800450bc     libucrt:wsetlocale.obj
 0002:000130bc       $unwind$?fin$0@?0???$common_lseek@_J@@YA_JH_JH@Z@4HA 00000001800450bc     libucrt:lseek.obj
 0002:000130bc       $unwind$fflush$fin$0       00000001800450bc     libucrt:fflush.obj
 0002:000130bc       $unwind$fclose$fin$0       00000001800450bc     libucrt:fclose.obj
 0002:000130bc       $unwind$?fin$0@?0???$?RV<lambda_b521505b218e5242e90febf6bfebc422>@@AEAV<lambda_6978c1fb23f02e42e1d9e99668cc68aa>@@V<lambda_314360699dd331753a4119843814e9a7>@@@?$__crt_seh_guarded_call@H@@QEAAH$$QEAV<lambda_b521505b218e5242e90febf6bfebc422>@@AEAV<lambda_6978c1fb23f02e42e1d9e99668cc68aa>@@$$QEAV<lambda_314360699dd331753a4119843814e9a7>@@@Z@4HA 00000001800450bc     libucrt:commit.obj
 0002:000130bc       $unwind$_write$fin$0       00000001800450bc     libucrt:write.obj
 0002:000130bc       $unwind$__acrt_update_thread_multibyte_data$fin$0 00000001800450bc     libucrt:mbctype.obj
 0002:000130bc       $unwind$__acrt_lowio_ensure_fh_exists$fin$0 00000001800450bc     libucrt:osfinfo.obj
 0002:000130bc       $unwind$__acrt_update_thread_locale_data$fin$0 00000001800450bc     libucrt:locale_refcounting.obj
 0002:000130bc       $unwind$?fin$0@?0???$?RV<lambda_e24bbb7b643b32fcea6fa61b31d4c984>@@AEAV<lambda_275893d493268fdec8709772e3fcec0e>@@V<lambda_9d71df4d7cf3f480f8d633942495c3b0>@@@?$__crt_seh_guarded_call@H@@QEAAH$$QEAV<lambda_e24bbb7b643b32fcea6fa61b31d4c984>@@AEAV<lambda_275893d493268fdec8709772e3fcec0e>@@$$QEAV<lambda_9d71df4d7cf3f480f8d633942495c3b0>@@@Z@4HA 00000001800450bc     libucrt:onexit.obj
 0002:000130bc       $unwind$?fin$0@?0???$?RV<lambda_46352004c1216016012b18bd6f87e700>@@AEAV<lambda_3bd07e1a1191394380780325891bf33f>@@V<lambda_334532d3f185bcaa59b5be82d7d22bff>@@@?$__crt_seh_guarded_call@X@@QEAAX$$QEAV<lambda_46352004c1216016012b18bd6f87e700>@@AEAV<lambda_3bd07e1a1191394380780325891bf33f>@@$$QEAV<lambda_334532d3f185bcaa59b5be82d7d22bff>@@@Z@4HA 00000001800450bc     libucrt:per_thread_data.obj
 0002:000130bc       $unwind$?fin$0@?0??dllmain_crt_process_detach@@YAH_N@Z@4HA 00000001800450bc     LIBCMT:dll_dllmain.obj
 0002:000130bc       $unwind$?fin$1@?0??common_exit@@YAXHW4_crt_exit_cleanup_mode@@W4_crt_exit_return_mode@@@Z@4HA 00000001800450bc     libucrt:exit.obj
 0002:000130bc       $unwind$?filt$0@?0??common_exit@@YAXHW4_crt_exit_cleanup_mode@@W4_crt_exit_return_mode@@@Z@4HA 00000001800450bc     libucrt:exit.obj
 0002:000130bc       $unwind$?fin$0@?0???$?RV<lambda_7b91131dde12e1c3dfc74ff76b3f2eac>@@AEAV<lambda_dd75445284c072d0bd3768540cc698fa>@@V<lambda_16bc4ecb55b4718497c16bceaea2ceaf>@@@?$__crt_seh_guarded_call@H@@QEAAH$$QEAV<lambda_7b91131dde12e1c3dfc74ff76b3f2eac>@@AEAV<lambda_dd75445284c072d0bd3768540cc698fa>@@$$QEAV<lambda_16bc4ecb55b4718497c16bceaea2ceaf>@@@Z@4HA 00000001800450bc     libucrt:output.obj
 0002:000130bc       $unwind$?fin$0@?0???$?RV<lambda_7a5ef57ff966f610505f1d28a3d40618>@@AEAV<lambda_b721fa326cdb32351d23dfa67958c160>@@V<lambda_5e0fb27672408a07956fe59e48ccb2aa>@@@?$__crt_seh_guarded_call@H@@QEAAH$$QEAV<lambda_7a5ef57ff966f610505f1d28a3d40618>@@AEAV<lambda_b721fa326cdb32351d23dfa67958c160>@@$$QEAV<lambda_5e0fb27672408a07956fe59e48ccb2aa>@@@Z@4HA 00000001800450bc     libucrt:setvbuf.obj
 0002:000130bc       $unwind$__DestructExceptionObject$filt$0 00000001800450bc     libvcruntime:frame.obj
 0002:000130bc       $unwind$?fin$0@?0???$?RV<lambda_fb3a7dec4e47f37f22dae91bb15c9095>@@AEAV<lambda_698284760c8add0bfb0756c19673e34b>@@V<lambda_dfb8eca1e75fef3034a8fb18dd509707>@@@?$__crt_seh_guarded_call@X@@QEAAX$$QEAV<lambda_fb3a7dec4e47f37f22dae91bb15c9095>@@AEAV<lambda_698284760c8add0bfb0756c19673e34b>@@$$QEAV<lambda_dfb8eca1e75fef3034a8fb18dd509707>@@@Z@4HA 00000001800450bc     libucrt:per_thread_data.obj
 0002:000130c4       $unwind$__InternalCxxFrameHandler 00000001800450c4     libvcruntime:frame.obj
 0002:000130c4       $unwind$__C_specific_handler 00000001800450c4     libvcruntime:_chandler_.obj
 0002:000130e0       $unwind$__BuildCatchObjectHelper 00000001800450e0     libvcruntime:frame.obj
 0002:00013120       $xdatasym                  0000000180045120     libvcruntime:handlers.obj
 0002:00013128       $unwind$sqrtf              0000000180045128     libucrt:sqrtf.obj
 0002:000144f0       .edata                     00000001800464f0     libRVO.exp
 0002:00014518       rgpv                       0000000180046518     libRVO.exp
 0002:0001451c       rgszName                   000000018004651c     libRVO.exp
 0002:00014520       rgwOrd                     0000000180046520     libRVO.exp
 0002:00014522       szName                     0000000180046522     libRVO.exp
 0002:0001452e       $N00001                    000000018004652e     libRVO.exp
 0002:000147ec       .idata$6                   00000001800467ec     kernel32:KERNEL32.dll
 0003:00000030       ?__vcrt_flsindex@@3KA      0000000180047030     libvcruntime:per_thread_data.obj
 0003:00000044       __acrt_flsindex            0000000180047044     libucrt:per_thread_data.obj
 0003:00000048       errno_no_memory            0000000180047048     libucrt:errno.obj
 0003:0000004c       doserrno_no_memory         000000018004704c     libucrt:errno.obj
 0003:00000540       __rgctypeflag              0000000180047540     libucrt:mbctype.obj
 0003:00000550       __rgcode_page_info         0000000180047550     libucrt:mbctype.obj
 0003:00000900       ?dazSupported@?1??common_control87@@9@9 0000000180047900     libucrt:ieee.obj
 0003:00000920       ?dazSupported@?1??_ctrlfp@@9@9 0000000180047920     libucrt:fpctrl.obj
 0003:00000930       ?_swigc__p_std__vectorT_RVO__Vector2_t@@3PAUswig_cast_info@@A 0000000180047930     libRVO_wrap.obj
 0003:00000970       ?_swigt__p_std__vectorT_RVO__Line_t@@3Uswig_type_info@@A 0000000180047970     libRVO_wrap.obj
 0003:000009a0       ?_swigc__p_std__vectorT_Line_t@@3PAUswig_cast_info@@A 00000001800479a0     libRVO_wrap.obj
 0003:000009e0       ?_swigt__p_size_type@@3Uswig_type_info@@A 00000001800479e0     libRVO_wrap.obj
 0003:00000a10       ?_swigc__p_value_type@@3PAUswig_cast_info@@A 0000000180047a10     libRVO_wrap.obj
 0003:00000a50       ?_swigt__p_RVO__Vector2@@3Uswig_type_info@@A 0000000180047a50     libRVO_wrap.obj
 0003:00000a80       ?_swigt__p_RVO__Agent@@3Uswig_type_info@@A 0000000180047a80     libRVO_wrap.obj
 0003:00000ab0       ?_swigc__p_std__vectorT_int_t@@3PAUswig_cast_info@@A 0000000180047ab0     libRVO_wrap.obj
 0003:00000af0       ?_swigc__p_RVO__KdTree@@3PAUswig_cast_info@@A 0000000180047af0     libRVO_wrap.obj
 0003:00000b30       ?_swigc__p_std__vectorT_double_t@@3PAUswig_cast_info@@A 0000000180047b30     libRVO_wrap.obj
 0003:00000b70       ?_swigt__p_std__vectorT_Line_t@@3Uswig_type_info@@A 0000000180047b70     libRVO_wrap.obj
 0003:00000ba0       ?_swigt__p_char@@3Uswig_type_info@@A 0000000180047ba0     libRVO_wrap.obj
 0003:00000bd0       ?_swigt__p_RVO__RVOSimulator@@3Uswig_type_info@@A 0000000180047bd0     libRVO_wrap.obj
 0003:00000c00       ?_swigc__p_RVO__RVOSimulator@@3PAUswig_cast_info@@A 0000000180047c00     libRVO_wrap.obj
 0003:00000c40       ?_swigc__p_std__vectorT_RVO__Line_t@@3PAUswig_cast_info@@A 0000000180047c40     libRVO_wrap.obj
 0003:00000c80       ?_swigc__p_RVO__Obstacle@@3PAUswig_cast_info@@A 0000000180047c80     libRVO_wrap.obj
 0003:00000cc0       ?_swigc__p_size_type@@3PAUswig_cast_info@@A 0000000180047cc0     libRVO_wrap.obj
 0003:00000d00       ?_swigc__p_RVO__Agent@@3PAUswig_cast_info@@A 0000000180047d00     libRVO_wrap.obj
 0003:00000d40       ?swig_cast_initial@@3PAPEAUswig_cast_info@@A 0000000180047d40     libRVO_wrap.obj
 0003:00000db0       ?_swigc__p_char@@3PAUswig_cast_info@@A 0000000180047db0     libRVO_wrap.obj
 0003:00000df0       ?_swigc__p_RVO__Line@@3PAUswig_cast_info@@A 0000000180047df0     libRVO_wrap.obj
 0003:00000e30       ?swig_type_initial@@3PAPEAUswig_type_info@@A 0000000180047e30     libRVO_wrap.obj
 0003:00000ea0       ?_swigt__p_std__vectorT_int_t@@3Uswig_type_info@@A 0000000180047ea0     libRVO_wrap.obj
 0003:00000ed0       ?_swigc__p_RVO__Vector2@@3PAUswig_cast_info@@A 0000000180047ed0     libRVO_wrap.obj
 0003:00000f10       _module                    0000000180047f10     libRVO_wrap.obj
 0003:00000f50       ?_swigt__p_value_type@@3Uswig_type_info@@A 0000000180047f50     libRVO_wrap.obj
 0003:00000f80       ?_swigt__p_RVO__KdTree@@3Uswig_type_info@@A 0000000180047f80     libRVO_wrap.obj
 0003:00000fb0       ?_swigt__p_std__vectorT_double_t@@3Uswig_type_info@@A 0000000180047fb0     libRVO_wrap.obj
 0003:00000fe0       ?swig_module@@3Uswig_module_info@@A 0000000180047fe0     libRVO_wrap.obj
 0003:00001010       ?_swigt__p_RVO__Obstacle@@3Uswig_type_info@@A 0000000180048010     libRVO_wrap.obj
 0003:00001040       ?_swigt__p_std__vectorT_RVO__Vector2_t@@3Uswig_type_info@@A 0000000180048040     libRVO_wrap.obj
 0003:00001070       ?_swigt__p_RVO__Line@@3Uswig_type_info@@A 0000000180048070     libRVO_wrap.obj
 0003:000010a0       ?SWIGV8_ErrorHandler@@3VV8ErrorHandler@@A 00000001800480a0     libRVO_wrap.obj
 0003:000013c8       ?module_local_atexit_table@@3U_onexit_table_t@@A 00000001800483c8     LIBCMT:utility.obj
 0003:000013e0       ?module_local_at_quick_exit_table@@3U_onexit_table_t@@A 00000001800483e0     LIBCMT:utility.obj
 0003:000013f8       ?is_initialized_as_dll@@3_NA 00000001800483f8     LIBCMT:utility.obj
 0003:000013fc       ?__proc_attached@@3HA      00000001800483fc     LIBCMT:dll_dllmain.obj
 0003:00001400       GS_ExceptionRecord         0000000180048400     LIBCMT:gs_report.obj
 0003:000014a0       GS_ContextRecord           00000001800484a0     LIBCMT:gs_report.obj
 0003:000019a0       ?__vcrt_startup_thread_ptd@@3U__vcrt_ptd@@A 00000001800489a0     libvcruntime:per_thread_data.obj
 0003:00001a18       __vcrt_lock_table          0000000180048a18     libvcruntime:locks.obj
 0003:00001a40       __vcrt_locks_initialized   0000000180048a40     libvcruntime:locks.obj
 0003:00001a50       ?module_handles@@3PAPEAUHINSTANCE__@@A 0000000180048a50     libvcruntime:winapi_downlevel.obj
 0003:00001a70       ?encoded_function_pointers@@3PAPEAXA 0000000180048a70     libvcruntime:winapi_downlevel.obj
 0003:00001b08       ?heap@@3V_HeapManager@@A   0000000180048b08     libvcruntime:undname.obj
 0003:00001b30       __acrt_invalid_parameter_handler 0000000180048b30     libucrt:invalid_parameter.obj
 0003:00001b38       __acrt_new_handler         0000000180048b38     libucrt:new_handler.obj
 0003:00001b40       c_termination_complete     0000000180048b40     libucrt:exit.obj
 0003:00001b48       thread_local_exit_callback_func 0000000180048b48     libucrt:exit.obj
 0003:00001b50       ?c_exit_complete@?5??common_exit@@YAXHW4_crt_exit_cleanup_mode@@W4_crt_exit_return_mode@@@Z@4_NA 0000000180048b50     libucrt:exit.obj
 0003:00001b60       ?program_name@?5???$common_configure_argv@D@@YAHW4_crt_argv_mode@@@Z@4PADA 0000000180048b60     libucrt:argv_parsing.obj
 0003:00001cd0       enable_percent_n           0000000180048cd0     libucrt:printf_count_output.obj
 0003:00002104       __acrt_app_type            0000000180049104     libucrt:report_runtime_error.obj
 0003:00002108       __acrt_error_mode          0000000180049108     libucrt:set_error_mode.obj
 0003:00002110       ctrlc_action               0000000180049110     libucrt:signal.obj
 0003:00002118       ctrlbreak_action           0000000180049118     libucrt:signal.obj
 0003:00002120       abort_action               0000000180049120     libucrt:signal.obj
 0003:00002128       term_action                0000000180049128     libucrt:signal.obj
 0003:00002130       __acrt_lock_table          0000000180049130     libucrt:locks.obj
 0003:00002338       __acrt_locks_initialized   0000000180049338     libucrt:locks.obj
 0003:00002340       module_handles             0000000180049340     libucrt:winapi_thunks.obj
 0003:000023e0       encoded_function_pointers  00000001800493e0     libucrt:winapi_thunks.obj
 0003:000024e0       ?state_cache@?1??__acrt_is_packaged_app@@9@4JA 00000001800494e0     libucrt:winapi_thunks.obj
 0003:000024fc       fSystemSet                 00000001800494fc     libucrt:mbctype.obj
 0003:00002508       ?initialized@?1??__acrt_initialize_multibyte@@9@4_NA 0000000180049508     libucrt:mbctype.obj
 0003:00002540       user_matherr               0000000180049540     libucrt:matherr.obj
 0003:00002548       __acrt_global_new_mode     0000000180049548     libucrt:new_mode.obj
 0003:000025a0       ?swig_types@@3PAPEAUswig_type_info@@A 00000001800495a0     libRVO_wrap.obj
 0003:00002648       ?RVO_ERROR@RVO@@3_KB       0000000180049648     libRVO_wrap.obj
 0003:000026a0       ?SWIGV8_SWIGTYPE_Proxy_class_templ@@3V?$Persistent@VFunctionTemplate@v8@@V?$NonCopyablePersistentTraits@VFunctionTemplate@v8@@@2@@v8@@A 00000001800496a0     libRVO_wrap.obj
 0003:000026c8       ?RVO_ERROR@RVO@@3_KB       00000001800496c8     Agent.obj
 0003:000026d0       ?RVO_ERROR@RVO@@3_KB       00000001800496d0     KdTree.obj
 0003:000026d8       ?RVO_ERROR@RVO@@3_KB       00000001800496d8     Obstacle.obj
 0003:000026e0       ?RVO_ERROR@RVO@@3_KB       00000001800496e0     RVOSimulator.obj
 0004:00000000       $pdata$sprintf             000000018004a000     libRVO_wrap.obj
 0004:0000000c       $pdata$??_Gout_of_range@std@@UEAAPEAXI@Z 000000018004a00c     libRVO_wrap.obj
 0004:0000000c       $pdata$??_Glogic_error@std@@UEAAPEAXI@Z 000000018004a00c     libRVO_wrap.obj
 0004:0000000c       $pdata$??_Gexception@stdext@@UEAAPEAXI@Z 000000018004a00c     libRVO_wrap.obj
 0004:00000018       $pdata$SWIG_MangledTypeQueryModule 000000018004a018     libRVO_wrap.obj
 0004:00000024       $pdata$?error@V8ErrorHandler@@UEAAXHPEBD@Z 000000018004a024     libRVO_wrap.obj
 0004:00000030       $pdata$??_GV8ErrorHandler@@UEAAPEAXI@Z 000000018004a030     libRVO_wrap.obj
 0004:0000003c       $pdata$?error@OverloadErrorHandler@@UEAAXHPEBD@Z 000000018004a03c     libRVO_wrap.obj
 0004:00000048       $pdata$??0SWIGV8_Proxy@@QEAA@XZ 000000018004a048     libRVO_wrap.obj
 0004:00000054       $pdata$?SWIG_V8_ConvertInstancePtr@@YAHV?$Local@VObject@v8@@@v8@@PEAPEAXPEAUswig_type_info@@H@Z 000000018004a054     libRVO_wrap.obj
 0004:00000060       $pdata$?SWIGV8_Proxy_DefaultDtor@@YAXAEBV?$WeakCallbackData@VObject@v8@@VSWIGV8_Proxy@@@v8@@@Z 000000018004a060     libRVO_wrap.obj
 0004:0000006c       $pdata$?SWIGV8_SetPrivateData@@YAXV?$Local@VObject@v8@@@v8@@PEAXPEAUswig_type_info@@H@Z 000000018004a06c     libRVO_wrap.obj
 0004:00000078       $pdata$?SWIG_V8_ConvertPtr@@YAHV?$Local@VValue@v8@@@v8@@PEAPEAXPEAUswig_type_info@@H@Z 000000018004a078     libRVO_wrap.obj
 0004:00000084       $pdata$?SWIG_V8_NewPointerObj@@YA?AV?$Local@VValue@v8@@@v8@@PEAXPEAUswig_type_info@@H@Z 000000018004a084     libRVO_wrap.obj
 0004:00000090       $pdata$?_SWIGV8_wrap_equals@@YAXAEBV?$FunctionCallbackInfo@VValue@v8@@@v8@@@Z 000000018004a090     libRVO_wrap.obj
 0004:0000009c       $pdata$?_wrap_getCPtr@@YAXAEBV?$FunctionCallbackInfo@VValue@v8@@@v8@@@Z 000000018004a09c     libRVO_wrap.obj
 0004:000000a8       $pdata$0$?_wrap_getCPtr@@YAXAEBV?$FunctionCallbackInfo@VValue@v8@@@v8@@@Z 000000018004a0a8     libRVO_wrap.obj
 0004:000000b4       $pdata$1$?_wrap_getCPtr@@YAXAEBV?$FunctionCallbackInfo@VValue@v8@@@v8@@@Z 000000018004a0b4     libRVO_wrap.obj
 0004:000000c0       $pdata$?SWIGV8_CreateClassTemplate@@YA?AV?$Local@VFunctionTemplate@v8@@@v8@@PEBD@Z 000000018004a0c0     libRVO_wrap.obj
 0004:000000cc       $pdata$?SWIGV8_AddStaticFunction@@YAXV?$Local@VObject@v8@@@v8@@PEBDAEBQ6AXAEBV?$FunctionCallbackInfo@VValue@v8@@@2@@Z@Z 000000018004a0cc     libRVO_wrap.obj
 0004:000000d8       $pdata$?JS_veto_set_variable@@YAXV?$Local@VString@v8@@@v8@@V?$Local@VValue@v8@@@2@AEBV?$PropertyCallbackInfo@X@2@@Z 000000018004a0d8     libRVO_wrap.obj
 0004:000000e4       $pdata$?distSqPointLineSegment@RVO@@YAMAEBVVector2@1@00@Z 000000018004a0e4     libRVO_wrap.obj
 0004:000000f0       $pdata$?SWIG_AsVal_float@@YAHV?$Local@VValue@v8@@@v8@@PEAM@Z 000000018004a0f0     libRVO_wrap.obj
 0004:000000fc       $pdata$?SWIG_AsVal_size_t@@YAHV?$Local@VValue@v8@@@v8@@PEA_K@Z 000000018004a0fc     libRVO_wrap.obj
 0004:00000108       $pdata$?_wrap_new_Vector2__SWIG_0@@YAXAEBV?$FunctionCallbackInfo@VValue@v8@@@v8@@AEAVV8ErrorHandler@@@Z 000000018004a108     libRVO_wrap.obj
 0004:00000114       $pdata$?_wrap_new_Vector2__SWIG_1@@YAXAEBV?$FunctionCallbackInfo@VValue@v8@@@v8@@AEAVV8ErrorHandler@@@Z 000000018004a114     libRVO_wrap.obj
 0004:00000120       $pdata$?_wrap_new_Vector2@@YAXAEBV?$FunctionCallbackInfo@VValue@v8@@@v8@@@Z 000000018004a120     libRVO_wrap.obj
 0004:0000012c       $pdata$??_GOverloadErrorHandler@@UEAAPEAXI@Z 000000018004a12c     libRVO_wrap.obj
 0004:00000138       $pdata$?_wrap_Vector2_x@@YAXAEBV?$FunctionCallbackInfo@VValue@v8@@@v8@@@Z 000000018004a138     libRVO_wrap.obj
 0004:00000144       $pdata$0$?_wrap_Vector2_x@@YAXAEBV?$FunctionCallbackInfo@VValue@v8@@@v8@@@Z 000000018004a144     libRVO_wrap.obj
 0004:00000150       $pdata$1$?_wrap_Vector2_x@@YAXAEBV?$FunctionCallbackInfo@VValue@v8@@@v8@@@Z 000000018004a150     libRVO_wrap.obj
 0004:0000015c       $pdata$?_wrap_Vector2_y@@YAXAEBV?$FunctionCallbackInfo@VValue@v8@@@v8@@@Z 000000018004a15c     libRVO_wrap.obj
 0004:00000168       $pdata$0$?_wrap_Vector2_y@@YAXAEBV?$FunctionCallbackInfo@VValue@v8@@@v8@@@Z 000000018004a168     libRVO_wrap.obj
 0004:00000174       $pdata$1$?_wrap_Vector2_y@@YAXAEBV?$FunctionCallbackInfo@VValue@v8@@@v8@@@Z 000000018004a174     libRVO_wrap.obj
 0004:00000180       $pdata$?_wrap_Vector2_sub__SWIG_0@@YAXAEBV?$FunctionCallbackInfo@VValue@v8@@@v8@@AEAVV8ErrorHandler@@@Z 000000018004a180     libRVO_wrap.obj
 0004:0000018c       $pdata$1$?_wrap_Vector2_sub__SWIG_0@@YAXAEBV?$FunctionCallbackInfo@VValue@v8@@@v8@@AEAVV8ErrorHandler@@@Z 000000018004a18c     libRVO_wrap.obj
 0004:00000198       $pdata$2$?_wrap_Vector2_sub__SWIG_0@@YAXAEBV?$FunctionCallbackInfo@VValue@v8@@@v8@@AEAVV8ErrorHandler@@@Z 000000018004a198     libRVO_wrap.obj
 0004:000001a4       $pdata$?_wrap_Vector2_mul__SWIG_0@@YAXAEBV?$FunctionCallbackInfo@VValue@v8@@@v8@@AEAVV8ErrorHandler@@@Z 000000018004a1a4     libRVO_wrap.obj
 0004:000001b0       $pdata$0$?_wrap_Vector2_mul__SWIG_0@@YAXAEBV?$FunctionCallbackInfo@VValue@v8@@@v8@@AEAVV8ErrorHandler@@@Z 000000018004a1b0     libRVO_wrap.obj
 0004:000001bc       $pdata$1$?_wrap_Vector2_mul__SWIG_0@@YAXAEBV?$FunctionCallbackInfo@VValue@v8@@@v8@@AEAVV8ErrorHandler@@@Z 000000018004a1bc     libRVO_wrap.obj
 0004:000001c8       $pdata$?_wrap_Vector2_mul__SWIG_1@@YAXAEBV?$FunctionCallbackInfo@VValue@v8@@@v8@@AEAVV8ErrorHandler@@@Z 000000018004a1c8     libRVO_wrap.obj
 0004:000001d4       $pdata$0$?_wrap_Vector2_mul__SWIG_1@@YAXAEBV?$FunctionCallbackInfo@VValue@v8@@@v8@@AEAVV8ErrorHandler@@@Z 000000018004a1d4     libRVO_wrap.obj
 0004:000001e0       $pdata$1$?_wrap_Vector2_mul__SWIG_1@@YAXAEBV?$FunctionCallbackInfo@VValue@v8@@@v8@@AEAVV8ErrorHandler@@@Z 000000018004a1e0     libRVO_wrap.obj
 0004:000001ec       $pdata$?_wrap_Vector2__wrap_Vector2_mul@@YAXAEBV?$FunctionCallbackInfo@VValue@v8@@@v8@@@Z 000000018004a1ec     libRVO_wrap.obj
 0004:000001f8       $pdata$?_wrap_Vector2_div@@YAXAEBV?$FunctionCallbackInfo@VValue@v8@@@v8@@@Z 000000018004a1f8     libRVO_wrap.obj
 0004:00000204       $pdata$0$?_wrap_Vector2_div@@YAXAEBV?$FunctionCallbackInfo@VValue@v8@@@v8@@@Z 000000018004a204     libRVO_wrap.obj
 0004:00000210       $pdata$1$?_wrap_Vector2_div@@YAXAEBV?$FunctionCallbackInfo@VValue@v8@@@v8@@@Z 000000018004a210     libRVO_wrap.obj
 0004:0000021c       $pdata$?_wrap_Vector2_add@@YAXAEBV?$FunctionCallbackInfo@VValue@v8@@@v8@@@Z 000000018004a21c     libRVO_wrap.obj
 0004:00000228       $pdata$1$?_wrap_Vector2_add@@YAXAEBV?$FunctionCallbackInfo@VValue@v8@@@v8@@@Z 000000018004a228     libRVO_wrap.obj
 0004:00000234       $pdata$2$?_wrap_Vector2_add@@YAXAEBV?$FunctionCallbackInfo@VValue@v8@@@v8@@@Z 000000018004a234     libRVO_wrap.obj
 0004:00000240       $pdata$?_wrap_Vector2_sub__SWIG_1@@YAXAEBV?$FunctionCallbackInfo@VValue@v8@@@v8@@AEAVV8ErrorHandler@@@Z 000000018004a240     libRVO_wrap.obj
 0004:0000024c       $pdata$1$?_wrap_Vector2_sub__SWIG_1@@YAXAEBV?$FunctionCallbackInfo@VValue@v8@@@v8@@AEAVV8ErrorHandler@@@Z 000000018004a24c     libRVO_wrap.obj
 0004:00000258       $pdata$2$?_wrap_Vector2_sub__SWIG_1@@YAXAEBV?$FunctionCallbackInfo@VValue@v8@@@v8@@AEAVV8ErrorHandler@@@Z 000000018004a258     libRVO_wrap.obj
 0004:00000264       $pdata$?_wrap_Vector2__wrap_Vector2_sub@@YAXAEBV?$FunctionCallbackInfo@VValue@v8@@@v8@@@Z 000000018004a264     libRVO_wrap.obj
 0004:00000270       $pdata$?_wrap_Vector2_equals@@YAXAEBV?$FunctionCallbackInfo@VValue@v8@@@v8@@@Z 000000018004a270     libRVO_wrap.obj
 0004:0000027c       $pdata$?_wrap_Vector2_notEqual@@YAXAEBV?$FunctionCallbackInfo@VValue@v8@@@v8@@@Z 000000018004a27c     libRVO_wrap.obj
 0004:00000288       $pdata$?_wrap_Vector2_multiply@@YAXAEBV?$FunctionCallbackInfo@VValue@v8@@@v8@@@Z 000000018004a288     libRVO_wrap.obj
 0004:00000294       $pdata$?_wrap_Vector2_divide@@YAXAEBV?$FunctionCallbackInfo@VValue@v8@@@v8@@@Z 000000018004a294     libRVO_wrap.obj
 0004:000002a0       $pdata$?_wrap_Vector2_adding@@YAXAEBV?$FunctionCallbackInfo@VValue@v8@@@v8@@@Z 000000018004a2a0     libRVO_wrap.obj
 0004:000002ac       $pdata$?_wrap_Vector2_subtract@@YAXAEBV?$FunctionCallbackInfo@VValue@v8@@@v8@@@Z 000000018004a2ac     libRVO_wrap.obj
 0004:000002b8       $pdata$?_wrap_delete_Vector2@@YAXAEBV?$WeakCallbackData@VObject@v8@@VSWIGV8_Proxy@@@v8@@@Z 000000018004a2b8     libRVO_wrap.obj
 0004:000002c4       $pdata$?_wrap_abs@@YAXAEBV?$FunctionCallbackInfo@VValue@v8@@@v8@@@Z 000000018004a2c4     libRVO_wrap.obj
 0004:000002d0       $pdata$0$?_wrap_abs@@YAXAEBV?$FunctionCallbackInfo@VValue@v8@@@v8@@@Z 000000018004a2d0     libRVO_wrap.obj
 0004:000002dc       $pdata$1$?_wrap_abs@@YAXAEBV?$FunctionCallbackInfo@VValue@v8@@@v8@@@Z 000000018004a2dc     libRVO_wrap.obj
 0004:000002e8       $pdata$?_wrap_absSq@@YAXAEBV?$FunctionCallbackInfo@VValue@v8@@@v8@@@Z 000000018004a2e8     libRVO_wrap.obj
 0004:000002f4       $pdata$0$?_wrap_absSq@@YAXAEBV?$FunctionCallbackInfo@VValue@v8@@@v8@@@Z 000000018004a2f4     libRVO_wrap.obj
 0004:00000300       $pdata$1$?_wrap_absSq@@YAXAEBV?$FunctionCallbackInfo@VValue@v8@@@v8@@@Z 000000018004a300     libRVO_wrap.obj
 0004:0000030c       $pdata$?_wrap_det@@YAXAEBV?$FunctionCallbackInfo@VValue@v8@@@v8@@@Z 000000018004a30c     libRVO_wrap.obj
 0004:00000318       $pdata$0$?_wrap_det@@YAXAEBV?$FunctionCallbackInfo@VValue@v8@@@v8@@@Z 000000018004a318     libRVO_wrap.obj
 0004:00000324       $pdata$1$?_wrap_det@@YAXAEBV?$FunctionCallbackInfo@VValue@v8@@@v8@@@Z 000000018004a324     libRVO_wrap.obj
 0004:00000330       $pdata$?_wrap_normalize@@YAXAEBV?$FunctionCallbackInfo@VValue@v8@@@v8@@@Z 000000018004a330     libRVO_wrap.obj
 0004:0000033c       $pdata$1$?_wrap_normalize@@YAXAEBV?$FunctionCallbackInfo@VValue@v8@@@v8@@@Z 000000018004a33c     libRVO_wrap.obj
 0004:00000348       $pdata$2$?_wrap_normalize@@YAXAEBV?$FunctionCallbackInfo@VValue@v8@@@v8@@@Z 000000018004a348     libRVO_wrap.obj
 0004:00000354       $pdata$?_wrap_RVO_EPSILON_get@@YAXV?$Local@VString@v8@@@v8@@AEBV?$PropertyCallbackInfo@VValue@v8@@@2@@Z 000000018004a354     libRVO_wrap.obj
 0004:00000360       $pdata$?_wrap_distSqPointLineSegment@@YAXAEBV?$FunctionCallbackInfo@VValue@v8@@@v8@@@Z 000000018004a360     libRVO_wrap.obj
 0004:0000036c       $pdata$0$?_wrap_distSqPointLineSegment@@YAXAEBV?$FunctionCallbackInfo@VValue@v8@@@v8@@@Z 000000018004a36c     libRVO_wrap.obj
 0004:00000378       $pdata$1$?_wrap_distSqPointLineSegment@@YAXAEBV?$FunctionCallbackInfo@VValue@v8@@@v8@@@Z 000000018004a378     libRVO_wrap.obj
 0004:00000384       $pdata$?_wrap_leftOf@@YAXAEBV?$FunctionCallbackInfo@VValue@v8@@@v8@@@Z 000000018004a384     libRVO_wrap.obj
 0004:00000390       $pdata$0$?_wrap_leftOf@@YAXAEBV?$FunctionCallbackInfo@VValue@v8@@@v8@@@Z 000000018004a390     libRVO_wrap.obj
 0004:0000039c       $pdata$1$?_wrap_leftOf@@YAXAEBV?$FunctionCallbackInfo@VValue@v8@@@v8@@@Z 000000018004a39c     libRVO_wrap.obj
 0004:000003a8       $pdata$?_wrap_sqr@@YAXAEBV?$FunctionCallbackInfo@VValue@v8@@@v8@@@Z 000000018004a3a8     libRVO_wrap.obj
 0004:000003b4       $pdata$?_wrap_delete_Agent@@YAXAEBV?$WeakCallbackData@VObject@v8@@VSWIGV8_Proxy@@@v8@@@Z 000000018004a3b4     libRVO_wrap.obj
 0004:000003c0       $pdata$0$?_wrap_delete_Agent@@YAXAEBV?$WeakCallbackData@VObject@v8@@VSWIGV8_Proxy@@@v8@@@Z 000000018004a3c0     libRVO_wrap.obj
 0004:000003cc       $pdata$1$?_wrap_delete_Agent@@YAXAEBV?$WeakCallbackData@VObject@v8@@VSWIGV8_Proxy@@@v8@@@Z 000000018004a3cc     libRVO_wrap.obj
 0004:000003d8       $pdata$?_wrap_new_veto_Agent@@YAXAEBV?$FunctionCallbackInfo@VValue@v8@@@v8@@@Z 000000018004a3d8     libRVO_wrap.obj
 0004:000003e4       $pdata$?_wrap_linearProgram1@@YAXAEBV?$FunctionCallbackInfo@VValue@v8@@@v8@@@Z 000000018004a3e4     libRVO_wrap.obj
 0004:000003f0       $pdata$?_wrap_linearProgram2@@YAXAEBV?$FunctionCallbackInfo@VValue@v8@@@v8@@@Z 000000018004a3f0     libRVO_wrap.obj
 0004:000003fc       $pdata$?_wrap_linearProgram3@@YAXAEBV?$FunctionCallbackInfo@VValue@v8@@@v8@@@Z 000000018004a3fc     libRVO_wrap.obj
 0004:00000408       $pdata$?_wrap_delete_Obstacle@@YAXAEBV?$WeakCallbackData@VObject@v8@@VSWIGV8_Proxy@@@v8@@@Z 000000018004a408     libRVO_wrap.obj
 0004:00000414       $pdata$?_wrap_new_veto_Obstacle@@YAXAEBV?$FunctionCallbackInfo@VValue@v8@@@v8@@@Z 000000018004a414     libRVO_wrap.obj
 0004:00000420       $pdata$?_wrap_new_veto_KdTree@@YAXAEBV?$FunctionCallbackInfo@VValue@v8@@@v8@@@Z 000000018004a420     libRVO_wrap.obj
 0004:0000042c       $pdata$?_wrap_RVO_ERROR_get@@YAXV?$Local@VString@v8@@@v8@@AEBV?$PropertyCallbackInfo@VValue@v8@@@2@@Z 000000018004a42c     libRVO_wrap.obj
 0004:00000438       $pdata$?_wrap_Line_point_set@@YAXV?$Local@VString@v8@@@v8@@V?$Local@VValue@v8@@@2@AEBV?$PropertyCallbackInfo@X@2@@Z 000000018004a438     libRVO_wrap.obj
 0004:00000444       $pdata$0$?_wrap_Line_point_set@@YAXV?$Local@VString@v8@@@v8@@V?$Local@VValue@v8@@@2@AEBV?$PropertyCallbackInfo@X@2@@Z 000000018004a444     libRVO_wrap.obj
 0004:00000450       $pdata$1$?_wrap_Line_point_set@@YAXV?$Local@VString@v8@@@v8@@V?$Local@VValue@v8@@@2@AEBV?$PropertyCallbackInfo@X@2@@Z 000000018004a450     libRVO_wrap.obj
 0004:0000045c       $pdata$?_wrap_Line_point_get@@YAXV?$Local@VString@v8@@@v8@@AEBV?$PropertyCallbackInfo@VValue@v8@@@2@@Z 000000018004a45c     libRVO_wrap.obj
 0004:00000468       $pdata$?_wrap_Line_direction_set@@YAXV?$Local@VString@v8@@@v8@@V?$Local@VValue@v8@@@2@AEBV?$PropertyCallbackInfo@X@2@@Z 000000018004a468     libRVO_wrap.obj
 0004:00000474       $pdata$0$?_wrap_Line_direction_set@@YAXV?$Local@VString@v8@@@v8@@V?$Local@VValue@v8@@@2@AEBV?$PropertyCallbackInfo@X@2@@Z 000000018004a474     libRVO_wrap.obj
 0004:00000480       $pdata$1$?_wrap_Line_direction_set@@YAXV?$Local@VString@v8@@@v8@@V?$Local@VValue@v8@@@2@AEBV?$PropertyCallbackInfo@X@2@@Z 000000018004a480     libRVO_wrap.obj
 0004:0000048c       $pdata$?_wrap_Line_direction_get@@YAXV?$Local@VString@v8@@@v8@@AEBV?$PropertyCallbackInfo@VValue@v8@@@2@@Z 000000018004a48c     libRVO_wrap.obj
 0004:00000498       $pdata$?_wrap_new_Line@@YAXAEBV?$FunctionCallbackInfo@VValue@v8@@@v8@@@Z 000000018004a498     libRVO_wrap.obj
 0004:000004a4       $pdata$?_wrap_delete_Line@@YAXAEBV?$WeakCallbackData@VObject@v8@@VSWIGV8_Proxy@@@v8@@@Z 000000018004a4a4     libRVO_wrap.obj
 0004:000004b0       $pdata$?_wrap_new_RVOSimulator__SWIG_0@@YAXAEBV?$FunctionCallbackInfo@VValue@v8@@@v8@@AEAVV8ErrorHandler@@@Z 000000018004a4b0     libRVO_wrap.obj
 0004:000004bc       $pdata$0$?_wrap_new_RVOSimulator__SWIG_0@@YAXAEBV?$FunctionCallbackInfo@VValue@v8@@@v8@@AEAVV8ErrorHandler@@@Z 000000018004a4bc     libRVO_wrap.obj
 0004:000004c8       $pdata$1$?_wrap_new_RVOSimulator__SWIG_0@@YAXAEBV?$FunctionCallbackInfo@VValue@v8@@@v8@@AEAVV8ErrorHandler@@@Z 000000018004a4c8     libRVO_wrap.obj
 0004:000004d4       $pdata$?_wrap_new_RVOSimulator__SWIG_1@@YAXAEBV?$FunctionCallbackInfo@VValue@v8@@@v8@@AEAVV8ErrorHandler@@@Z 000000018004a4d4     libRVO_wrap.obj
 0004:000004e0       $pdata$?_wrap_new_RVOSimulator__SWIG_2@@YAXAEBV?$FunctionCallbackInfo@VValue@v8@@@v8@@AEAVV8ErrorHandler@@@Z 000000018004a4e0     libRVO_wrap.obj
 0004:000004ec       $pdata$?_wrap_new_RVOSimulator@@YAXAEBV?$FunctionCallbackInfo@VValue@v8@@@v8@@@Z 000000018004a4ec     libRVO_wrap.obj
 0004:000004f8       $pdata$?_wrap_delete_RVOSimulator@@YAXAEBV?$WeakCallbackData@VObject@v8@@VSWIGV8_Proxy@@@v8@@@Z 000000018004a4f8     libRVO_wrap.obj
 0004:00000504       $pdata$0$?_wrap_delete_RVOSimulator@@YAXAEBV?$WeakCallbackData@VObject@v8@@VSWIGV8_Proxy@@@v8@@@Z 000000018004a504     libRVO_wrap.obj
 0004:00000510       $pdata$1$?_wrap_delete_RVOSimulator@@YAXAEBV?$WeakCallbackData@VObject@v8@@VSWIGV8_Proxy@@@v8@@@Z 000000018004a510     libRVO_wrap.obj
 0004:0000051c       $pdata$?_wrap_RVOSimulator_addAgent__SWIG_0@@YAXAEBV?$FunctionCallbackInfo@VValue@v8@@@v8@@AEAVV8ErrorHandler@@@Z 000000018004a51c     libRVO_wrap.obj
 0004:00000528       $pdata$?_wrap_RVOSimulator_addAgent__SWIG_1@@YAXAEBV?$FunctionCallbackInfo@VValue@v8@@@v8@@AEAVV8ErrorHandler@@@Z 000000018004a528     libRVO_wrap.obj
 0004:00000534       $pdata$?_wrap_RVOSimulator_addAgent__SWIG_2@@YAXAEBV?$FunctionCallbackInfo@VValue@v8@@@v8@@AEAVV8ErrorHandler@@@Z 000000018004a534     libRVO_wrap.obj
 0004:00000540       $pdata$?_wrap_RVOSimulator__wrap_RVOSimulator_addAgent@@YAXAEBV?$FunctionCallbackInfo@VValue@v8@@@v8@@@Z 000000018004a540     libRVO_wrap.obj
 0004:0000054c       $pdata$?_wrap_RVOSimulator_addObstacle@@YAXAEBV?$FunctionCallbackInfo@VValue@v8@@@v8@@@Z 000000018004a54c     libRVO_wrap.obj
 0004:00000558       $pdata$?_wrap_RVOSimulator_doStep@@YAXAEBV?$FunctionCallbackInfo@VValue@v8@@@v8@@@Z 000000018004a558     libRVO_wrap.obj
 0004:00000564       $pdata$?_wrap_RVOSimulator_getAgentAgentNeighbor@@YAXAEBV?$FunctionCallbackInfo@VValue@v8@@@v8@@@Z 000000018004a564     libRVO_wrap.obj
 0004:00000570       $pdata$?_wrap_RVOSimulator_getAgentMaxNeighbors@@YAXAEBV?$FunctionCallbackInfo@VValue@v8@@@v8@@@Z 000000018004a570     libRVO_wrap.obj
 0004:0000057c       $pdata$?_wrap_RVOSimulator_getAgentMaxSpeed@@YAXAEBV?$FunctionCallbackInfo@VValue@v8@@@v8@@@Z 000000018004a57c     libRVO_wrap.obj
 0004:00000588       $pdata$0$?_wrap_RVOSimulator_getAgentMaxSpeed@@YAXAEBV?$FunctionCallbackInfo@VValue@v8@@@v8@@@Z 000000018004a588     libRVO_wrap.obj
 0004:00000594       $pdata$1$?_wrap_RVOSimulator_getAgentMaxSpeed@@YAXAEBV?$FunctionCallbackInfo@VValue@v8@@@v8@@@Z 000000018004a594     libRVO_wrap.obj
 0004:000005a0       $pdata$?_wrap_RVOSimulator_getAgentNeighborDist@@YAXAEBV?$FunctionCallbackInfo@VValue@v8@@@v8@@@Z 000000018004a5a0     libRVO_wrap.obj
 0004:000005ac       $pdata$0$?_wrap_RVOSimulator_getAgentNeighborDist@@YAXAEBV?$FunctionCallbackInfo@VValue@v8@@@v8@@@Z 000000018004a5ac     libRVO_wrap.obj
 0004:000005b8       $pdata$1$?_wrap_RVOSimulator_getAgentNeighborDist@@YAXAEBV?$FunctionCallbackInfo@VValue@v8@@@v8@@@Z 000000018004a5b8     libRVO_wrap.obj
 0004:000005c4       $pdata$?_wrap_RVOSimulator_getAgentNumAgentNeighbors@@YAXAEBV?$FunctionCallbackInfo@VValue@v8@@@v8@@@Z 000000018004a5c4     libRVO_wrap.obj
 0004:000005d0       $pdata$?_wrap_RVOSimulator_getAgentNumObstacleNeighbors@@YAXAEBV?$FunctionCallbackInfo@VValue@v8@@@v8@@@Z 000000018004a5d0     libRVO_wrap.obj
 0004:000005dc       $pdata$?_wrap_RVOSimulator_getAgentNumORCALines@@YAXAEBV?$FunctionCallbackInfo@VValue@v8@@@v8@@@Z 000000018004a5dc     libRVO_wrap.obj
 0004:000005e8       $pdata$?_wrap_RVOSimulator_getAgentObstacleNeighbor@@YAXAEBV?$FunctionCallbackInfo@VValue@v8@@@v8@@@Z 000000018004a5e8     libRVO_wrap.obj
 0004:000005f4       $pdata$?_wrap_RVOSimulator_getAgentORCALine@@YAXAEBV?$FunctionCallbackInfo@VValue@v8@@@v8@@@Z 000000018004a5f4     libRVO_wrap.obj
 0004:00000600       $pdata$?_wrap_RVOSimulator_getAgentPosition@@YAXAEBV?$FunctionCallbackInfo@VValue@v8@@@v8@@@Z 000000018004a600     libRVO_wrap.obj
 0004:0000060c       $pdata$?_wrap_RVOSimulator_getAgentPrefVelocity@@YAXAEBV?$FunctionCallbackInfo@VValue@v8@@@v8@@@Z 000000018004a60c     libRVO_wrap.obj
 0004:00000618       $pdata$?_wrap_RVOSimulator_getAgentRadius@@YAXAEBV?$FunctionCallbackInfo@VValue@v8@@@v8@@@Z 000000018004a618     libRVO_wrap.obj
 0004:00000624       $pdata$0$?_wrap_RVOSimulator_getAgentRadius@@YAXAEBV?$FunctionCallbackInfo@VValue@v8@@@v8@@@Z 000000018004a624     libRVO_wrap.obj
 0004:00000630       $pdata$1$?_wrap_RVOSimulator_getAgentRadius@@YAXAEBV?$FunctionCallbackInfo@VValue@v8@@@v8@@@Z 000000018004a630     libRVO_wrap.obj
 0004:0000063c       $pdata$?_wrap_RVOSimulator_getAgentTimeHorizon@@YAXAEBV?$FunctionCallbackInfo@VValue@v8@@@v8@@@Z 000000018004a63c     libRVO_wrap.obj
 0004:00000648       $pdata$0$?_wrap_RVOSimulator_getAgentTimeHorizon@@YAXAEBV?$FunctionCallbackInfo@VValue@v8@@@v8@@@Z 000000018004a648     libRVO_wrap.obj
 0004:00000654       $pdata$1$?_wrap_RVOSimulator_getAgentTimeHorizon@@YAXAEBV?$FunctionCallbackInfo@VValue@v8@@@v8@@@Z 000000018004a654     libRVO_wrap.obj
 0004:00000660       $pdata$?_wrap_RVOSimulator_getAgentTimeHorizonObst@@YAXAEBV?$FunctionCallbackInfo@VValue@v8@@@v8@@@Z 000000018004a660     libRVO_wrap.obj
 0004:0000066c       $pdata$0$?_wrap_RVOSimulator_getAgentTimeHorizonObst@@YAXAEBV?$FunctionCallbackInfo@VValue@v8@@@v8@@@Z 000000018004a66c     libRVO_wrap.obj
 0004:00000678       $pdata$1$?_wrap_RVOSimulator_getAgentTimeHorizonObst@@YAXAEBV?$FunctionCallbackInfo@VValue@v8@@@v8@@@Z 000000018004a678     libRVO_wrap.obj
 0004:00000684       $pdata$?_wrap_RVOSimulator_getAgentVelocity@@YAXAEBV?$FunctionCallbackInfo@VValue@v8@@@v8@@@Z 000000018004a684     libRVO_wrap.obj
 0004:00000690       $pdata$?_wrap_RVOSimulator_getGlobalTime@@YAXAEBV?$FunctionCallbackInfo@VValue@v8@@@v8@@@Z 000000018004a690     libRVO_wrap.obj
 0004:0000069c       $pdata$0$?_wrap_RVOSimulator_getGlobalTime@@YAXAEBV?$FunctionCallbackInfo@VValue@v8@@@v8@@@Z 000000018004a69c     libRVO_wrap.obj
 0004:000006a8       $pdata$1$?_wrap_RVOSimulator_getGlobalTime@@YAXAEBV?$FunctionCallbackInfo@VValue@v8@@@v8@@@Z 000000018004a6a8     libRVO_wrap.obj
 0004:000006b4       $pdata$?_wrap_RVOSimulator_getNumAgents@@YAXAEBV?$FunctionCallbackInfo@VValue@v8@@@v8@@@Z 000000018004a6b4     libRVO_wrap.obj
 0004:000006c0       $pdata$?_wrap_RVOSimulator_getNumObstacleVertices@@YAXAEBV?$FunctionCallbackInfo@VValue@v8@@@v8@@@Z 000000018004a6c0     libRVO_wrap.obj
 0004:000006cc       $pdata$?_wrap_RVOSimulator_getObstacleVertex@@YAXAEBV?$FunctionCallbackInfo@VValue@v8@@@v8@@@Z 000000018004a6cc     libRVO_wrap.obj
 0004:000006d8       $pdata$?_wrap_RVOSimulator_getNextObstacleVertexNo@@YAXAEBV?$FunctionCallbackInfo@VValue@v8@@@v8@@@Z 000000018004a6d8     libRVO_wrap.obj
 0004:000006e4       $pdata$?_wrap_RVOSimulator_getPrevObstacleVertexNo@@YAXAEBV?$FunctionCallbackInfo@VValue@v8@@@v8@@@Z 000000018004a6e4     libRVO_wrap.obj
 0004:000006f0       $pdata$?_wrap_RVOSimulator_getTimeStep@@YAXAEBV?$FunctionCallbackInfo@VValue@v8@@@v8@@@Z 000000018004a6f0     libRVO_wrap.obj
 0004:000006fc       $pdata$0$?_wrap_RVOSimulator_getTimeStep@@YAXAEBV?$FunctionCallbackInfo@VValue@v8@@@v8@@@Z 000000018004a6fc     libRVO_wrap.obj
 0004:00000708       $pdata$1$?_wrap_RVOSimulator_getTimeStep@@YAXAEBV?$FunctionCallbackInfo@VValue@v8@@@v8@@@Z 000000018004a708     libRVO_wrap.obj
 0004:00000714       $pdata$?_wrap_RVOSimulator_processObstacles@@YAXAEBV?$FunctionCallbackInfo@VValue@v8@@@v8@@@Z 000000018004a714     libRVO_wrap.obj
 0004:00000720       $pdata$?_wrap_RVOSimulator_queryVisibility__SWIG_0@@YAXAEBV?$FunctionCallbackInfo@VValue@v8@@@v8@@AEAVV8ErrorHandler@@@Z 000000018004a720     libRVO_wrap.obj
 0004:0000072c       $pdata$?_wrap_RVOSimulator_queryVisibility__SWIG_1@@YAXAEBV?$FunctionCallbackInfo@VValue@v8@@@v8@@AEAVV8ErrorHandler@@@Z 000000018004a72c     libRVO_wrap.obj
 0004:00000738       $pdata$?_wrap_RVOSimulator__wrap_RVOSimulator_queryVisibility@@YAXAEBV?$FunctionCallbackInfo@VValue@v8@@@v8@@@Z 000000018004a738     libRVO_wrap.obj
 0004:00000744       $pdata$?_wrap_RVOSimulator_setAgentDefaults__SWIG_0@@YAXAEBV?$FunctionCallbackInfo@VValue@v8@@@v8@@AEAVV8ErrorHandler@@@Z 000000018004a744     libRVO_wrap.obj
 0004:00000750       $pdata$?_wrap_RVOSimulator_setAgentDefaults__SWIG_1@@YAXAEBV?$FunctionCallbackInfo@VValue@v8@@@v8@@AEAVV8ErrorHandler@@@Z 000000018004a750     libRVO_wrap.obj
 0004:0000075c       $pdata$?_wrap_RVOSimulator__wrap_RVOSimulator_setAgentDefaults@@YAXAEBV?$FunctionCallbackInfo@VValue@v8@@@v8@@@Z 000000018004a75c     libRVO_wrap.obj
 0004:00000768       $pdata$?_wrap_RVOSimulator_setAgentMaxNeighbors@@YAXAEBV?$FunctionCallbackInfo@VValue@v8@@@v8@@@Z 000000018004a768     libRVO_wrap.obj
 0004:00000774       $pdata$?_wrap_RVOSimulator_setAgentMaxSpeed@@YAXAEBV?$FunctionCallbackInfo@VValue@v8@@@v8@@@Z 000000018004a774     libRVO_wrap.obj
 0004:00000780       $pdata$?_wrap_RVOSimulator_setAgentNeighborDist@@YAXAEBV?$FunctionCallbackInfo@VValue@v8@@@v8@@@Z 000000018004a780     libRVO_wrap.obj
 0004:0000078c       $pdata$?_wrap_RVOSimulator_setAgentPosition@@YAXAEBV?$FunctionCallbackInfo@VValue@v8@@@v8@@@Z 000000018004a78c     libRVO_wrap.obj
 0004:00000798       $pdata$?_wrap_RVOSimulator_setAgentPrefVelocity@@YAXAEBV?$FunctionCallbackInfo@VValue@v8@@@v8@@@Z 000000018004a798     libRVO_wrap.obj
 0004:000007a4       $pdata$?_wrap_RVOSimulator_setAgentRadius@@YAXAEBV?$FunctionCallbackInfo@VValue@v8@@@v8@@@Z 000000018004a7a4     libRVO_wrap.obj
 0004:000007b0       $pdata$?_wrap_RVOSimulator_setAgentTimeHorizon@@YAXAEBV?$FunctionCallbackInfo@VValue@v8@@@v8@@@Z 000000018004a7b0     libRVO_wrap.obj
 0004:000007bc       $pdata$?_wrap_RVOSimulator_setAgentTimeHorizonObst@@YAXAEBV?$FunctionCallbackInfo@VValue@v8@@@v8@@@Z 000000018004a7bc     libRVO_wrap.obj
 0004:000007c8       $pdata$?_wrap_RVOSimulator_setAgentVelocity@@YAXAEBV?$FunctionCallbackInfo@VValue@v8@@@v8@@@Z 000000018004a7c8     libRVO_wrap.obj
 0004:000007d4       $pdata$?_wrap_RVOSimulator_setTimeStep@@YAXAEBV?$FunctionCallbackInfo@VValue@v8@@@v8@@@Z 000000018004a7d4     libRVO_wrap.obj
 0004:000007e0       $pdata$?_wrap_new_vectori__SWIG_0@@YAXAEBV?$FunctionCallbackInfo@VValue@v8@@@v8@@AEAVV8ErrorHandler@@@Z 000000018004a7e0     libRVO_wrap.obj
 0004:000007ec       $pdata$?_wrap_new_vectori__SWIG_1@@YAXAEBV?$FunctionCallbackInfo@VValue@v8@@@v8@@AEAVV8ErrorHandler@@@Z 000000018004a7ec     libRVO_wrap.obj
 0004:000007f8       $pdata$?_wrap_new_vectori@@YAXAEBV?$FunctionCallbackInfo@VValue@v8@@@v8@@@Z 000000018004a7f8     libRVO_wrap.obj
 0004:00000804       $pdata$?_wrap_vectori_size@@YAXAEBV?$FunctionCallbackInfo@VValue@v8@@@v8@@@Z 000000018004a804     libRVO_wrap.obj
 0004:00000810       $pdata$?_wrap_vectori_capacity@@YAXAEBV?$FunctionCallbackInfo@VValue@v8@@@v8@@@Z 000000018004a810     libRVO_wrap.obj
 0004:0000081c       $pdata$?_wrap_vectori_reserve@@YAXAEBV?$FunctionCallbackInfo@VValue@v8@@@v8@@@Z 000000018004a81c     libRVO_wrap.obj
 0004:00000828       $pdata$?_wrap_vectori_isEmpty@@YAXAEBV?$FunctionCallbackInfo@VValue@v8@@@v8@@@Z 000000018004a828     libRVO_wrap.obj
 0004:00000834       $pdata$?_wrap_vectori_clear@@YAXAEBV?$FunctionCallbackInfo@VValue@v8@@@v8@@@Z 000000018004a834     libRVO_wrap.obj
 0004:00000840       $pdata$?_wrap_vectori_add@@YAXAEBV?$FunctionCallbackInfo@VValue@v8@@@v8@@@Z 000000018004a840     libRVO_wrap.obj
 0004:0000084c       $pdata$?_wrap_vectori_get@@YAXAEBV?$FunctionCallbackInfo@VValue@v8@@@v8@@@Z 000000018004a84c     libRVO_wrap.obj
 0004:00000858       $pdata$?_wrap_vectori_set@@YAXAEBV?$FunctionCallbackInfo@VValue@v8@@@v8@@@Z 000000018004a858     libRVO_wrap.obj
 0004:00000864       $pdata$?_wrap_delete_vectori@@YAXAEBV?$WeakCallbackData@VObject@v8@@VSWIGV8_Proxy@@@v8@@@Z 000000018004a864     libRVO_wrap.obj
 0004:00000870       $pdata$0$?_wrap_delete_vectori@@YAXAEBV?$WeakCallbackData@VObject@v8@@VSWIGV8_Proxy@@@v8@@@Z 000000018004a870     libRVO_wrap.obj
 0004:0000087c       $pdata$1$?_wrap_delete_vectori@@YAXAEBV?$WeakCallbackData@VObject@v8@@VSWIGV8_Proxy@@@v8@@@Z 000000018004a87c     libRVO_wrap.obj
 0004:00000888       $pdata$?_wrap_new_vectord__SWIG_0@@YAXAEBV?$FunctionCallbackInfo@VValue@v8@@@v8@@AEAVV8ErrorHandler@@@Z 000000018004a888     libRVO_wrap.obj
 0004:00000894       $pdata$?_wrap_new_vectord__SWIG_1@@YAXAEBV?$FunctionCallbackInfo@VValue@v8@@@v8@@AEAVV8ErrorHandler@@@Z 000000018004a894     libRVO_wrap.obj
 0004:000008a0       $pdata$?_wrap_new_vectord@@YAXAEBV?$FunctionCallbackInfo@VValue@v8@@@v8@@@Z 000000018004a8a0     libRVO_wrap.obj
 0004:000008ac       $pdata$?_wrap_vectord_size@@YAXAEBV?$FunctionCallbackInfo@VValue@v8@@@v8@@@Z 000000018004a8ac     libRVO_wrap.obj
 0004:000008b8       $pdata$?_wrap_vectord_capacity@@YAXAEBV?$FunctionCallbackInfo@VValue@v8@@@v8@@@Z 000000018004a8b8     libRVO_wrap.obj
 0004:000008c4       $pdata$?_wrap_vectord_reserve@@YAXAEBV?$FunctionCallbackInfo@VValue@v8@@@v8@@@Z 000000018004a8c4     libRVO_wrap.obj
 0004:000008d0       $pdata$?_wrap_vectord_isEmpty@@YAXAEBV?$FunctionCallbackInfo@VValue@v8@@@v8@@@Z 000000018004a8d0     libRVO_wrap.obj
 0004:000008dc       $pdata$?_wrap_vectord_clear@@YAXAEBV?$FunctionCallbackInfo@VValue@v8@@@v8@@@Z 000000018004a8dc     libRVO_wrap.obj
 0004:000008e8       $pdata$?_wrap_vectord_add@@YAXAEBV?$FunctionCallbackInfo@VValue@v8@@@v8@@@Z 000000018004a8e8     libRVO_wrap.obj
 0004:000008f4       $pdata$?_wrap_vectord_get@@YAXAEBV?$FunctionCallbackInfo@VValue@v8@@@v8@@@Z 000000018004a8f4     libRVO_wrap.obj
 0004:00000900       $pdata$?_wrap_vectord_set@@YAXAEBV?$FunctionCallbackInfo@VValue@v8@@@v8@@@Z 000000018004a900     libRVO_wrap.obj
 0004:0000090c       $pdata$?_wrap_delete_vectord@@YAXAEBV?$WeakCallbackData@VObject@v8@@VSWIGV8_Proxy@@@v8@@@Z 000000018004a90c     libRVO_wrap.obj
 0004:0000090c       $pdata$?_wrap_delete_vectorvector@@YAXAEBV?$WeakCallbackData@VObject@v8@@VSWIGV8_Proxy@@@v8@@@Z 000000018004a90c     libRVO_wrap.obj
 0004:00000918       $pdata$0$?_wrap_delete_vectorvector@@YAXAEBV?$WeakCallbackData@VObject@v8@@VSWIGV8_Proxy@@@v8@@@Z 000000018004a918     libRVO_wrap.obj
 0004:00000918       $pdata$0$?_wrap_delete_vectord@@YAXAEBV?$WeakCallbackData@VObject@v8@@VSWIGV8_Proxy@@@v8@@@Z 000000018004a918     libRVO_wrap.obj
 0004:00000924       $pdata$1$?_wrap_delete_vectorvector@@YAXAEBV?$WeakCallbackData@VObject@v8@@VSWIGV8_Proxy@@@v8@@@Z 000000018004a924     libRVO_wrap.obj
 0004:00000924       $pdata$1$?_wrap_delete_vectord@@YAXAEBV?$WeakCallbackData@VObject@v8@@VSWIGV8_Proxy@@@v8@@@Z 000000018004a924     libRVO_wrap.obj
 0004:00000930       $pdata$?_wrap_new_vectorline__SWIG_0@@YAXAEBV?$FunctionCallbackInfo@VValue@v8@@@v8@@AEAVV8ErrorHandler@@@Z 000000018004a930     libRVO_wrap.obj
 0004:0000093c       $pdata$?_wrap_new_vectorline__SWIG_1@@YAXAEBV?$FunctionCallbackInfo@VValue@v8@@@v8@@AEAVV8ErrorHandler@@@Z 000000018004a93c     libRVO_wrap.obj
 0004:00000948       $pdata$?_wrap_new_vectorline@@YAXAEBV?$FunctionCallbackInfo@VValue@v8@@@v8@@@Z 000000018004a948     libRVO_wrap.obj
 0004:00000954       $pdata$?_wrap_vectorline_size@@YAXAEBV?$FunctionCallbackInfo@VValue@v8@@@v8@@@Z 000000018004a954     libRVO_wrap.obj
 0004:00000960       $pdata$?_wrap_vectorline_capacity@@YAXAEBV?$FunctionCallbackInfo@VValue@v8@@@v8@@@Z 000000018004a960     libRVO_wrap.obj
 0004:0000096c       $pdata$?_wrap_vectorline_reserve@@YAXAEBV?$FunctionCallbackInfo@VValue@v8@@@v8@@@Z 000000018004a96c     libRVO_wrap.obj
 0004:00000978       $pdata$?_wrap_vectorline_isEmpty@@YAXAEBV?$FunctionCallbackInfo@VValue@v8@@@v8@@@Z 000000018004a978     libRVO_wrap.obj
 0004:00000984       $pdata$?_wrap_vectorline_clear@@YAXAEBV?$FunctionCallbackInfo@VValue@v8@@@v8@@@Z 000000018004a984     libRVO_wrap.obj
 0004:00000990       $pdata$?_wrap_vectorline_add@@YAXAEBV?$FunctionCallbackInfo@VValue@v8@@@v8@@@Z 000000018004a990     libRVO_wrap.obj
 0004:0000099c       $pdata$?_wrap_vectorline_get@@YAXAEBV?$FunctionCallbackInfo@VValue@v8@@@v8@@@Z 000000018004a99c     libRVO_wrap.obj
 0004:000009a8       $pdata$?_wrap_vectorline_set@@YAXAEBV?$FunctionCallbackInfo@VValue@v8@@@v8@@@Z 000000018004a9a8     libRVO_wrap.obj
 0004:000009b4       $pdata$?_wrap_delete_vectorline@@YAXAEBV?$WeakCallbackData@VObject@v8@@VSWIGV8_Proxy@@@v8@@@Z 000000018004a9b4     libRVO_wrap.obj
 0004:000009c0       $pdata$0$?_wrap_delete_vectorline@@YAXAEBV?$WeakCallbackData@VObject@v8@@VSWIGV8_Proxy@@@v8@@@Z 000000018004a9c0     libRVO_wrap.obj
 0004:000009cc       $pdata$1$?_wrap_delete_vectorline@@YAXAEBV?$WeakCallbackData@VObject@v8@@VSWIGV8_Proxy@@@v8@@@Z 000000018004a9cc     libRVO_wrap.obj
 0004:000009d8       $pdata$?_wrap_new_vectorvector__SWIG_0@@YAXAEBV?$FunctionCallbackInfo@VValue@v8@@@v8@@AEAVV8ErrorHandler@@@Z 000000018004a9d8     libRVO_wrap.obj
 0004:000009e4       $pdata$?_wrap_new_vectorvector__SWIG_1@@YAXAEBV?$FunctionCallbackInfo@VValue@v8@@@v8@@AEAVV8ErrorHandler@@@Z 000000018004a9e4     libRVO_wrap.obj
 0004:000009f0       $pdata$?_wrap_new_vectorvector@@YAXAEBV?$FunctionCallbackInfo@VValue@v8@@@v8@@@Z 000000018004a9f0     libRVO_wrap.obj
 0004:000009fc       $pdata$?_wrap_vectorvector_size@@YAXAEBV?$FunctionCallbackInfo@VValue@v8@@@v8@@@Z 000000018004a9fc     libRVO_wrap.obj
 0004:00000a08       $pdata$?_wrap_vectorvector_capacity@@YAXAEBV?$FunctionCallbackInfo@VValue@v8@@@v8@@@Z 000000018004aa08     libRVO_wrap.obj
 0004:00000a14       $pdata$?_wrap_vectorvector_reserve@@YAXAEBV?$FunctionCallbackInfo@VValue@v8@@@v8@@@Z 000000018004aa14     libRVO_wrap.obj
 0004:00000a20       $pdata$?_wrap_vectorvector_isEmpty@@YAXAEBV?$FunctionCallbackInfo@VValue@v8@@@v8@@@Z 000000018004aa20     libRVO_wrap.obj
 0004:00000a2c       $pdata$?_wrap_vectorvector_clear@@YAXAEBV?$FunctionCallbackInfo@VValue@v8@@@v8@@@Z 000000018004aa2c     libRVO_wrap.obj
 0004:00000a38       $pdata$?_wrap_vectorvector_add@@YAXAEBV?$FunctionCallbackInfo@VValue@v8@@@v8@@@Z 000000018004aa38     libRVO_wrap.obj
 0004:00000a44       $pdata$?_wrap_vectorvector_get@@YAXAEBV?$FunctionCallbackInfo@VValue@v8@@@v8@@@Z 000000018004aa44     libRVO_wrap.obj
 0004:00000a50       $pdata$?_wrap_vectorvector_set@@YAXAEBV?$FunctionCallbackInfo@VValue@v8@@@v8@@@Z 000000018004aa50     libRVO_wrap.obj
 0004:00000a5c       $pdata$?SWIG_V8_SetModule@@YAXPEAXPEAUswig_module_info@@@Z 000000018004aa5c     libRVO_wrap.obj
 0004:00000a68       $pdata$?SWIG_V8_GetModule@@YAPEAUswig_module_info@@PEAX@Z 000000018004aa68     libRVO_wrap.obj
 0004:00000a74       $pdata$SWIG_InitializeModule 000000018004aa74     libRVO_wrap.obj
 0004:00000a80       $pdata$0$SWIG_InitializeModule 000000018004aa80     libRVO_wrap.obj
 0004:00000a8c       $pdata$4$SWIG_InitializeModule 000000018004aa8c     libRVO_wrap.obj
 0004:00000a98       $pdata$5$SWIG_InitializeModule 000000018004aa98     libRVO_wrap.obj
 0004:00000aa4       $pdata$6$SWIG_InitializeModule 000000018004aaa4     libRVO_wrap.obj
 0004:00000ab0       $pdata$7$SWIG_InitializeModule 000000018004aab0     libRVO_wrap.obj
 0004:00000abc       $pdata$libRVO_initialize   000000018004aabc     libRVO_wrap.obj
 0004:00000ac8       $pdata$?push_back@?$vector@NV?$allocator@N@std@@@std@@QEAAXAEBN@Z 000000018004aac8     libRVO_wrap.obj
 0004:00000ad4       $pdata$??0?$vector@NV?$allocator@N@std@@@std@@QEAA@_K@Z 000000018004aad4     libRVO_wrap.obj
 0004:00000ae0       $pdata$?push_back@?$vector@HV?$allocator@H@std@@@std@@QEAAXAEBH@Z 000000018004aae0     libRVO_wrap.obj
 0004:00000aec       $pdata$??0?$vector@HV?$allocator@H@std@@@std@@QEAA@_K@Z 000000018004aaec     libRVO_wrap.obj
 0004:00000af8       $pdata$?push_back@?$vector@VLine@RVO@@V?$allocator@VLine@RVO@@@std@@@std@@QEAAXAEBVLine@RVO@@@Z 000000018004aaf8     libRVO_wrap.obj
 0004:00000b04       $pdata$??0?$vector@VLine@RVO@@V?$allocator@VLine@RVO@@@std@@@std@@QEAA@_K@Z 000000018004ab04     libRVO_wrap.obj
 0004:00000b10       $pdata$?push_back@?$vector@VVector2@RVO@@V?$allocator@VVector2@RVO@@@std@@@std@@QEAAXAEBVVector2@RVO@@@Z 000000018004ab10     libRVO_wrap.obj
 0004:00000b1c       $pdata$??0?$vector@VVector2@RVO@@V?$allocator@VVector2@RVO@@@std@@@std@@QEAA@_K@Z 000000018004ab1c     libRVO_wrap.obj
 0004:00000b28       $pdata$?_Reserve@?$vector@PEAVAgent@RVO@@V?$allocator@PEAVAgent@RVO@@@std@@@std@@IEAAX_K@Z 000000018004ab28     KdTree.obj
 0004:00000b28       $pdata$?_Reserve@?$vector@PEAVObstacle@RVO@@V?$allocator@PEAVObstacle@RVO@@@std@@@std@@IEAAX_K@Z 000000018004ab28     KdTree.obj
 0004:00000b28       $pdata$?_Reserve@?$vector@NV?$allocator@N@std@@@std@@IEAAX_K@Z 000000018004ab28     libRVO_wrap.obj
 0004:00000b34       $pdata$?_Reallocate@?$vector@PEAVObstacle@RVO@@V?$allocator@PEAVObstacle@RVO@@@std@@@std@@IEAAX_K@Z 000000018004ab34     KdTree.obj
 0004:00000b34       $pdata$?_Reallocate@?$vector@PEAVAgent@RVO@@V?$allocator@PEAVAgent@RVO@@@std@@@std@@IEAAX_K@Z 000000018004ab34     KdTree.obj
 0004:00000b34       $pdata$?_Reallocate@?$vector@NV?$allocator@N@std@@@std@@IEAAX_K@Z 000000018004ab34     libRVO_wrap.obj
 0004:00000b40       $pdata$0$?_Reallocate@?$vector@PEAVAgent@RVO@@V?$allocator@PEAVAgent@RVO@@@std@@@std@@IEAAX_K@Z 000000018004ab40     KdTree.obj
 0004:00000b40       $pdata$0$?_Reallocate@?$vector@PEAVObstacle@RVO@@V?$allocator@PEAVObstacle@RVO@@@std@@@std@@IEAAX_K@Z 000000018004ab40     KdTree.obj
 0004:00000b40       $pdata$0$?_Reallocate@?$vector@NV?$allocator@N@std@@@std@@IEAAX_K@Z 000000018004ab40     libRVO_wrap.obj
 0004:00000b4c       $pdata$1$?_Reallocate@?$vector@PEAVAgent@RVO@@V?$allocator@PEAVAgent@RVO@@@std@@@std@@IEAAX_K@Z 000000018004ab4c     KdTree.obj
 0004:00000b4c       $pdata$1$?_Reallocate@?$vector@PEAVObstacle@RVO@@V?$allocator@PEAVObstacle@RVO@@@std@@@std@@IEAAX_K@Z 000000018004ab4c     KdTree.obj
 0004:00000b4c       $pdata$1$?_Reallocate@?$vector@NV?$allocator@N@std@@@std@@IEAAX_K@Z 000000018004ab4c     libRVO_wrap.obj
 0004:00000b58       $pdata$?_Reserve@?$vector@HV?$allocator@H@std@@@std@@IEAAX_K@Z 000000018004ab58     libRVO_wrap.obj
 0004:00000b64       $pdata$?_Reallocate@?$vector@HV?$allocator@H@std@@@std@@IEAAX_K@Z 000000018004ab64     libRVO_wrap.obj
 0004:00000b70       $pdata$0$?_Reallocate@?$vector@HV?$allocator@H@std@@@std@@IEAAX_K@Z 000000018004ab70     libRVO_wrap.obj
 0004:00000b7c       $pdata$1$?_Reallocate@?$vector@HV?$allocator@H@std@@@std@@IEAAX_K@Z 000000018004ab7c     libRVO_wrap.obj
 0004:00000b88       $pdata$?_Tidy@?$vector@U?$pair@MPEBVAgent@RVO@@@std@@V?$allocator@U?$pair@MPEBVAgent@RVO@@@std@@@2@@std@@IEAAXXZ 000000018004ab88     libRVO_wrap.obj
 0004:00000b88       $pdata$?_Tidy@?$vector@U?$pair@MPEBVObstacle@RVO@@@std@@V?$allocator@U?$pair@MPEBVObstacle@RVO@@@std@@@2@@std@@IEAAXXZ 000000018004ab88     libRVO_wrap.obj
 0004:00000b88       $pdata$?_Tidy@?$vector@VLine@RVO@@V?$allocator@VLine@RVO@@@std@@@std@@IEAAXXZ 000000018004ab88     libRVO_wrap.obj
 0004:00000b94       $pdata$?_Reserve@?$vector@U?$pair@MPEBVAgent@RVO@@@std@@V?$allocator@U?$pair@MPEBVAgent@RVO@@@std@@@2@@std@@IEAAX_K@Z 000000018004ab94     Agent.obj
 0004:00000b94       $pdata$?_Reserve@?$vector@VLine@RVO@@V?$allocator@VLine@RVO@@@std@@@std@@IEAAX_K@Z 000000018004ab94     libRVO_wrap.obj
 0004:00000b94       $pdata$?_Reserve@?$vector@U?$pair@MPEBVObstacle@RVO@@@std@@V?$allocator@U?$pair@MPEBVObstacle@RVO@@@std@@@2@@std@@IEAAX_K@Z 000000018004ab94     Agent.obj
 0004:00000ba0       $pdata$?_Reallocate@?$vector@U?$pair@MPEBVObstacle@RVO@@@std@@V?$allocator@U?$pair@MPEBVObstacle@RVO@@@std@@@2@@std@@IEAAX_K@Z 000000018004aba0     Agent.obj
 0004:00000ba0       $pdata$?_Reallocate@?$vector@U?$pair@MPEBVAgent@RVO@@@std@@V?$allocator@U?$pair@MPEBVAgent@RVO@@@std@@@2@@std@@IEAAX_K@Z 000000018004aba0     Agent.obj
 0004:00000ba0       $pdata$?_Reallocate@?$vector@VLine@RVO@@V?$allocator@VLine@RVO@@@std@@@std@@IEAAX_K@Z 000000018004aba0     libRVO_wrap.obj
 0004:00000bac       $pdata$0$?_Reallocate@?$vector@VLine@RVO@@V?$allocator@VLine@RVO@@@std@@@std@@IEAAX_K@Z 000000018004abac     libRVO_wrap.obj
 0004:00000bac       $pdata$0$?_Reallocate@?$vector@U?$pair@MPEBVObstacle@RVO@@@std@@V?$allocator@U?$pair@MPEBVObstacle@RVO@@@std@@@2@@std@@IEAAX_K@Z 000000018004abac     Agent.obj
 0004:00000bac       $pdata$0$?_Reallocate@?$vector@U?$pair@MPEBVAgent@RVO@@@std@@V?$allocator@U?$pair@MPEBVAgent@RVO@@@std@@@2@@std@@IEAAX_K@Z 000000018004abac     Agent.obj
 0004:00000bb8       $pdata$1$?_Reallocate@?$vector@U?$pair@MPEBVAgent@RVO@@@std@@V?$allocator@U?$pair@MPEBVAgent@RVO@@@std@@@2@@std@@IEAAX_K@Z 000000018004abb8     Agent.obj
 0004:00000bb8       $pdata$1$?_Reallocate@?$vector@U?$pair@MPEBVObstacle@RVO@@@std@@V?$allocator@U?$pair@MPEBVObstacle@RVO@@@std@@@2@@std@@IEAAX_K@Z 000000018004abb8     Agent.obj
 0004:00000bb8       $pdata$1$?_Reallocate@?$vector@VLine@RVO@@V?$allocator@VLine@RVO@@@std@@@std@@IEAAX_K@Z 000000018004abb8     libRVO_wrap.obj
 0004:00000bc4       $pdata$2$?_Reallocate@?$vector@U?$pair@MPEBVAgent@RVO@@@std@@V?$allocator@U?$pair@MPEBVAgent@RVO@@@std@@@2@@std@@IEAAX_K@Z 000000018004abc4     Agent.obj
 0004:00000bc4       $pdata$2$?_Reallocate@?$vector@U?$pair@MPEBVObstacle@RVO@@@std@@V?$allocator@U?$pair@MPEBVObstacle@RVO@@@std@@@2@@std@@IEAAX_K@Z 000000018004abc4     Agent.obj
 0004:00000bc4       $pdata$2$?_Reallocate@?$vector@VLine@RVO@@V?$allocator@VLine@RVO@@@std@@@std@@IEAAX_K@Z 000000018004abc4     libRVO_wrap.obj
 0004:00000bd0       $pdata$?_Reserve@?$vector@VVector2@RVO@@V?$allocator@VVector2@RVO@@@std@@@std@@IEAAX_K@Z 000000018004abd0     libRVO_wrap.obj
 0004:00000bdc       $pdata$?_Reallocate@?$vector@VVector2@RVO@@V?$allocator@VVector2@RVO@@@std@@@std@@IEAAX_K@Z 000000018004abdc     libRVO_wrap.obj
 0004:00000be8       $pdata$0$?_Reallocate@?$vector@VVector2@RVO@@V?$allocator@VVector2@RVO@@@std@@@std@@IEAAX_K@Z 000000018004abe8     libRVO_wrap.obj
 0004:00000bf4       $pdata$1$?_Reallocate@?$vector@VVector2@RVO@@V?$allocator@VVector2@RVO@@@std@@@std@@IEAAX_K@Z 000000018004abf4     libRVO_wrap.obj
 0004:00000c00       $pdata$?deallocate@?$_Wrap_alloc@V?$allocator@PEAVObstacle@RVO@@@std@@@std@@QEAAXPEAPEAVObstacle@RVO@@_K@Z 000000018004ac00     KdTree.obj
 0004:00000c00       $pdata$?deallocate@?$_Wrap_alloc@V?$allocator@VVector2@RVO@@@std@@@std@@QEAAXPEAVVector2@RVO@@_K@Z 000000018004ac00     libRVO_wrap.obj
 0004:00000c00       $pdata$?deallocate@?$_Wrap_alloc@V?$allocator@N@std@@@std@@QEAAXPEAN_K@Z 000000018004ac00     libRVO_wrap.obj
 0004:00000c00       $pdata$?deallocate@?$_Wrap_alloc@V?$allocator@PEAVAgent@RVO@@@std@@@std@@QEAAXPEAPEAVAgent@RVO@@_K@Z 000000018004ac00     KdTree.obj
 0004:00000c0c       $pdata$?allocate@?$_Wrap_alloc@V?$allocator@VVector2@RVO@@@std@@@std@@QEAAPEAVVector2@RVO@@_K@Z 000000018004ac0c     libRVO_wrap.obj
 0004:00000c0c       $pdata$?allocate@?$_Wrap_alloc@V?$allocator@N@std@@@std@@QEAAPEAN_K@Z 000000018004ac0c     libRVO_wrap.obj
 0004:00000c0c       $pdata$?allocate@?$_Wrap_alloc@V?$allocator@PEAVObstacle@RVO@@@std@@@std@@QEAAPEAPEAVObstacle@RVO@@_K@Z 000000018004ac0c     KdTree.obj
 0004:00000c18       $pdata$?deallocate@?$_Wrap_alloc@V?$allocator@H@std@@@std@@QEAAXPEAH_K@Z 000000018004ac18     libRVO_wrap.obj
 0004:00000c24       $pdata$?allocate@?$_Wrap_alloc@V?$allocator@H@std@@@std@@QEAAPEAH_K@Z 000000018004ac24     libRVO_wrap.obj
 0004:00000c30       $pdata$?allocate@?$_Wrap_alloc@V?$allocator@VLine@RVO@@@std@@@std@@QEAAPEAVLine@RVO@@_K@Z 000000018004ac30     libRVO_wrap.obj
 0004:00000c3c       $pdata$?computeNewVelocity@Agent@RVO@@AEAAXXZ 000000018004ac3c     Agent.obj
 0004:00000c48       $pdata$0$?computeNewVelocity@Agent@RVO@@AEAAXXZ 000000018004ac48     Agent.obj
 0004:00000c54       $pdata$?insertAgentNeighbor@Agent@RVO@@AEAAXPEBV12@AEAM@Z 000000018004ac54     Agent.obj
 0004:00000c60       $pdata$0$?insertAgentNeighbor@Agent@RVO@@AEAAXPEBV12@AEAM@Z 000000018004ac60     Agent.obj
 0004:00000c6c       $pdata$1$?insertAgentNeighbor@Agent@RVO@@AEAAXPEBV12@AEAM@Z 000000018004ac6c     Agent.obj
 0004:00000c78       $pdata$2$?insertAgentNeighbor@Agent@RVO@@AEAAXPEBV12@AEAM@Z 000000018004ac78     Agent.obj
 0004:00000c84       $pdata$3$?insertAgentNeighbor@Agent@RVO@@AEAAXPEBV12@AEAM@Z 000000018004ac84     Agent.obj
 0004:00000c90       $pdata$?insertObstacleNeighbor@Agent@RVO@@AEAAXPEBVObstacle@2@M@Z 000000018004ac90     Agent.obj
 0004:00000c9c       $pdata$0$?insertObstacleNeighbor@Agent@RVO@@AEAAXPEBVObstacle@2@M@Z 000000018004ac9c     Agent.obj
 0004:00000ca8       $pdata$1$?insertObstacleNeighbor@Agent@RVO@@AEAAXPEBVObstacle@2@M@Z 000000018004aca8     Agent.obj
 0004:00000cb4       $pdata$2$?insertObstacleNeighbor@Agent@RVO@@AEAAXPEBVObstacle@2@M@Z 000000018004acb4     Agent.obj
 0004:00000cc0       $pdata$3$?insertObstacleNeighbor@Agent@RVO@@AEAAXPEBVObstacle@2@M@Z 000000018004acc0     Agent.obj
 0004:00000ccc       $pdata$?linearProgram1@RVO@@YA_NAEBV?$vector@VLine@RVO@@V?$allocator@VLine@RVO@@@std@@@std@@_KMAEBVVector2@1@_NAEAV41@@Z 000000018004accc     Agent.obj
 0004:00000cd8       $pdata$6$?linearProgram1@RVO@@YA_NAEBV?$vector@VLine@RVO@@V?$allocator@VLine@RVO@@@std@@@std@@_KMAEBVVector2@1@_NAEAV41@@Z 000000018004acd8     Agent.obj
 0004:00000ce4       $pdata$7$?linearProgram1@RVO@@YA_NAEBV?$vector@VLine@RVO@@V?$allocator@VLine@RVO@@@std@@@std@@_KMAEBVVector2@1@_NAEAV41@@Z 000000018004ace4     Agent.obj
 0004:00000cf0       $pdata$?linearProgram2@RVO@@YA_KAEBV?$vector@VLine@RVO@@V?$allocator@VLine@RVO@@@std@@@std@@MAEBVVector2@1@_NAEAV41@@Z 000000018004acf0     Agent.obj
 0004:00000cfc       $pdata$?linearProgram3@RVO@@YAXAEBV?$vector@VLine@RVO@@V?$allocator@VLine@RVO@@@std@@@std@@_K1MAEAVVector2@1@@Z 000000018004acfc     Agent.obj
 0004:00000d08       $pdata$12$?linearProgram3@RVO@@YAXAEBV?$vector@VLine@RVO@@V?$allocator@VLine@RVO@@@std@@@std@@_K1MAEAVVector2@1@@Z 000000018004ad08     Agent.obj
 0004:00000d14       $pdata$13$?linearProgram3@RVO@@YAXAEBV?$vector@VLine@RVO@@V?$allocator@VLine@RVO@@@std@@@std@@_K1MAEAVVector2@1@@Z 000000018004ad14     Agent.obj
 0004:00000d20       $pdata$14$?linearProgram3@RVO@@YAXAEBV?$vector@VLine@RVO@@V?$allocator@VLine@RVO@@@std@@@std@@_K1MAEAVVector2@1@@Z 000000018004ad20     Agent.obj
 0004:00000d2c       $pdata$??1KdTree@RVO@@AEAA@XZ 000000018004ad2c     KdTree.obj
 0004:00000d38       $pdata$?buildAgentTree@KdTree@RVO@@AEAAXXZ 000000018004ad38     KdTree.obj
 0004:00000d44       $pdata$0$?buildAgentTree@KdTree@RVO@@AEAAXXZ 000000018004ad44     KdTree.obj
 0004:00000d50       $pdata$1$?buildAgentTree@KdTree@RVO@@AEAAXXZ 000000018004ad50     KdTree.obj
 0004:00000d5c       $pdata$2$?buildAgentTree@KdTree@RVO@@AEAAXXZ 000000018004ad5c     KdTree.obj
 0004:00000d68       $pdata$3$?buildAgentTree@KdTree@RVO@@AEAAXXZ 000000018004ad68     KdTree.obj
 0004:00000d74       $pdata$?buildAgentTreeRecursive@KdTree@RVO@@AEAAX_K00@Z 000000018004ad74     KdTree.obj
 0004:00000d80       $pdata$?buildObstacleTree@KdTree@RVO@@AEAAXXZ 000000018004ad80     KdTree.obj
 0004:00000d8c       $pdata$?buildObstacleTreeRecursive@KdTree@RVO@@AEAAPEAVObstacleTreeNode@12@AEBV?$vector@PEAVObstacle@RVO@@V?$allocator@PEAVObstacle@RVO@@@std@@@std@@@Z 000000018004ad8c     KdTree.obj
 0004:00000d98       $pdata$3$?buildObstacleTreeRecursive@KdTree@RVO@@AEAAPEAVObstacleTreeNode@12@AEBV?$vector@PEAVObstacle@RVO@@V?$allocator@PEAVObstacle@RVO@@@std@@@std@@@Z 000000018004ad98     KdTree.obj
 0004:00000da4       $pdata$8$?buildObstacleTreeRecursive@KdTree@RVO@@AEAAPEAVObstacleTreeNode@12@AEBV?$vector@PEAVObstacle@RVO@@V?$allocator@PEAVObstacle@RVO@@@std@@@std@@@Z 000000018004ada4     KdTree.obj
 0004:00000db0       $pdata$9$?buildObstacleTreeRecursive@KdTree@RVO@@AEAAPEAVObstacleTreeNode@12@AEBV?$vector@PEAVObstacle@RVO@@V?$allocator@PEAVObstacle@RVO@@@std@@@std@@@Z 000000018004adb0     KdTree.obj
 0004:00000dbc       $pdata$11$?buildObstacleTreeRecursive@KdTree@RVO@@AEAAPEAVObstacleTreeNode@12@AEBV?$vector@PEAVObstacle@RVO@@V?$allocator@PEAVObstacle@RVO@@@std@@@std@@@Z 000000018004adbc     KdTree.obj
 0004:00000dc8       $pdata$?deleteObstacleTree@KdTree@RVO@@AEAAXPEAVObstacleTreeNode@12@@Z 000000018004adc8     KdTree.obj
 0004:00000dd4       $pdata$?queryAgentTreeRecursive@KdTree@RVO@@AEBAXPEAVAgent@2@AEAM_K@Z 000000018004add4     KdTree.obj
 0004:00000de0       $pdata$?queryObstacleTreeRecursive@KdTree@RVO@@AEBAXPEAVAgent@2@MPEBVObstacleTreeNode@12@@Z 000000018004ade0     KdTree.obj
 0004:00000dec       $pdata$3$?queryObstacleTreeRecursive@KdTree@RVO@@AEBAXPEAVAgent@2@MPEBVObstacleTreeNode@12@@Z 000000018004adec     KdTree.obj
 0004:00000df8       $pdata$4$?queryObstacleTreeRecursive@KdTree@RVO@@AEBAXPEAVAgent@2@MPEBVObstacleTreeNode@12@@Z 000000018004adf8     KdTree.obj
 0004:00000e04       $pdata$?queryVisibilityRecursive@KdTree@RVO@@AEBA_NAEBVVector2@2@0MPEBVObstacleTreeNode@12@@Z 000000018004ae04     KdTree.obj
 0004:00000e10       $pdata$4$?queryVisibilityRecursive@KdTree@RVO@@AEBA_NAEBVVector2@2@0MPEBVObstacleTreeNode@12@@Z 000000018004ae10     KdTree.obj
 0004:00000e1c       $pdata$5$?queryVisibilityRecursive@KdTree@RVO@@AEBA_NAEBVVector2@2@0MPEBVObstacleTreeNode@12@@Z 000000018004ae1c     KdTree.obj
 0004:00000e28       $pdata$?resize@?$vector@VAgentTreeNode@KdTree@RVO@@V?$allocator@VAgentTreeNode@KdTree@RVO@@@std@@@std@@QEAAX_K@Z 000000018004ae28     KdTree.obj
 0004:00000e34       $pdata$?_Reserve@?$vector@VAgentTreeNode@KdTree@RVO@@V?$allocator@VAgentTreeNode@KdTree@RVO@@@std@@@std@@IEAAX_K@Z 000000018004ae34     KdTree.obj
 0004:00000e40       $pdata$?deallocate@?$_Wrap_alloc@V?$allocator@VAgentTreeNode@KdTree@RVO@@@std@@@std@@QEAAXPEAVAgentTreeNode@KdTree@RVO@@_K@Z 000000018004ae40     KdTree.obj
 0004:00000e4c       $pdata$?_Reallocate@?$vector@VAgentTreeNode@KdTree@RVO@@V?$allocator@VAgentTreeNode@KdTree@RVO@@@std@@@std@@IEAAX_K@Z 000000018004ae4c     KdTree.obj
 0004:00000e58       $pdata$0$?_Reallocate@?$vector@VAgentTreeNode@KdTree@RVO@@V?$allocator@VAgentTreeNode@KdTree@RVO@@@std@@@std@@IEAAX_K@Z 000000018004ae58     KdTree.obj
 0004:00000e64       $pdata$1$?_Reallocate@?$vector@VAgentTreeNode@KdTree@RVO@@V?$allocator@VAgentTreeNode@KdTree@RVO@@@std@@@std@@IEAAX_K@Z 000000018004ae64     KdTree.obj
 0004:00000e70       $pdata$??0RVOSimulator@RVO@@QEAA@MM_KMMMMAEBVVector2@1@@Z 000000018004ae70     RVOSimulator.obj
 0004:00000e7c       $pdata$??1RVOSimulator@RVO@@QEAA@XZ 000000018004ae7c     RVOSimulator.obj
 0004:00000e88       $pdata$?addAgent@RVOSimulator@RVO@@QEAA_KAEBVVector2@2@@Z 000000018004ae88     RVOSimulator.obj
 0004:00000e94       $pdata$?addAgent@RVOSimulator@RVO@@QEAA_KAEBVVector2@2@M_KMMMM0@Z 000000018004ae94     RVOSimulator.obj
 0004:00000ea0       $pdata$?addObstacle@RVOSimulator@RVO@@QEAA_KAEBV?$vector@VVector2@RVO@@V?$allocator@VVector2@RVO@@@std@@@std@@@Z 000000018004aea0     RVOSimulator.obj
 0004:00000eac       $pdata$9$?addObstacle@RVOSimulator@RVO@@QEAA_KAEBV?$vector@VVector2@RVO@@V?$allocator@VVector2@RVO@@@std@@@std@@@Z 000000018004aeac     RVOSimulator.obj
 0004:00000eb8       $pdata$10$?addObstacle@RVOSimulator@RVO@@QEAA_KAEBV?$vector@VVector2@RVO@@V?$allocator@VVector2@RVO@@@std@@@std@@@Z 000000018004aeb8     RVOSimulator.obj
 0004:00000ec4       $pdata$?doStep@RVOSimulator@RVO@@QEAAXXZ 000000018004aec4     RVOSimulator.obj
 0004:00000ed0       $pdata$0$?doStep@RVOSimulator@RVO@@QEAAXXZ 000000018004aed0     RVOSimulator.obj
 0004:00000edc       $pdata$2$?doStep@RVOSimulator@RVO@@QEAAXXZ 000000018004aedc     RVOSimulator.obj
 0004:00000ee8       $pdata$3$?doStep@RVOSimulator@RVO@@QEAAXXZ 000000018004aee8     RVOSimulator.obj
 0004:00000ef4       $pdata$4$?doStep@RVOSimulator@RVO@@QEAAXXZ 000000018004aef4     RVOSimulator.obj
 0004:00000f00       $pdata$?setAgentDefaults@RVOSimulator@RVO@@QEAAXM_KMMMMAEBVVector2@2@@Z 000000018004af00     RVOSimulator.obj
 0004:00000f0c       $pdata$?load_exe_hook@@YAP6A_JXZIPEAUDelayLoadInfo@@@Z 000000018004af0c     win_delay_load_hook.obj
 0004:00000f24       $pdata$??0bad_alloc@std@@QEAA@AEBV01@@Z 000000018004af24     libcpmt:xthrow.obj
 0004:00000f30       $pdata$??0exception@std@@QEAA@AEBV01@@Z 000000018004af30     libcpmt:xthrow.obj
 0004:00000f3c       $pdata$??0length_error@std@@QEAA@AEBV01@@Z 000000018004af3c     libcpmt:xthrow.obj
 0004:00000f48       $pdata$??0length_error@std@@QEAA@PEBD@Z 000000018004af48     libcpmt:xthrow.obj
 0004:00000f54       $pdata$??_Gbad_exception@std@@UEAAPEAXI@Z 000000018004af54     libvcruntime:frame.obj
 0004:00000f54       $pdata$??_Gbad_alloc@std@@UEAAPEAXI@Z 000000018004af54     libcpmt:xthrow.obj
 0004:00000f54       $pdata$??_Glength_error@std@@UEAAPEAXI@Z 000000018004af54     libcpmt:xthrow.obj
 0004:00000f54       $pdata$??_Gbad_array_new_length@std@@UEAAPEAXI@Z 000000018004af54     LIBCMT:throw_bad_alloc.obj
 0004:00000f54       $pdata$??_Gexception@std@@UEAAPEAXI@Z 000000018004af54     libcpmt:xthrow.obj
 0004:00000f60       $pdata$?_Xbad_alloc@std@@YAXXZ 000000018004af60     libcpmt:xthrow.obj
 0004:00000f60       $pdata$?__scrt_throw_std_bad_alloc@@YAXXZ 000000018004af60     LIBCMT:throw_bad_alloc.obj
 0004:00000f6c       $pdata$?_Xlength_error@std@@YAXPEBD@Z 000000018004af6c     libcpmt:xthrow.obj
 0004:00000f84       $pdata$??2@YAPEAX_K@Z      000000018004af84     LIBCMT:new_scalar.obj
 0004:00000f90       $pdata$__scrt_acquire_startup_lock 000000018004af90     LIBCMT:utility.obj
 0004:00000f9c       $pdata$__scrt_dllmain_after_initialize_c 000000018004af9c     LIBCMT:utility.obj
 0004:00000fa8       $pdata$__scrt_dllmain_before_initialize_c 000000018004afa8     LIBCMT:utility.obj
 0004:00000fb4       $pdata$__scrt_dllmain_crt_thread_attach 000000018004afb4     LIBCMT:utility.obj
 0004:00000fc0       $pdata$__scrt_dllmain_crt_thread_detach 000000018004afc0     LIBCMT:utility.obj
 0004:00000fcc       $pdata$__scrt_dllmain_exception_filter 000000018004afcc     LIBCMT:utility.obj
 0004:00000fd8       $pdata$__scrt_dllmain_uninitialize_c 000000018004afd8     LIBCMT:utility.obj
 0004:00000fe4       $pdata$__scrt_dllmain_uninitialize_critical 000000018004afe4     LIBCMT:utility.obj
 0004:00000ff0       $pdata$__scrt_initialize_crt 000000018004aff0     LIBCMT:utility.obj
 0004:00000ffc       $pdata$__scrt_initialize_onexit_tables 000000018004affc     LIBCMT:utility.obj
 0004:00001008       $pdata$__scrt_is_nonwritable_in_current_image 000000018004b008     LIBCMT:utility.obj
 0004:00001014       $pdata$__scrt_release_startup_lock 000000018004b014     LIBCMT:utility.obj
 0004:00001020       $pdata$__scrt_uninitialize_crt 000000018004b020     LIBCMT:utility.obj
 0004:0000102c       $pdata$_onexit             000000018004b02c     LIBCMT:utility.obj
 0004:00001038       $pdata$atexit              000000018004b038     LIBCMT:utility.obj
 0004:00001044       $pdata$??_Gtype_info@@UEAAPEAXI@Z 000000018004b044     LIBCMT:std_type_info_static.obj
 0004:00001050       $pdata$?dllmain_crt_dispatch@@YAHQEAUHINSTANCE__@@KQEAX@Z 000000018004b050     LIBCMT:dll_dllmain.obj
 0004:0000105c       $pdata$?dllmain_crt_process_attach@@YAHQEAUHINSTANCE__@@QEAX@Z 000000018004b05c     LIBCMT:dll_dllmain.obj
 0004:00001068       $pdata$?dllmain_crt_process_detach@@YAH_N@Z 000000018004b068     LIBCMT:dll_dllmain.obj
 0004:00001074       $pdata$?dllmain_dispatch@@YAHQEAUHINSTANCE__@@KQEAX@Z 000000018004b074     LIBCMT:dll_dllmain.obj
 0004:00001080       $pdata$?dllmain_raw@@YAHQEAUHINSTANCE__@@KQEAX@Z 000000018004b080     LIBCMT:dll_dllmain.obj
 0004:0000108c       $pdata$_DllMainCRTStartup  000000018004b08c     LIBCMT:dll_dllmain.obj
 0004:00001098       $pdata$__raise_securityfailure 000000018004b098     LIBCMT:gs_report.obj
 0004:000010a4       $pdata$__report_gsfailure  000000018004b0a4     LIBCMT:gs_report.obj
 0004:000010b0       $pdata$__report_rangecheckfailure 000000018004b0b0     LIBCMT:gs_report.obj
 0004:000010bc       $pdata$__report_securityfailure 000000018004b0bc     LIBCMT:gs_report.obj
 0004:000010c8       $pdata$capture_current_context 000000018004b0c8     LIBCMT:gs_report.obj
 0004:000010d4       $pdata$capture_previous_context 000000018004b0d4     LIBCMT:gs_report.obj
 0004:000010e0       $pdata$??0bad_array_new_length@std@@QEAA@AEBV01@@Z 000000018004b0e0     LIBCMT:throw_bad_alloc.obj
 0004:000010ec       $pdata$?__scrt_throw_std_bad_array_new_length@@YAXXZ 000000018004b0ec     LIBCMT:throw_bad_alloc.obj
 0004:000010f8       $pdata$__isa_available_init 000000018004b0f8     LIBCMT:_cpu_disp_.obj
 0004:00001104       $pdata$__scrt_fastfail     000000018004b104     LIBCMT:utility_desktop.obj
 0004:00001110       $pdata$__security_init_cookie 000000018004b110     LIBCMT:gs_support.obj
 0004:0000111c       $pdata$__scrt_initialize_default_local_stdio_options 000000018004b11c     LIBCMT:default_local_stdio_options.obj
 0004:00001128       $pdata$_RTC_Initialize     000000018004b128     LIBCMT:_initsect_.obj
 0004:00001134       $pdata$_RTC_Terminate      000000018004b134     LIBCMT:_initsect_.obj
 0004:0000114c       $pdata$__std_exception_copy 000000018004b14c     libvcruntime:std_exception.obj
 0004:00001158       $pdata$__std_exception_destroy 000000018004b158     libvcruntime:std_exception.obj
 0004:00001164       $pdata$_CxxThrowException  000000018004b164     libvcruntime:throw.obj
 0004:00001170       $pdata$__vcrt_initialize   000000018004b170     libvcruntime:initialization.obj
 0004:0000117c       $pdata$__vcrt_thread_attach 000000018004b17c     libvcruntime:initialization.obj
 0004:00001188       $pdata$__vcrt_thread_detach 000000018004b188     libvcruntime:initialization.obj
 0004:00001194       $pdata$__vcrt_uninitialize 000000018004b194     libvcruntime:initialization.obj
 0004:000011a0       $pdata$__vcrt_uninitialize_critical 000000018004b1a0     libvcruntime:initialization.obj
 0004:000011ac       $pdata$__C_specific_handler 000000018004b1ac     libvcruntime:_chandler_.obj
 0004:000011c4       $pdata$__std_type_info_destroy_list 000000018004b1c4     libvcruntime:std_type_info.obj
 0004:000011d0       $pdata$__vcrt_freefls      000000018004b1d0     libvcruntime:per_thread_data.obj
 0004:000011dc       $pdata$__vcrt_freeptd      000000018004b1dc     libvcruntime:per_thread_data.obj
 0004:000011e8       $pdata$__vcrt_getptd       000000018004b1e8     libvcruntime:per_thread_data.obj
 0004:000011f4       $pdata$__vcrt_getptd_noexit 000000018004b1f4     libvcruntime:per_thread_data.obj
 0004:00001200       $pdata$__vcrt_initialize_ptd 000000018004b200     libvcruntime:per_thread_data.obj
 0004:0000120c       $pdata$__vcrt_uninitialize_ptd 000000018004b20c     libvcruntime:per_thread_data.obj
 0004:00001218       $pdata$__vcrt_initialize_locks 000000018004b218     libvcruntime:locks.obj
 0004:00001224       $pdata$__vcrt_uninitialize_locks 000000018004b224     libvcruntime:locks.obj
 0004:00001230       $pdata$?try_get_function@@YAPEAXW4function_id@?A0x679b24ab@@QEBDQEBW4module_id@2@2@Z 000000018004b230     libvcruntime:winapi_downlevel.obj
 0004:0000123c       $pdata$__vcrt_FlsAlloc     000000018004b23c     libvcruntime:winapi_downlevel.obj
 0004:00001248       $pdata$__vcrt_FlsFree      000000018004b248     libvcruntime:winapi_downlevel.obj
 0004:00001254       $pdata$__vcrt_FlsGetValue  000000018004b254     libvcruntime:winapi_downlevel.obj
 0004:00001260       $pdata$__vcrt_FlsSetValue  000000018004b260     libvcruntime:winapi_downlevel.obj
 0004:0000126c       $pdata$__vcrt_InitializeCriticalSectionEx 000000018004b26c     libvcruntime:winapi_downlevel.obj
 0004:00001278       $pdata$__vcrt_uninitialize_winapi_thunks 000000018004b278     libvcruntime:winapi_downlevel.obj
 0004:000012b4       $pdata$__acrt_call_reportfault 000000018004b2b4     libucrt:invalid_parameter.obj
 0004:000012c0       $pdata$_invalid_parameter  000000018004b2c0     libucrt:invalid_parameter.obj
 0004:000012cc       $pdata$_invalid_parameter_noinfo 000000018004b2cc     libucrt:invalid_parameter.obj
 0004:000012d8       $pdata$_invalid_parameter_noinfo_noreturn 000000018004b2d8     libucrt:invalid_parameter.obj
 0004:000012e4       $pdata$_invoke_watson      000000018004b2e4     libucrt:invalid_parameter.obj
 0004:000012f0       $pdata$??$?RV<lambda_7b91131dde12e1c3dfc74ff76b3f2eac>@@AEAV<lambda_dd75445284c072d0bd3768540cc698fa>@@V<lambda_16bc4ecb55b4718497c16bceaea2ceaf>@@@?$__crt_seh_guarded_call@H@@QEAAH$$QEAV<lambda_7b91131dde12e1c3dfc74ff76b3f2eac>@@AEAV<lambda_dd75445284c072d0bd3768540cc698fa>@@$$QEAV<lambda_16bc4ecb55b4718497c16bceaea2ceaf>@@@Z 000000018004b2f0     libucrt:output.obj
 0004:000012fc       $pdata$??$ensure_buffer_is_big_enough@D@formatting_buffer@__crt_stdio_output@@QEAA_N_K@Z 000000018004b2fc     libucrt:output.obj
 0004:00001308       $pdata$??$type_case_integer_parse_into_buffer@I@?$output_processor@DV?$string_output_adapter@D@__crt_stdio_output@@V?$standard_base@DV?$string_output_adapter@D@__crt_stdio_output@@@2@@__crt_stdio_output@@AEAAXII_N@Z 000000018004b308     libucrt:output.obj
 0004:00001308       $pdata$??$type_case_integer_parse_into_buffer@I@?$output_processor@_WV?$string_output_adapter@_W@__crt_stdio_output@@V?$standard_base@_WV?$string_output_adapter@_W@__crt_stdio_output@@@2@@__crt_stdio_output@@AEAAXII_N@Z 000000018004b308     libucrt:output.obj
 0004:00001308       $pdata$??$type_case_integer_parse_into_buffer@I@?$output_processor@_WV?$stream_output_adapter@_W@__crt_stdio_output@@V?$standard_base@_WV?$stream_output_adapter@_W@__crt_stdio_output@@@2@@__crt_stdio_output@@AEAAXII_N@Z 000000018004b308     libucrt:output.obj
 0004:00001314       $pdata$??$type_case_integer_parse_into_buffer@_K@?$output_processor@DV?$string_output_adapter@D@__crt_stdio_output@@V?$standard_base@DV?$string_output_adapter@D@__crt_stdio_output@@@2@@__crt_stdio_output@@AEAAX_KI_N@Z 000000018004b314     libucrt:output.obj
 0004:00001314       $pdata$??$type_case_integer_parse_into_buffer@_K@?$output_processor@_WV?$stream_output_adapter@_W@__crt_stdio_output@@V?$standard_base@_WV?$stream_output_adapter@_W@__crt_stdio_output@@@2@@__crt_stdio_output@@AEAAX_KI_N@Z 000000018004b314     libucrt:output.obj
 0004:00001314       $pdata$??$type_case_integer_parse_into_buffer@_K@?$output_processor@_WV?$string_output_adapter@_W@__crt_stdio_output@@V?$standard_base@_WV?$string_output_adapter@_W@__crt_stdio_output@@@2@@__crt_stdio_output@@AEAAX_KI_N@Z 000000018004b314     libucrt:output.obj
 0004:00001320       $pdata$??$write_multiple_characters@V?$stream_output_adapter@_W@__crt_stdio_output@@D@__crt_stdio_output@@YAXAEBV?$stream_output_adapter@_W@0@DHQEAH@Z 000000018004b320     libucrt:output.obj
 0004:0000132c       $pdata$??$write_multiple_characters@V?$string_output_adapter@D@__crt_stdio_output@@D@__crt_stdio_output@@YAXAEBV?$string_output_adapter@D@0@DHQEAH@Z 000000018004b32c     libucrt:output.obj
 0004:00001338       $pdata$??$write_multiple_characters@V?$string_output_adapter@_W@__crt_stdio_output@@D@__crt_stdio_output@@YAXAEBV?$string_output_adapter@_W@0@DHQEAH@Z 000000018004b338     libucrt:output.obj
 0004:00001344       $pdata$??0?$output_processor@DV?$string_output_adapter@D@__crt_stdio_output@@V?$standard_base@DV?$string_output_adapter@D@__crt_stdio_output@@@2@@__crt_stdio_output@@QEAA@AEBV?$string_output_adapter@D@1@_KQEBDQEAU__crt_locale_pointers@@QEAD@Z 000000018004b344     libucrt:output.obj
 0004:00001350       $pdata$??0?$output_processor@_WV?$stream_output_adapter@_W@__crt_stdio_output@@V?$standard_base@_WV?$stream_output_adapter@_W@__crt_stdio_output@@@2@@__crt_stdio_output@@QEAA@AEBV?$stream_output_adapter@_W@1@_KQEB_WQEAU__crt_locale_pointers@@QEAD@Z 000000018004b350     libucrt:output.obj
 0004:00001350       $pdata$??0?$output_processor@_WV?$string_output_adapter@_W@__crt_stdio_output@@V?$standard_base@_WV?$string_output_adapter@_W@__crt_stdio_output@@@2@@__crt_stdio_output@@QEAA@AEBV?$string_output_adapter@_W@1@_KQEB_WQEAU__crt_locale_pointers@@QEAD@Z 000000018004b350     libucrt:output.obj
 0004:0000135c       $pdata$??0_LocaleUpdate@@QEAA@QEAU__crt_locale_pointers@@@Z 000000018004b35c     libucrt:output.obj
 0004:00001368       $pdata$??R<lambda_dd75445284c072d0bd3768540cc698fa>@@QEBAHXZ 000000018004b368     libucrt:output.obj
 0004:00001374       $pdata$?force_decimal_point@__crt_stdio_output@@YAXPEADQEAU__crt_locale_pointers@@@Z 000000018004b374     libucrt:output.obj
 0004:00001380       $pdata$?parse_int_from_format_string@?$output_processor@DV?$string_output_adapter@D@__crt_stdio_output@@V?$standard_base@DV?$string_output_adapter@D@__crt_stdio_output@@@2@@__crt_stdio_output@@AEAA_NQEAH@Z 000000018004b380     libucrt:output.obj
 0004:0000138c       $pdata$?parse_int_from_format_string@?$output_processor@_WV?$stream_output_adapter@_W@__crt_stdio_output@@V?$standard_base@_WV?$stream_output_adapter@_W@__crt_stdio_output@@@2@@__crt_stdio_output@@AEAA_NQEAH@Z 000000018004b38c     libucrt:output.obj
 0004:0000138c       $pdata$?parse_int_from_format_string@?$output_processor@_WV?$string_output_adapter@_W@__crt_stdio_output@@V?$standard_base@_WV?$string_output_adapter@_W@__crt_stdio_output@@@2@@__crt_stdio_output@@AEAA_NQEAH@Z 000000018004b38c     libucrt:output.obj
 0004:00001398       $pdata$?process@?$output_processor@DV?$string_output_adapter@D@__crt_stdio_output@@V?$standard_base@DV?$string_output_adapter@D@__crt_stdio_output@@@2@@__crt_stdio_output@@QEAAHXZ 000000018004b398     libucrt:output.obj
 0004:000013a4       $pdata$?process@?$output_processor@_WV?$stream_output_adapter@_W@__crt_stdio_output@@V?$standard_base@_WV?$stream_output_adapter@_W@__crt_stdio_output@@@2@@__crt_stdio_output@@QEAAHXZ 000000018004b3a4     libucrt:output.obj
 0004:000013b0       $pdata$?process@?$output_processor@_WV?$string_output_adapter@_W@__crt_stdio_output@@V?$standard_base@_WV?$string_output_adapter@_W@__crt_stdio_output@@@2@@__crt_stdio_output@@QEAAHXZ 000000018004b3b0     libucrt:output.obj
 0004:000013bc       $pdata$?state_case_normal@?$output_processor@DV?$string_output_adapter@D@__crt_stdio_output@@V?$standard_base@DV?$string_output_adapter@D@__crt_stdio_output@@@2@@__crt_stdio_output@@AEAA_NXZ 000000018004b3bc     libucrt:output.obj
 0004:000013c8       $pdata$?state_case_normal_tchar@?$output_processor@DV?$string_output_adapter@D@__crt_stdio_output@@V?$standard_base@DV?$string_output_adapter@D@__crt_stdio_output@@@2@@__crt_stdio_output@@AEAA_ND@Z 000000018004b3c8     libucrt:output.obj
 0004:000013d4       $pdata$?state_case_size@?$output_processor@DV?$string_output_adapter@D@__crt_stdio_output@@V?$standard_base@DV?$string_output_adapter@D@__crt_stdio_output@@@2@@__crt_stdio_output@@AEAA_NXZ 000000018004b3d4     libucrt:output.obj
 0004:000013e0       $pdata$?state_case_size@?$output_processor@_WV?$stream_output_adapter@_W@__crt_stdio_output@@V?$standard_base@_WV?$stream_output_adapter@_W@__crt_stdio_output@@@2@@__crt_stdio_output@@AEAA_NXZ 000000018004b3e0     libucrt:output.obj
 0004:000013ec       $pdata$?state_case_size@?$output_processor@_WV?$string_output_adapter@_W@__crt_stdio_output@@V?$standard_base@_WV?$string_output_adapter@_W@__crt_stdio_output@@@2@@__crt_stdio_output@@AEAA_NXZ 000000018004b3ec     libucrt:output.obj
 0004:000013f8       $pdata$?state_case_type@?$output_processor@DV?$string_output_adapter@D@__crt_stdio_output@@V?$standard_base@DV?$string_output_adapter@D@__crt_stdio_output@@@2@@__crt_stdio_output@@AEAA_NXZ 000000018004b3f8     libucrt:output.obj
 0004:00001404       $pdata$?state_case_type@?$output_processor@_WV?$stream_output_adapter@_W@__crt_stdio_output@@V?$standard_base@_WV?$stream_output_adapter@_W@__crt_stdio_output@@@2@@__crt_stdio_output@@AEAA_NXZ 000000018004b404     libucrt:output.obj
 0004:00001410       $pdata$?state_case_type@?$output_processor@_WV?$string_output_adapter@_W@__crt_stdio_output@@V?$standard_base@_WV?$string_output_adapter@_W@__crt_stdio_output@@@2@@__crt_stdio_output@@AEAA_NXZ 000000018004b410     libucrt:output.obj
 0004:0000141c       $pdata$?type_case_Z@?$output_processor@DV?$string_output_adapter@D@__crt_stdio_output@@V?$standard_base@DV?$string_output_adapter@D@__crt_stdio_output@@@2@@__crt_stdio_output@@AEAA_NXZ 000000018004b41c     libucrt:output.obj
 0004:00001428       $pdata$?type_case_Z@?$output_processor@_WV?$stream_output_adapter@_W@__crt_stdio_output@@V?$standard_base@_WV?$stream_output_adapter@_W@__crt_stdio_output@@@2@@__crt_stdio_output@@AEAA_NXZ 000000018004b428     libucrt:output.obj
 0004:00001428       $pdata$?type_case_Z@?$output_processor@_WV?$string_output_adapter@_W@__crt_stdio_output@@V?$standard_base@_WV?$string_output_adapter@_W@__crt_stdio_output@@@2@@__crt_stdio_output@@AEAA_NXZ 000000018004b428     libucrt:output.obj
 0004:00001434       $pdata$?type_case_a@?$output_processor@DV?$string_output_adapter@D@__crt_stdio_output@@V?$standard_base@DV?$string_output_adapter@D@__crt_stdio_output@@@2@@__crt_stdio_output@@AEAA_NXZ 000000018004b434     libucrt:output.obj
 0004:00001440       $pdata$?type_case_a@?$output_processor@_WV?$string_output_adapter@_W@__crt_stdio_output@@V?$standard_base@_WV?$string_output_adapter@_W@__crt_stdio_output@@@2@@__crt_stdio_output@@AEAA_NXZ 000000018004b440     libucrt:output.obj
 0004:00001440       $pdata$?type_case_a@?$output_processor@_WV?$stream_output_adapter@_W@__crt_stdio_output@@V?$standard_base@_WV?$stream_output_adapter@_W@__crt_stdio_output@@@2@@__crt_stdio_output@@AEAA_NXZ 000000018004b440     libucrt:output.obj
 0004:0000144c       $pdata$?type_case_c_tchar@?$output_processor@DV?$string_output_adapter@D@__crt_stdio_output@@V?$standard_base@DV?$string_output_adapter@D@__crt_stdio_output@@@2@@__crt_stdio_output@@AEAA_ND@Z 000000018004b44c     libucrt:output.obj
 0004:00001458       $pdata$?type_case_c_tchar@?$output_processor@_WV?$stream_output_adapter@_W@__crt_stdio_output@@V?$standard_base@_WV?$stream_output_adapter@_W@__crt_stdio_output@@@2@@__crt_stdio_output@@AEAA_N_W@Z 000000018004b458     libucrt:output.obj
 0004:00001458       $pdata$?type_case_c_tchar@?$output_processor@_WV?$string_output_adapter@_W@__crt_stdio_output@@V?$standard_base@_WV?$string_output_adapter@_W@__crt_stdio_output@@@2@@__crt_stdio_output@@AEAA_N_W@Z 000000018004b458     libucrt:output.obj
 0004:00001464       $pdata$?type_case_integer@?$output_processor@_WV?$string_output_adapter@_W@__crt_stdio_output@@V?$standard_base@_WV?$string_output_adapter@_W@__crt_stdio_output@@@2@@__crt_stdio_output@@AEAA_NI_N@Z 000000018004b464     libucrt:output.obj
 0004:00001464       $pdata$?type_case_integer@?$output_processor@DV?$string_output_adapter@D@__crt_stdio_output@@V?$standard_base@DV?$string_output_adapter@D@__crt_stdio_output@@@2@@__crt_stdio_output@@AEAA_NI_N@Z 000000018004b464     libucrt:output.obj
 0004:00001464       $pdata$?type_case_integer@?$output_processor@_WV?$stream_output_adapter@_W@__crt_stdio_output@@V?$standard_base@_WV?$stream_output_adapter@_W@__crt_stdio_output@@@2@@__crt_stdio_output@@AEAA_NI_N@Z 000000018004b464     libucrt:output.obj
 0004:00001470       $pdata$?type_case_n@?$output_processor@DV?$string_output_adapter@D@__crt_stdio_output@@V?$standard_base@DV?$string_output_adapter@D@__crt_stdio_output@@@2@@__crt_stdio_output@@AEAA_NXZ 000000018004b470     libucrt:output.obj
 0004:00001470       $pdata$?type_case_n@?$output_processor@_WV?$string_output_adapter@_W@__crt_stdio_output@@V?$standard_base@_WV?$string_output_adapter@_W@__crt_stdio_output@@@2@@__crt_stdio_output@@AEAA_NXZ 000000018004b470     libucrt:output.obj
 0004:00001470       $pdata$?type_case_n@?$output_processor@_WV?$stream_output_adapter@_W@__crt_stdio_output@@V?$standard_base@_WV?$stream_output_adapter@_W@__crt_stdio_output@@@2@@__crt_stdio_output@@AEAA_NXZ 000000018004b470     libucrt:output.obj
 0004:0000147c       $pdata$?type_case_s@?$output_processor@DV?$string_output_adapter@D@__crt_stdio_output@@V?$standard_base@DV?$string_output_adapter@D@__crt_stdio_output@@@2@@__crt_stdio_output@@AEAA_NXZ 000000018004b47c     libucrt:output.obj
 0004:00001488       $pdata$?type_case_s@?$output_processor@_WV?$stream_output_adapter@_W@__crt_stdio_output@@V?$standard_base@_WV?$stream_output_adapter@_W@__crt_stdio_output@@@2@@__crt_stdio_output@@AEAA_NXZ 000000018004b488     libucrt:output.obj
 0004:00001488       $pdata$?type_case_s@?$output_processor@_WV?$string_output_adapter@_W@__crt_stdio_output@@V?$standard_base@_WV?$string_output_adapter@_W@__crt_stdio_output@@@2@@__crt_stdio_output@@AEAA_NXZ 000000018004b488     libucrt:output.obj
 0004:00001494       $pdata$?write_stored_string_tchar@?$output_processor@DV?$string_output_adapter@D@__crt_stdio_output@@V?$standard_base@DV?$string_output_adapter@D@__crt_stdio_output@@@2@@__crt_stdio_output@@AEAA_ND@Z 000000018004b494     libucrt:output.obj
 0004:000014a0       $pdata$?write_stored_string_tchar@?$output_processor@_WV?$stream_output_adapter@_W@__crt_stdio_output@@V?$standard_base@_WV?$stream_output_adapter@_W@__crt_stdio_output@@@2@@__crt_stdio_output@@AEAA_N_W@Z 000000018004b4a0     libucrt:output.obj
 0004:000014ac       $pdata$?write_stored_string_tchar@?$output_processor@_WV?$string_output_adapter@_W@__crt_stdio_output@@V?$standard_base@_WV?$string_output_adapter@_W@__crt_stdio_output@@@2@@__crt_stdio_output@@AEAA_N_W@Z 000000018004b4ac     libucrt:output.obj
 0004:000014b8       $pdata$?write_string@?$stream_output_adapter@_W@__crt_stdio_output@@QEBAXQEB_WHQEAH1@Z 000000018004b4b8     libucrt:output.obj
 0004:000014c4       $pdata$?write_string@?$string_output_adapter@D@__crt_stdio_output@@QEBAXQEBDHQEAH1@Z 000000018004b4c4     libucrt:output.obj
 0004:000014d0       $pdata$?write_string@?$string_output_adapter@_W@__crt_stdio_output@@QEBAXQEB_WHQEAH1@Z 000000018004b4d0     libucrt:output.obj
 0004:000014dc       $pdata$__stdio_common_vfwprintf 000000018004b4dc     libucrt:output.obj
 0004:000014e8       $pdata$__stdio_common_vsprintf 000000018004b4e8     libucrt:output.obj
 0004:000014f4       $pdata$__stdio_common_vswprintf 000000018004b4f4     libucrt:output.obj
 0004:00001500       $pdata$??$common_assert_to_message_box@_W@@YAXQEB_W0IQEAX@Z 000000018004b500     libucrt:assert.obj
 0004:0000150c       $pdata$??$common_assert_to_message_box_build_string@_W@@YAXQEA_W_KQEB_W2IQEAX@Z 000000018004b50c     libucrt:assert.obj
 0004:00001518       $pdata$??$common_assert_to_stderr@_W@@YAXQEB_W0I@Z 000000018004b518     libucrt:assert.obj
 0004:00001524       $pdata$_wassert            000000018004b524     libucrt:assert.obj
 0004:00001530       $pdata$fwprintf            000000018004b530     libucrt:assert.obj
 0004:0000153c       $pdata$swprintf            000000018004b53c     libucrt:assert.obj
 0004:00001548       $pdata$_stricmp            000000018004b548     libucrt:stricmp.obj
 0004:00001554       $pdata$_stricmp_l          000000018004b554     libucrt:stricmp.obj
 0004:00001560       $pdata$_callnewh           000000018004b560     libucrt:new_handler.obj
 0004:0000156c       $pdata$_query_new_handler  000000018004b56c     libucrt:new_handler.obj
 0004:00001578       $pdata$_seh_filter_exe     000000018004b578     libucrt:exception_filter.obj
 0004:00001584       $pdata$?common_exit@@YAXHW4_crt_exit_cleanup_mode@@W4_crt_exit_return_mode@@@Z 000000018004b584     libucrt:exit.obj
 0004:00001590       $pdata$?exit_or_terminate_process@@YAXI@Z 000000018004b590     libucrt:exit.obj
 0004:0000159c       $pdata$?try_cor_exit_process@@YAXI@Z 000000018004b59c     libucrt:exit.obj
 0004:000015a8       $pdata$??$parse_command_line@D@@YAXPEADPEAPEAD0PEA_K2@Z 000000018004b5a8     libucrt:argv_parsing.obj
 0004:000015b4       $pdata$__acrt_allocate_buffer_for_argv 000000018004b5b4     libucrt:argv_parsing.obj
 0004:000015c0       $pdata$_configure_narrow_argv 000000018004b5c0     libucrt:argv_parsing.obj
 0004:000015cc       $pdata$??$common_initialize_environment_nolock@D@@YAHXZ 000000018004b5cc     libucrt:environment_initialization.obj
 0004:000015d8       $pdata$??$create_environment@D@@YAQEAPEADQEAD@Z 000000018004b5d8     libucrt:environment_initialization.obj
 0004:000015e4       $pdata$??$free_environment@_W@@YAXQEAPEA_W@Z 000000018004b5e4     libucrt:environment_initialization.obj
 0004:000015e4       $pdata$??$free_environment@D@@YAXQEAPEAD@Z 000000018004b5e4     libucrt:environment_initialization.obj
 0004:000015f0       $pdata$??$uninitialize_environment_internal@D@@YAXAEAPEAPEAD@Z 000000018004b5f0     libucrt:environment_initialization.obj
 0004:000015fc       $pdata$??$uninitialize_environment_internal@_W@@YAXAEAPEAPEA_W@Z 000000018004b5fc     libucrt:environment_initialization.obj
 0004:00001608       $pdata$__dcrt_uninitialize_environments_nolock 000000018004b608     libucrt:environment_initialization.obj
 0004:00001614       $pdata$??$?RV<lambda_b8c45f8f788dd370798f47cfe8ac3a86>@@AEAV<lambda_4e60a939b0d047cfe11ddc22648dfba9>@@V<lambda_332c3edc96d0294ec56c57d38c1cdfd5>@@@?$__crt_seh_guarded_call@H@@QEAAH$$QEAV<lambda_b8c45f8f788dd370798f47cfe8ac3a86>@@AEAV<lambda_4e60a939b0d047cfe11ddc22648dfba9>@@$$QEAV<lambda_332c3edc96d0294ec56c57d38c1cdfd5>@@@Z 000000018004b614     libucrt:onexit.obj
 0004:00001620       $pdata$??$?RV<lambda_e24bbb7b643b32fcea6fa61b31d4c984>@@AEAV<lambda_275893d493268fdec8709772e3fcec0e>@@V<lambda_9d71df4d7cf3f480f8d633942495c3b0>@@@?$__crt_seh_guarded_call@H@@QEAAH$$QEAV<lambda_e24bbb7b643b32fcea6fa61b31d4c984>@@AEAV<lambda_275893d493268fdec8709772e3fcec0e>@@$$QEAV<lambda_9d71df4d7cf3f480f8d633942495c3b0>@@@Z 000000018004b620     libucrt:onexit.obj
 0004:0000162c       $pdata$??R<lambda_4e60a939b0d047cfe11ddc22648dfba9>@@QEBAHXZ 000000018004b62c     libucrt:onexit.obj
 0004:00001638       $pdata$_execute_onexit_table 000000018004b638     libucrt:onexit.obj
 0004:00001644       $pdata$_register_onexit_function 000000018004b644     libucrt:onexit.obj
 0004:00001650       $pdata$initialize_c        000000018004b650     libucrt:initialization.obj
 0004:0000165c       $pdata$uninitialize_environment 000000018004b65c     libucrt:initialization.obj
 0004:00001668       $pdata$initialize_pointers 000000018004b668     libucrt:initialization.obj
 0004:00001674       $pdata$uninitialize_allocated_memory 000000018004b674     libucrt:initialization.obj
 0004:00001680       $pdata$__acrt_thread_attach 000000018004b680     libucrt:initialization.obj
 0004:0000168c       $pdata$__acrt_thread_detach 000000018004b68c     libucrt:initialization.obj
 0004:00001698       $pdata$__acrt_uninitialize_critical 000000018004b698     libucrt:initialization.obj
 0004:000016a4       $pdata$_initterm           000000018004b6a4     libucrt:initterm.obj
 0004:000016b0       $pdata$_initterm_e         000000018004b6b0     libucrt:initterm.obj
 0004:000016bc       $pdata$terminate           000000018004b6bc     libucrt:terminate.obj
 0004:000016c8       $pdata$strcpy_s            000000018004b6c8     libucrt:strcpy_s.obj
 0004:000016d4       $pdata$_free_base          000000018004b6d4     libucrt:free_base.obj
 0004:000016e0       $pdata$_malloc_base        000000018004b6e0     libucrt:malloc_base.obj
 0004:000016ec       $pdata$abort               000000018004b6ec     libucrt:abort.obj
 0004:000016f8       $pdata$_calloc_base        000000018004b6f8     libucrt:calloc_base.obj
 0004:00001704       $pdata$??$parse_integer@KV?$c_string_character_source@D@__crt_strtox@@@__crt_strtox@@YAKQEAU__crt_locale_pointers@@V?$c_string_character_source@D@0@H_N@Z 000000018004b704     libucrt:atox.obj
 0004:00001710       $pdata$??$parse_integer@KV?$c_string_character_source@_W@__crt_strtox@@@__crt_strtox@@YAKQEAU__crt_locale_pointers@@V?$c_string_character_source@_W@0@H_N@Z 000000018004b710     libucrt:atox.obj
 0004:0000171c       $pdata$??$?RV<lambda_46352004c1216016012b18bd6f87e700>@@AEAV<lambda_3bd07e1a1191394380780325891bf33f>@@V<lambda_334532d3f185bcaa59b5be82d7d22bff>@@@?$__crt_seh_guarded_call@X@@QEAAX$$QEAV<lambda_46352004c1216016012b18bd6f87e700>@@AEAV<lambda_3bd07e1a1191394380780325891bf33f>@@$$QEAV<lambda_334532d3f185bcaa59b5be82d7d22bff>@@@Z 000000018004b71c     libucrt:per_thread_data.obj
 0004:00001728       $pdata$??$?RV<lambda_5e887d1dcbef67a5eb4283622ba103bf>@@AEAV<lambda_4466841279450cc726390878d4a41900>@@V<lambda_341c25c0346d94847f1f3c463c57e077>@@@?$__crt_seh_guarded_call@X@@QEAAX$$QEAV<lambda_5e887d1dcbef67a5eb4283622ba103bf>@@AEAV<lambda_4466841279450cc726390878d4a41900>@@$$QEAV<lambda_341c25c0346d94847f1f3c463c57e077>@@@Z 000000018004b728     libucrt:per_thread_data.obj
 0004:00001734       $pdata$??$?RV<lambda_72d1df2b273a38828b1ce30cbf4cdab5>@@AEAV<lambda_876a65b173b8412d3a47c70a915b0cf4>@@V<lambda_41932305e351933ebe8f8be3ed8bb5dc>@@@?$__crt_seh_guarded_call@X@@QEAAX$$QEAV<lambda_72d1df2b273a38828b1ce30cbf4cdab5>@@AEAV<lambda_876a65b173b8412d3a47c70a915b0cf4>@@$$QEAV<lambda_41932305e351933ebe8f8be3ed8bb5dc>@@@Z 000000018004b734     libucrt:per_thread_data.obj
 0004:00001740       $pdata$??$?RV<lambda_fb3a7dec4e47f37f22dae91bb15c9095>@@AEAV<lambda_698284760c8add0bfb0756c19673e34b>@@V<lambda_dfb8eca1e75fef3034a8fb18dd509707>@@@?$__crt_seh_guarded_call@X@@QEAAX$$QEAV<lambda_fb3a7dec4e47f37f22dae91bb15c9095>@@AEAV<lambda_698284760c8add0bfb0756c19673e34b>@@$$QEAV<lambda_dfb8eca1e75fef3034a8fb18dd509707>@@@Z 000000018004b740     libucrt:per_thread_data.obj
 0004:0000174c       $pdata$?construct_ptd_array@@YAXQEAU__acrt_ptd@@@Z 000000018004b74c     libucrt:per_thread_data.obj
 0004:00001758       $pdata$?destroy_fls@@YAXPEAX@Z 000000018004b758     libucrt:per_thread_data.obj
 0004:00001764       $pdata$?destroy_ptd_array@@YAXQEAU__acrt_ptd@@@Z 000000018004b764     libucrt:per_thread_data.obj
 0004:00001770       $pdata$?replace_current_thread_locale_nolock@@YAXQEAU__acrt_ptd@@QEAU__crt_locale_data@@@Z 000000018004b770     libucrt:per_thread_data.obj
 0004:0000177c       $pdata$__acrt_freeptd      000000018004b77c     libucrt:per_thread_data.obj
 0004:00001788       $pdata$__acrt_getptd       000000018004b788     libucrt:per_thread_data.obj
 0004:00001794       $pdata$__acrt_getptd_noexit 000000018004b794     libucrt:per_thread_data.obj
 0004:000017a0       $pdata$__acrt_initialize_ptd 000000018004b7a0     libucrt:per_thread_data.obj
 0004:000017ac       $pdata$__acrt_uninitialize_ptd 000000018004b7ac     libucrt:per_thread_data.obj
 0004:000017b8       $pdata$isdigit             000000018004b7b8     libucrt:_ctype.obj
 0004:000017c4       $pdata$?internal_isupper_l@@YA_NHQEAU__crt_locale_pointers@@@Z 000000018004b7c4     libucrt:tolower_toupper.obj
 0004:000017d0       $pdata$_tolower_l          000000018004b7d0     libucrt:tolower_toupper.obj
 0004:000017dc       $pdata$tolower             000000018004b7dc     libucrt:tolower_toupper.obj
 0004:000017e8       $pdata$__acrt_errno_map_os_error 000000018004b7e8     libucrt:errno.obj
 0004:000017f4       $pdata$__doserrno          000000018004b7f4     libucrt:errno.obj
 0004:00001800       $pdata$_errno              000000018004b800     libucrt:errno.obj
 0004:0000180c       $pdata$strtol              000000018004b80c     libucrt:strtox.obj
 0004:00001818       $pdata$wcstol              000000018004b818     libucrt:strtox.obj
 0004:00001824       $pdata$_mbtowc_l           000000018004b824     libucrt:mbtowc.obj
 0004:00001830       $pdata$_wctomb_s_l         000000018004b830     libucrt:wctomb.obj
 0004:0000183c       $pdata$wctomb_s            000000018004b83c     libucrt:wctomb.obj
 0004:00001848       $pdata$strnlen             000000018004b848     libucrt:strnlen.obj
 0004:00001854       $pdata$wcsnlen             000000018004b854     libucrt:strnlen.obj
 0004:00001860       $pdata$__acrt_update_locale_info 000000018004b860     libucrt:locale_update.obj
 0004:0000186c       $pdata$__acrt_update_multibyte_info 000000018004b86c     libucrt:locale_update.obj
 0004:00001878       $pdata$?fp_format_a@@YAHQEBNPEAD_KQEAD2H_NIQEAU__crt_locale_pointers@@@Z 000000018004b878     libucrt:cvt.obj
 0004:00001884       $pdata$?fp_format_e@@YAHQEBNQEAD_K12H_NIQEAU__crt_locale_pointers@@@Z 000000018004b884     libucrt:cvt.obj
 0004:00001890       $pdata$?fp_format_e_internal@@YAHQEAD_KH_NIQEAU_strflt@@2QEAU__crt_locale_pointers@@@Z 000000018004b890     libucrt:cvt.obj
 0004:0000189c       $pdata$?fp_format_f_internal@@YAHQEAD_KHQEAU_strflt@@_NQEAU__crt_locale_pointers@@@Z 000000018004b89c     libucrt:cvt.obj
 0004:000018a8       $pdata$?fp_format_g@@YAHQEBNQEAD_K12H_NIQEAU__crt_locale_pointers@@@Z 000000018004b8a8     libucrt:cvt.obj
 0004:000018b4       $pdata$?fp_format_nan_or_infinity@@YAHW4__acrt_fp_class@@_NPEAD_K1@Z 000000018004b8b4     libucrt:cvt.obj
 0004:000018c0       $pdata$__acrt_fp_format    000000018004b8c0     libucrt:cvt.obj
 0004:000018cc       $pdata$_fputwc_nolock      000000018004b8cc     libucrt:fputwc.obj
 0004:000018d8       $pdata$_fileno             000000018004b8d8     libucrt:fileno.obj
 0004:000018e4       $pdata$__acrt_initialize_stdio 000000018004b8e4     libucrt:_file.obj
 0004:000018f0       $pdata$__acrt_uninitialize_stdio 000000018004b8f0     libucrt:_file.obj
 0004:000018fc       $pdata$__acrt_stdio_begin_temporary_buffering_nolock 000000018004b8fc     libucrt:_sftbuf.obj
 0004:00001908       $pdata$__acrt_stdio_end_temporary_buffering_nolock 000000018004b908     libucrt:_sftbuf.obj
 0004:00001914       $pdata$__acrt_uninitialize_locale 000000018004b914     libucrt:wsetlocale.obj
 0004:00001920       $pdata$?initialize_inherited_file_handles_nolock@@YAXXZ 000000018004b920     libucrt:ioinit.obj
 0004:0000192c       $pdata$?initialize_stdio_handles_nolock@@YAXXZ 000000018004b92c     libucrt:ioinit.obj
 0004:00001938       $pdata$__acrt_initialize_lowio 000000018004b938     libucrt:ioinit.obj
 0004:00001944       $pdata$__acrt_uninitialize_lowio 000000018004b944     libucrt:ioinit.obj
 0004:00001950       $pdata$??$common_xtox@K_W@@YAHKQEA_W_KI_N@Z 000000018004b950     libucrt:xtoa.obj
 0004:0000195c       $pdata$??$common_xtox_s@K_W@@YAHKQEA_W_KI_N@Z 000000018004b95c     libucrt:xtoa.obj
 0004:00001968       $pdata$_itow_s             000000018004b968     libucrt:xtoa.obj
 0004:00001974       $pdata$_set_error_mode     000000018004b974     libucrt:set_error_mode.obj
 0004:00001980       $pdata$wcscat_s            000000018004b980     libucrt:wcscat_s.obj
 0004:0000198c       $pdata$wcscpy_s            000000018004b98c     libucrt:wcscpy_s.obj
 0004:00001998       $pdata$wcsncat_s           000000018004b998     libucrt:wcsncat_s.obj
 0004:000019a4       $pdata$??$message_box_wait_thread@_W@@YAKQEAX@Z 000000018004b9a4     libucrt:crtmbox.obj
 0004:000019b0       $pdata$__acrt_show_wide_message_box 000000018004b9b0     libucrt:crtmbox.obj
 0004:000019bc       $pdata$__acrt_stdio_flush_nolock 000000018004b9bc     libucrt:fflush.obj
 0004:000019c8       $pdata$_fflush_nolock      000000018004b9c8     libucrt:fflush.obj
 0004:000019d4       $pdata$common_flush_all    000000018004b9d4     libucrt:fflush.obj
 0004:000019e0       $pdata$fflush              000000018004b9e0     libucrt:fflush.obj
 0004:000019ec       $pdata$??$?RV<lambda_7a5ef57ff966f610505f1d28a3d40618>@@AEAV<lambda_b721fa326cdb32351d23dfa67958c160>@@V<lambda_5e0fb27672408a07956fe59e48ccb2aa>@@@?$__crt_seh_guarded_call@H@@QEAAH$$QEAV<lambda_7a5ef57ff966f610505f1d28a3d40618>@@AEAV<lambda_b721fa326cdb32351d23dfa67958c160>@@$$QEAV<lambda_5e0fb27672408a07956fe59e48ccb2aa>@@@Z 000000018004b9ec     libucrt:setvbuf.obj
 0004:000019f8       $pdata$??R<lambda_b721fa326cdb32351d23dfa67958c160>@@QEBAHXZ 000000018004b9f8     libucrt:setvbuf.obj
 0004:00001a04       $pdata$setvbuf             000000018004ba04     libucrt:setvbuf.obj
 0004:00001a10       $pdata$??$?RV<lambda_c36588078e9f5dfd39652860aa6b3aaf>@@AEAV<lambda_ec61778202f4f5fc7e7711acc23c3bca>@@V<lambda_dc9d2797ccde5d239b4a0efae8ebd7db>@@@?$__crt_seh_guarded_call@P6AXH@Z@@QEAAP6AXH@Z$$QEAV<lambda_c36588078e9f5dfd39652860aa6b3aaf>@@AEAV<lambda_ec61778202f4f5fc7e7711acc23c3bca>@@$$QEAV<lambda_dc9d2797ccde5d239b4a0efae8ebd7db>@@@Z 000000018004ba10     libucrt:signal.obj
 0004:00001a1c       $pdata$__acrt_get_sigabrt_handler 000000018004ba1c     libucrt:signal.obj
 0004:00001a28       $pdata$raise               000000018004ba28     libucrt:signal.obj
 0004:00001a34       $pdata$__acrt_initialize_locks 000000018004ba34     libucrt:locks.obj
 0004:00001a40       $pdata$__acrt_uninitialize_locks 000000018004ba40     libucrt:locks.obj
 0004:00001a4c       $pdata$?try_get_function@@YAPEAXW4function_id@?A0x63058377@@QEBDQEBW4module_id@2@2@Z 000000018004ba4c     libucrt:winapi_thunks.obj
 0004:00001a58       $pdata$__acrt_FlsAlloc     000000018004ba58     libucrt:winapi_thunks.obj
 0004:00001a64       $pdata$__acrt_FlsFree      000000018004ba64     libucrt:winapi_thunks.obj
 0004:00001a70       $pdata$__acrt_FlsGetValue  000000018004ba70     libucrt:winapi_thunks.obj
 0004:00001a7c       $pdata$__acrt_FlsSetValue  000000018004ba7c     libucrt:winapi_thunks.obj
 0004:00001a88       $pdata$__acrt_InitializeCriticalSectionEx 000000018004ba88     libucrt:winapi_thunks.obj
 0004:00001a94       $pdata$__acrt_LCMapStringEx 000000018004ba94     libucrt:winapi_thunks.obj
 0004:00001aa0       $pdata$__acrt_LocaleNameToLCID 000000018004baa0     libucrt:winapi_thunks.obj
 0004:00001aac       $pdata$__acrt_MessageBoxW  000000018004baac     libucrt:winapi_thunks.obj
 0004:00001ab8       $pdata$__acrt_can_show_message_box 000000018004bab8     libucrt:winapi_thunks.obj
 0004:00001ac4       $pdata$__acrt_get_parent_window 000000018004bac4     libucrt:winapi_thunks.obj
 0004:00001ad0       $pdata$__acrt_initialize_winapi_thunks 000000018004bad0     libucrt:winapi_thunks.obj
 0004:00001adc       $pdata$__acrt_is_interactive 000000018004badc     libucrt:winapi_thunks.obj
 0004:00001ae8       $pdata$__acrt_is_packaged_app 000000018004bae8     libucrt:winapi_thunks.obj
 0004:00001af4       $pdata$__acrt_uninitialize_winapi_thunks 000000018004baf4     libucrt:winapi_thunks.obj
 0004:00001b00       $pdata$??$common_expand_argv_wildcards@D@@YAHQEAPEADQEAPEAPEAD@Z 000000018004bb00     libucrt:argv_wildcards.obj
 0004:00001b0c       $pdata$??$copy_and_add_argument_to_buffer@D@@YAHQEBD0_KAEAV?$argument_list@D@?A0xca0879c4@@@Z 000000018004bb0c     libucrt:argv_wildcards.obj
 0004:00001b18       $pdata$??$expand_argument_wildcards@D@@YAHQEAD0AEAV?$argument_list@D@?A0xca0879c4@@@Z 000000018004bb18     libucrt:argv_wildcards.obj
 0004:00001b24       $pdata$?expand_if_necessary@?$argument_list@D@?A0xca0879c4@@AEAAHXZ 000000018004bb24     libucrt:argv_wildcards.obj
 0004:00001b30       $pdata$??$?RV<lambda_99476a1ad63dd22509b5d3e65b0ffc95>@@AEAV<lambda_ad1ced32f4ac17aa236e5ef05d6b3b7c>@@V<lambda_f7424dd8d45958661754dc4f2697e9c3>@@@?$__crt_seh_guarded_call@X@@QEAAX$$QEAV<lambda_99476a1ad63dd22509b5d3e65b0ffc95>@@AEAV<lambda_ad1ced32f4ac17aa236e5ef05d6b3b7c>@@$$QEAV<lambda_f7424dd8d45958661754dc4f2697e9c3>@@@Z 000000018004bb30     libucrt:mbctype.obj
 0004:00001b3c       $pdata$??R<lambda_ad1ced32f4ac17aa236e5ef05d6b3b7c>@@QEBAXXZ 000000018004bb3c     libucrt:mbctype.obj
 0004:00001b48       $pdata$?getSystemCP@@YAHH@Z 000000018004bb48     libucrt:mbctype.obj
 0004:00001b54       $pdata$?setSBCS@@YAXPEAU__crt_multibyte_data@@@Z 000000018004bb54     libucrt:mbctype.obj
 0004:00001b60       $pdata$?setSBUpLow@@YAXPEAU__crt_multibyte_data@@@Z 000000018004bb60     libucrt:mbctype.obj
 0004:00001b6c       $pdata$?setmbcp_internal@@YAHH_N@Z 000000018004bb6c     libucrt:mbctype.obj
 0004:00001b78       $pdata$__acrt_initialize_multibyte 000000018004bb78     libucrt:mbctype.obj
 0004:00001b84       $pdata$__acrt_update_thread_multibyte_data 000000018004bb84     libucrt:mbctype.obj
 0004:00001b90       $pdata$_setmbcp_nolock     000000018004bb90     libucrt:mbctype.obj
 0004:00001b9c       $pdata$?x_ismbbtype_l@@YAHPEAU__crt_locale_pointers@@IHH@Z 000000018004bb9c     libucrt:ismbbyte.obj
 0004:00001ba8       $pdata$__acrt_initialize_command_line 000000018004bba8     libucrt:argv_data.obj
 0004:00001bb4       $pdata$__dcrt_get_narrow_environment_from_os 000000018004bbb4     libucrt:get_environment_from_os.obj
 0004:00001bc0       $pdata$_recalloc_base      000000018004bbc0     libucrt:recalloc.obj
 0004:00001bcc       $pdata$__acrt_initialize_heap 000000018004bbcc     libucrt:heap_handle.obj
 0004:00001bd8       $pdata$__acrt_execute_initializers 000000018004bbd8     libucrt:shared_initialization.obj
 0004:00001be4       $pdata$__acrt_execute_uninitializers 000000018004bbe4     libucrt:shared_initialization.obj
 0004:00001bf0       $pdata$__acrt_invoke_user_matherr 000000018004bbf0     libucrt:matherr.obj
 0004:00001bfc       $pdata$__pctype_func       000000018004bbfc     libucrt:ctype.obj
 0004:00001c08       $pdata$iswctype            000000018004bc08     libucrt:iswctype.obj
 0004:00001c14       $pdata$_isctype_l          000000018004bc14     libucrt:isctype.obj
 0004:00001c20       $pdata$__acrt_free_locale  000000018004bc20     libucrt:locale_refcounting.obj
 0004:00001c2c       $pdata$__acrt_locale_free_lc_time_if_unreferenced 000000018004bc2c     libucrt:locale_refcounting.obj
 0004:00001c38       $pdata$__acrt_release_locale_ref 000000018004bc38     libucrt:locale_refcounting.obj
 0004:00001c44       $pdata$__acrt_update_thread_locale_data 000000018004bc44     libucrt:locale_refcounting.obj
 0004:00001c50       $pdata$_updatetlocinfoEx_nolock 000000018004bc50     libucrt:locale_refcounting.obj
 0004:00001c5c       $pdata$_isleadbyte_l       000000018004bc5c     libucrt:_wctype.obj
 0004:00001c68       $pdata$?__acrt_LCMapStringA_stat@@YAHPEAU__crt_locale_pointers@@PEB_WKPEBDHPEADHHH@Z 000000018004bc68     libucrt:lcmapstringa.obj
 0004:00001c74       $pdata$__acrt_LCMapStringA 000000018004bc74     libucrt:lcmapstringa.obj
 0004:00001c80       $pdata$__acrt_fp_strflt_to_string 000000018004bc80     libucrt:_fptostr.obj
 0004:00001c8c       $pdata$?divide@__crt_strtox@@YA_KAEAUbig_integer@1@AEBU21@@Z 000000018004bc8c     libucrt:cfout.obj
 0004:00001c98       $pdata$5$?divide@__crt_strtox@@YA_KAEAUbig_integer@1@AEBU21@@Z 000000018004bc98     libucrt:cfout.obj
 0004:00001ca4       $pdata$6$?divide@__crt_strtox@@YA_KAEAUbig_integer@1@AEBU21@@Z 000000018004bca4     libucrt:cfout.obj
 0004:00001cb0       $pdata$__acrt_fltout       000000018004bcb0     libucrt:cfout.obj
 0004:00001cbc       $pdata$memcpy_s            000000018004bcbc     libucrt:cfout.obj
 0004:00001cc8       $pdata$??$write_buffer_nolock@D@@YA_NDV__crt_stdio_stream@@@Z 000000018004bcc8     libucrt:_flsbuf.obj
 0004:00001cd4       $pdata$??$write_buffer_nolock@_W@@YA_N_WV__crt_stdio_stream@@@Z 000000018004bcd4     libucrt:_flsbuf.obj
 0004:00001ce0       $pdata$__acrt_stdio_flush_and_write_narrow_nolock 000000018004bce0     libucrt:_flsbuf.obj
 0004:00001cec       $pdata$__acrt_stdio_flush_and_write_wide_nolock 000000018004bcec     libucrt:_flsbuf.obj
 0004:00001cf8       $pdata$_fcloseall          000000018004bcf8     libucrt:closeall.obj
 0004:00001d04       $pdata$__acrt_stdio_free_buffer_nolock 000000018004bd04     libucrt:_freebuf.obj
 0004:00001d10       $pdata$_isatty             000000018004bd10     libucrt:isatty.obj
 0004:00001d1c       $pdata$__acrt_locale_free_monetary 000000018004bd1c     libucrt:initmon.obj
 0004:00001d28       $pdata$__acrt_locale_free_numeric 000000018004bd28     libucrt:initnum.obj
 0004:00001d34       $pdata$?free_crt_array_internal@@YAXQEAPEBX_K@Z 000000018004bd34     libucrt:inittime.obj
 0004:00001d40       $pdata$__acrt_locale_free_time 000000018004bd40     libucrt:inittime.obj
 0004:00001d4c       $pdata$__acrt_GetStringTypeA 000000018004bd4c     libucrt:getstringtypea.obj
 0004:00001d58       $pdata$__acrt_lowio_create_handle_array 000000018004bd58     libucrt:osfinfo.obj
 0004:00001d64       $pdata$__acrt_lowio_destroy_handle_array 000000018004bd64     libucrt:osfinfo.obj
 0004:00001d70       $pdata$__acrt_lowio_ensure_fh_exists 000000018004bd70     libucrt:osfinfo.obj
 0004:00001d7c       $pdata$_free_osfhnd        000000018004bd7c     libucrt:osfinfo.obj
 0004:00001d88       $pdata$_get_osfhandle      000000018004bd88     libucrt:osfinfo.obj
 0004:00001d94       $pdata$??$?RV<lambda_b521505b218e5242e90febf6bfebc422>@@AEAV<lambda_6978c1fb23f02e42e1d9e99668cc68aa>@@V<lambda_314360699dd331753a4119843814e9a7>@@@?$__crt_seh_guarded_call@H@@QEAAH$$QEAV<lambda_b521505b218e5242e90febf6bfebc422>@@AEAV<lambda_6978c1fb23f02e42e1d9e99668cc68aa>@@$$QEAV<lambda_314360699dd331753a4119843814e9a7>@@@Z 000000018004bd94     libucrt:commit.obj
 0004:00001da0       $pdata$_commit             000000018004bda0     libucrt:commit.obj
 0004:00001dac       $pdata$?write_double_translated_ansi_nolock@@YA?AUwrite_result@?A0x9c548279@@HQEBDI@Z 000000018004bdac     libucrt:write.obj
 0004:00001db8       $pdata$?write_text_ansi_nolock@@YA?AUwrite_result@?A0x9c548279@@HQEBDI@Z 000000018004bdb8     libucrt:write.obj
 0004:00001dc4       $pdata$?write_text_utf16le_nolock@@YA?AUwrite_result@?A0x9c548279@@HQEBDI@Z 000000018004bdc4     libucrt:write.obj
 0004:00001dd0       $pdata$?write_text_utf8_nolock@@YA?AUwrite_result@?A0x9c548279@@HQEBDI@Z 000000018004bdd0     libucrt:write.obj
 0004:00001ddc       $pdata$_write              000000018004bddc     libucrt:write.obj
 0004:00001de8       $pdata$_write_nolock       000000018004bde8     libucrt:write.obj
 0004:00001df4       $pdata$?GetTableIndexFromLocaleName@@YAHPEB_W@Z 000000018004bdf4     libucrt:lcidtoname_downlevel.obj
 0004:00001e00       $pdata$__acrt_DownlevelLocaleNameToLCID 000000018004be00     libucrt:lcidtoname_downlevel.obj
 0004:00001e0c       $pdata$?shortsort@@YAXPEAD0_KP6AHPEBX2@Z@Z 000000018004be0c     libucrt:qsort.obj
 0004:00001e18       $pdata$2$?shortsort@@YAXPEAD0_KP6AHPEBX2@Z@Z 000000018004be18     libucrt:qsort.obj
 0004:00001e24       $pdata$3$?shortsort@@YAXPEAD0_KP6AHPEBX2@Z@Z 000000018004be24     libucrt:qsort.obj
 0004:00001e30       $pdata$qsort               000000018004be30     libucrt:qsort.obj
 0004:00001e3c       $pdata$4$qsort             000000018004be3c     libucrt:qsort.obj
 0004:00001e48       $pdata$5$qsort             000000018004be48     libucrt:qsort.obj
 0004:00001e54       $pdata$strncpy_s           000000018004be54     libucrt:strncpy_s.obj
 0004:00001e60       $pdata$strpbrk             000000018004be60     libucrt:strpbrk.obj
 0004:00001e6c       $pdata$_mbsdec_l           000000018004be6c     libucrt:mbsdec.obj
 0004:00001e78       $pdata$?initialize_multibyte@@YAHXZ 000000018004be78     libucrt:multibyte_initializer.obj
 0004:00001e84       $pdata$_msize              000000018004be84     libucrt:msize.obj
 0004:00001e90       $pdata$_realloc_base       000000018004be90     libucrt:realloc_base.obj
 0004:00001e9c       $pdata$fegetenv            000000018004be9c     libucrt:fegetenv.obj
 0004:00001ea8       $pdata$fesetenv            000000018004bea8     libucrt:fesetenv.obj
 0004:00001eb4       $pdata$feholdexcept        000000018004beb4     libucrt:feholdexcept.obj
 0004:00001ecc       $pdata$??$common_lseek@_J@@YA_JH_JH@Z 000000018004becc     libucrt:lseek.obj
 0004:00001ed8       $pdata$??$common_lseek_nolock@_J@@YA_JH_JH@Z 000000018004bed8     libucrt:lseek.obj
 0004:00001ee4       $pdata$__acrt_stdio_allocate_buffer_nolock 000000018004bee4     libucrt:_getbuf.obj
 0004:00001ef0       $pdata$_fclose_nolock      000000018004bef0     libucrt:fclose.obj
 0004:00001efc       $pdata$fclose              000000018004befc     libucrt:fclose.obj
 0004:00001f08       $pdata$_putwch_nolock      000000018004bf08     libucrt:putwch.obj
 0004:00001f14       $pdata$_getfpcontrolword   000000018004bf14     libucrt:_fenvutils.obj
 0004:00001f20       $pdata$_getfpstatusword    000000018004bf20     libucrt:_fenvutils.obj
 0004:00001f2c       $pdata$_setfpstatusword    000000018004bf2c     libucrt:_fenvutils.obj
 0004:00001f38       $pdata$_clearfp            000000018004bf38     libucrt:ieee.obj
 0004:00001f44       $pdata$common_control87    000000018004bf44     libucrt:ieee.obj
 0004:00001f50       $pdata$_call_matherr       000000018004bf50     libucrt:libm_error.obj
 0004:00001f5c       $pdata$_exception_enabled  000000018004bf5c     libucrt:libm_error.obj
 0004:00001f68       $pdata$_handle_error       000000018004bf68     libucrt:libm_error.obj
 0004:00001f74       $pdata$_handle_errorf      000000018004bf74     libucrt:libm_error.obj
 0004:00001f80       $pdata$__acrt_initialize_fma3 000000018004bf80     libucrt:fma3_available.obj
 0004:00001f8c       $pdata$_log10_special      000000018004bf8c     libucrt:log_special.obj
 0004:00001f98       $pdata$_log_special_common 000000018004bf98     libucrt:log_special.obj
 0004:00001fa4       $pdata$??$?RV<lambda_bfedae4ebbf01fab1bb6dcc6a9e276e0>@@AEAV<lambda_2fe9b910cf3cbf4a0ab98a02ba45b3ec>@@V<lambda_237c231691f317818eb88cc1d5d642d6>@@@?$__crt_seh_guarded_call@H@@QEAAH$$QEAV<lambda_bfedae4ebbf01fab1bb6dcc6a9e276e0>@@AEAV<lambda_2fe9b910cf3cbf4a0ab98a02ba45b3ec>@@$$QEAV<lambda_237c231691f317818eb88cc1d5d642d6>@@@Z 000000018004bfa4     libucrt:close.obj
 0004:00001fb0       $pdata$_close              000000018004bfb0     libucrt:close.obj
 0004:00001fbc       $pdata$_close_nolock       000000018004bfbc     libucrt:close.obj
 0004:00001fc8       $pdata$__dcrt_lowio_initialize_console_output 000000018004bfc8     libucrt:initcon.obj
 0004:00001fd4       $pdata$__dcrt_terminate_console_output 000000018004bfd4     libucrt:initcon.obj
 0004:00001fec       $pdata$_raise_exc          000000018004bfec     libucrt:fpexcept.obj
 0004:00001ff8       $pdata$_raise_exc_ex       000000018004bff8     libucrt:fpexcept.obj
 0004:00002004       $pdata$_raise_excf         000000018004c004     libucrt:fpexcept.obj
 0004:00002010       $pdata$_set_errno_from_matherr 000000018004c010     libucrt:fpexcept.obj
 0004:0000201c       $pdata$_clrfp              000000018004c01c     libucrt:fpctrl.obj
 0004:00002028       $pdata$_ctrlfp             000000018004c028     libucrt:fpctrl.obj
 0004:00002034       $pdata$_set_statfp         000000018004c034     libucrt:fpctrl.obj
 0004:00002040       $pdata$_statfp             000000018004c040     libucrt:fpctrl.obj
 0004:0000204c       $pdata$?DloadAcquireSectionWriteAccess@@YAXXZ 000000018004c04c     DelayImp:delayhlp.obj
 0004:00002058       $pdata$?DloadGetSRWLockFunctionPointers@@YAEXZ 000000018004c058     DelayImp:delayhlp.obj
 0004:00002064       $pdata$?DloadMakePermanentImageCommit@@YAXPEAX_K@Z 000000018004c064     DelayImp:delayhlp.obj
 0004:00002070       $pdata$?DloadObtainSection@@YAPEAXPEAK0@Z 000000018004c070     DelayImp:delayhlp.obj
 0004:0000207c       $pdata$?DloadProtectSection@@YAXKPEAK@Z 000000018004c07c     DelayImp:delayhlp.obj
 0004:00002088       $pdata$?DloadReleaseSectionWriteAccess@@YAXXZ 000000018004c088     DelayImp:delayhlp.obj
 0004:00002094       $pdata$__delayLoadHelper2  000000018004c094     DelayImp:delayhlp.obj
 0004:000020a0       $pdata$_IsNonwritableInCurrentImage 000000018004c0a0     LIBCMT:pesect.obj
 0004:000020ac       $pdata$__GSHandlerCheck    000000018004c0ac     LIBCMT:_gshandler_.obj
 0004:000020b8       $pdata$__GSHandlerCheckCommon 000000018004c0b8     LIBCMT:_gshandler_.obj
 0004:000020d0       $pdata$strrchr             000000018004c0d0     libvcruntime:strrchr.obj
 0004:000020e8       $pdata$?_ExecutionInCatch@@YAHPEAU_xDISPATCHER_CONTEXT@@PEBU_s_FuncInfo@@@Z 000000018004c0e8     libvcruntime:trnsctrl.obj
 0004:000020f4       $pdata$?_GetEstablisherFrame@@YAPEA_KPEA_KPEAU_xDISPATCHER_CONTEXT@@PEBU_s_FuncInfo@@0@Z 000000018004c0f4     libvcruntime:trnsctrl.obj
 0004:00002100       $pdata$?_GetRangeOfTrysToCheck@@YAPEBU_s_TryBlockMapEntry@@PEA_KPEBU_s_FuncInfo@@HHPEAI2PEAU_xDISPATCHER_CONTEXT@@@Z 000000018004c100     libvcruntime:trnsctrl.obj
 0004:0000210c       $pdata$?__FrameUnwindToEmptyState@@YAXPEA_KPEAU_xDISPATCHER_CONTEXT@@PEBU_s_FuncInfo@@@Z 000000018004c10c     libvcruntime:trnsctrl.obj
 0004:00002118       $pdata$?__SehTransFilter@@YAHPEAU_EXCEPTION_POINTERS@@PEAUEHExceptionRecord@@PEA_KPEAU_CONTEXT@@PEAU_xDISPATCHER_CONTEXT@@PEBU_s_FuncInfo@@PEAH@Z 000000018004c118     libvcruntime:trnsctrl.obj
 0004:00002124       $pdata$_CallSETranslator   000000018004c124     libvcruntime:trnsctrl.obj
 0004:00002130       $pdata$_CreateFrameInfo    000000018004c130     libvcruntime:trnsctrl.obj
 0004:0000213c       $pdata$_FindAndUnlinkFrame 000000018004c13c     libvcruntime:trnsctrl.obj
 0004:00002148       $pdata$_GetImageBase       000000018004c148     libvcruntime:trnsctrl.obj
 0004:00002154       $pdata$_GetThrowImageBase  000000018004c154     libvcruntime:trnsctrl.obj
 0004:00002160       $pdata$_IsExceptionObjectToBeDestroyed 000000018004c160     libvcruntime:trnsctrl.obj
 0004:0000216c       $pdata$_SetImageBase       000000018004c16c     libvcruntime:trnsctrl.obj
 0004:00002178       $pdata$_SetThrowImageBase  000000018004c178     libvcruntime:trnsctrl.obj
 0004:00002184       $pdata$_UnwindNestedFrames 000000018004c184     libvcruntime:trnsctrl.obj
 0004:00002190       $pdata$__CxxFrameHandler3  000000018004c190     libvcruntime:trnsctrl.obj
 0004:0000219c       $pdata$?__GetCurrentState@@YAHPEA_KPEAU_xDISPATCHER_CONTEXT@@PEBU_s_FuncInfo@@@Z 000000018004c19c     libvcruntime:ehstate.obj
 0004:000021a8       $pdata$?__GetUnwindTryBlock@@YAHPEA_KPEAU_xDISPATCHER_CONTEXT@@PEBU_s_FuncInfo@@@Z 000000018004c1a8     libvcruntime:ehstate.obj
 0004:000021b4       $pdata$?__SetUnwindTryBlock@@YAXPEA_KPEAU_xDISPATCHER_CONTEXT@@PEBU_s_FuncInfo@@H@Z 000000018004c1b4     libvcruntime:ehstate.obj
 0004:000021c0       $pdata$?__StateFromIp@@YAHPEBU_s_FuncInfo@@PEAU_xDISPATCHER_CONTEXT@@_J@Z 000000018004c1c0     libvcruntime:ehstate.obj
 0004:000021cc       $pdata$__DestructExceptionObject 000000018004c1cc     libvcruntime:frame.obj
 0004:000021d8       $pdata$??0bad_exception@std@@QEAA@AEBV01@@Z 000000018004c1d8     libvcruntime:frame.obj
 0004:000021e4       $pdata$?CatchIt@@YAXPEAUEHExceptionRecord@@PEA_KPEAU_CONTEXT@@PEAU_xDISPATCHER_CONTEXT@@PEBU_s_FuncInfo@@PEBU_s_HandlerType@@PEBU_s_CatchableType@@PEBU_s_TryBlockMapEntry@@H1EE@Z 000000018004c1e4     libvcruntime:frame.obj
 0004:000021f0       $pdata$?ExFilterRethrow@@YAHPEAU_EXCEPTION_POINTERS@@PEAUEHExceptionRecord@@PEAH@Z 000000018004c1f0     libvcruntime:frame.obj
 0004:000021fc       $pdata$?FindHandler@@YAXPEAUEHExceptionRecord@@PEA_KPEAU_CONTEXT@@PEAU_xDISPATCHER_CONTEXT@@PEBU_s_FuncInfo@@EH1@Z 000000018004c1fc     libvcruntime:frame.obj
 0004:00002208       $pdata$?FindHandlerForForeignException@@YAXPEAUEHExceptionRecord@@PEA_KPEAU_CONTEXT@@PEAU_xDISPATCHER_CONTEXT@@PEBU_s_FuncInfo@@HH1@Z 000000018004c208     libvcruntime:frame.obj
 0004:00002214       $pdata$?IsInExceptionSpec@@YAEPEAUEHExceptionRecord@@PEBU_s_ESTypeList@@@Z 000000018004c214     libvcruntime:frame.obj
 0004:00002220       $pdata$__BuildCatchObject  000000018004c220     libvcruntime:frame.obj
 0004:0000222c       $pdata$__BuildCatchObjectHelper 000000018004c22c     libvcruntime:frame.obj
 0004:00002238       $pdata$__CxxCallCatchBlock 000000018004c238     libvcruntime:frame.obj
 0004:00002244       $pdata$__FrameUnwindFilter 000000018004c244     libvcruntime:frame.obj
 0004:00002250       $pdata$__FrameUnwindToState 000000018004c250     libvcruntime:frame.obj
 0004:0000225c       $pdata$__InternalCxxFrameHandler 000000018004c25c     libvcruntime:frame.obj
 0004:00002268       $pdata$__TypeMatch         000000018004c268     libvcruntime:frame.obj
 0004:00002280       $pdata$sqrtf               000000018004c280     libucrt:sqrtf.obj
 0004:00002298       $pdata$?catch$0@?0??_wrap_vectori_get@@YAXAEBV?$FunctionCallbackInfo@VValue@v8@@@v8@@@Z@4HA 000000018004c298     libRVO_wrap.obj
 0004:000022a4       $pdata$?catch$0@?0??_wrap_vectori_set@@YAXAEBV?$FunctionCallbackInfo@VValue@v8@@@v8@@@Z@4HA 000000018004c2a4     libRVO_wrap.obj
 0004:000022b0       $pdata$?catch$0@?0??_wrap_vectord_get@@YAXAEBV?$FunctionCallbackInfo@VValue@v8@@@v8@@@Z@4HA 000000018004c2b0     libRVO_wrap.obj
 0004:000022bc       $pdata$?catch$0@?0??_wrap_vectord_set@@YAXAEBV?$FunctionCallbackInfo@VValue@v8@@@v8@@@Z@4HA 000000018004c2bc     libRVO_wrap.obj
 0004:000022c8       $pdata$?catch$0@?0??_wrap_vectorline_get@@YAXAEBV?$FunctionCallbackInfo@VValue@v8@@@v8@@@Z@4HA 000000018004c2c8     libRVO_wrap.obj
 0004:000022d4       $pdata$?catch$0@?0??_wrap_vectorline_set@@YAXAEBV?$FunctionCallbackInfo@VValue@v8@@@v8@@@Z@4HA 000000018004c2d4     libRVO_wrap.obj
 0004:000022e0       $pdata$?catch$0@?0??_wrap_vectorvector_get@@YAXAEBV?$FunctionCallbackInfo@VValue@v8@@@v8@@@Z@4HA 000000018004c2e0     libRVO_wrap.obj
 0004:000022ec       $pdata$?catch$0@?0??_wrap_vectorvector_set@@YAXAEBV?$FunctionCallbackInfo@VValue@v8@@@v8@@@Z@4HA 000000018004c2ec     libRVO_wrap.obj
 0004:000022f8       $pdata$__scrt_is_nonwritable_in_current_image$filt$0 000000018004c2f8     LIBCMT:utility.obj
 0004:00002304       $pdata$?fin$0@?0??dllmain_crt_process_attach@@YAHQEAUHINSTANCE__@@QEAX@Z@4HA 000000018004c304     LIBCMT:dll_dllmain.obj
 0004:00002310       $pdata$?fin$0@?0??dllmain_crt_process_detach@@YAH_N@Z@4HA 000000018004c310     LIBCMT:dll_dllmain.obj
 0004:0000231c       $pdata$?filt$0@?0??dllmain_dispatch@@YAHQEAUHINSTANCE__@@KQEAX@Z@4HA 000000018004c31c     LIBCMT:dll_dllmain.obj
 0004:00002328       $pdata$_query_new_handler$fin$0 000000018004c328     libucrt:new_handler.obj
 0004:00002334       $pdata$?filt$0@?0??common_exit@@YAXHW4_crt_exit_cleanup_mode@@W4_crt_exit_return_mode@@@Z@4HA 000000018004c334     libucrt:exit.obj
 0004:00002340       $pdata$?fin$1@?0??common_exit@@YAXHW4_crt_exit_cleanup_mode@@W4_crt_exit_return_mode@@@Z@4HA 000000018004c340     libucrt:exit.obj
 0004:0000234c       $pdata$?fin$0@?0???$?RV<lambda_e24bbb7b643b32fcea6fa61b31d4c984>@@AEAV<lambda_275893d493268fdec8709772e3fcec0e>@@V<lambda_9d71df4d7cf3f480f8d633942495c3b0>@@@?$__crt_seh_guarded_call@H@@QEAAH$$QEAV<lambda_e24bbb7b643b32fcea6fa61b31d4c984>@@AEAV<lambda_275893d493268fdec8709772e3fcec0e>@@$$QEAV<lambda_9d71df4d7cf3f480f8d633942495c3b0>@@@Z@4HA 000000018004c34c     libucrt:onexit.obj
 0004:00002358       $pdata$__acrt_lowio_ensure_fh_exists$fin$0 000000018004c358     libucrt:osfinfo.obj
 0004:00002358       $pdata$__acrt_initialize_lowio$fin$0 000000018004c358     libucrt:ioinit.obj
 0004:00002364       $pdata$common_flush_all$fin$0 000000018004c364     libucrt:fflush.obj
 0004:00002370       $pdata$common_flush_all$fin$1 000000018004c370     libucrt:fflush.obj
 0004:0000237c       $pdata$?fin$0@?0???$?RV<lambda_7a5ef57ff966f610505f1d28a3d40618>@@AEAV<lambda_b721fa326cdb32351d23dfa67958c160>@@V<lambda_5e0fb27672408a07956fe59e48ccb2aa>@@@?$__crt_seh_guarded_call@H@@QEAAH$$QEAV<lambda_7a5ef57ff966f610505f1d28a3d40618>@@AEAV<lambda_b721fa326cdb32351d23dfa67958c160>@@$$QEAV<lambda_5e0fb27672408a07956fe59e48ccb2aa>@@@Z@4HA 000000018004c37c     libucrt:setvbuf.obj
 0004:0000237c       $pdata$?fin$0@?0???$?RV<lambda_7b91131dde12e1c3dfc74ff76b3f2eac>@@AEAV<lambda_dd75445284c072d0bd3768540cc698fa>@@V<lambda_16bc4ecb55b4718497c16bceaea2ceaf>@@@?$__crt_seh_guarded_call@H@@QEAAH$$QEAV<lambda_7b91131dde12e1c3dfc74ff76b3f2eac>@@AEAV<lambda_dd75445284c072d0bd3768540cc698fa>@@$$QEAV<lambda_16bc4ecb55b4718497c16bceaea2ceaf>@@@Z@4HA 000000018004c37c     libucrt:output.obj
 0004:00002388       $pdata$?fin$0@?0???$?RV<lambda_99476a1ad63dd22509b5d3e65b0ffc95>@@AEAV<lambda_ad1ced32f4ac17aa236e5ef05d6b3b7c>@@V<lambda_f7424dd8d45958661754dc4f2697e9c3>@@@?$__crt_seh_guarded_call@X@@QEAAX$$QEAV<lambda_99476a1ad63dd22509b5d3e65b0ffc95>@@AEAV<lambda_ad1ced32f4ac17aa236e5ef05d6b3b7c>@@$$QEAV<lambda_f7424dd8d45958661754dc4f2697e9c3>@@@Z@4HA 000000018004c388     libucrt:mbctype.obj
 0004:00002388       $pdata$?fin$0@?0???$?RV<lambda_72d1df2b273a38828b1ce30cbf4cdab5>@@AEAV<lambda_876a65b173b8412d3a47c70a915b0cf4>@@V<lambda_41932305e351933ebe8f8be3ed8bb5dc>@@@?$__crt_seh_guarded_call@X@@QEAAX$$QEAV<lambda_72d1df2b273a38828b1ce30cbf4cdab5>@@AEAV<lambda_876a65b173b8412d3a47c70a915b0cf4>@@$$QEAV<lambda_41932305e351933ebe8f8be3ed8bb5dc>@@@Z@4HA 000000018004c388     libucrt:per_thread_data.obj
 0004:00002388       $pdata$?fin$0@?0???$?RV<lambda_b8c45f8f788dd370798f47cfe8ac3a86>@@AEAV<lambda_4e60a939b0d047cfe11ddc22648dfba9>@@V<lambda_332c3edc96d0294ec56c57d38c1cdfd5>@@@?$__crt_seh_guarded_call@H@@QEAAH$$QEAV<lambda_b8c45f8f788dd370798f47cfe8ac3a86>@@AEAV<lambda_4e60a939b0d047cfe11ddc22648dfba9>@@$$QEAV<lambda_332c3edc96d0294ec56c57d38c1cdfd5>@@@Z@4HA 000000018004c388     libucrt:onexit.obj
 0004:00002388       $pdata$?fin$0@?0???$?RV<lambda_5e887d1dcbef67a5eb4283622ba103bf>@@AEAV<lambda_4466841279450cc726390878d4a41900>@@V<lambda_341c25c0346d94847f1f3c463c57e077>@@@?$__crt_seh_guarded_call@X@@QEAAX$$QEAV<lambda_5e887d1dcbef67a5eb4283622ba103bf>@@AEAV<lambda_4466841279450cc726390878d4a41900>@@$$QEAV<lambda_341c25c0346d94847f1f3c463c57e077>@@@Z@4HA 000000018004c388     libucrt:per_thread_data.obj
 0004:00002388       $pdata$?fin$0@?0???$?RV<lambda_c36588078e9f5dfd39652860aa6b3aaf>@@AEAV<lambda_ec61778202f4f5fc7e7711acc23c3bca>@@V<lambda_dc9d2797ccde5d239b4a0efae8ebd7db>@@@?$__crt_seh_guarded_call@P6AXH@Z@@QEAAP6AXH@Z$$QEAV<lambda_c36588078e9f5dfd39652860aa6b3aaf>@@AEAV<lambda_ec61778202f4f5fc7e7711acc23c3bca>@@$$QEAV<lambda_dc9d2797ccde5d239b4a0efae8ebd7db>@@@Z@4HA 000000018004c388     libucrt:signal.obj
 0004:00002388       $pdata$?fin$0@?0???$?RV<lambda_fb3a7dec4e47f37f22dae91bb15c9095>@@AEAV<lambda_698284760c8add0bfb0756c19673e34b>@@V<lambda_dfb8eca1e75fef3034a8fb18dd509707>@@@?$__crt_seh_guarded_call@X@@QEAAX$$QEAV<lambda_fb3a7dec4e47f37f22dae91bb15c9095>@@AEAV<lambda_698284760c8add0bfb0756c19673e34b>@@$$QEAV<lambda_dfb8eca1e75fef3034a8fb18dd509707>@@@Z@4HA 000000018004c388     libucrt:per_thread_data.obj
 0004:00002388       $pdata$?fin$0@?0???$?RV<lambda_46352004c1216016012b18bd6f87e700>@@AEAV<lambda_3bd07e1a1191394380780325891bf33f>@@V<lambda_334532d3f185bcaa59b5be82d7d22bff>@@@?$__crt_seh_guarded_call@X@@QEAAX$$QEAV<lambda_46352004c1216016012b18bd6f87e700>@@AEAV<lambda_3bd07e1a1191394380780325891bf33f>@@$$QEAV<lambda_334532d3f185bcaa59b5be82d7d22bff>@@@Z@4HA 000000018004c388     libucrt:per_thread_data.obj
 0004:00002394       $pdata$raise$fin$0         000000018004c394     libucrt:signal.obj
 0004:000023a0       $pdata$__acrt_update_thread_multibyte_data$fin$0 000000018004c3a0     libucrt:mbctype.obj
 0004:000023ac       $pdata$__acrt_update_thread_locale_data$fin$0 000000018004c3ac     libucrt:locale_refcounting.obj
 0004:000023ac       $pdata$__acrt_uninitialize_locale$fin$0 000000018004c3ac     libucrt:wsetlocale.obj
 0004:000023b8       $pdata$_fcloseall$fin$0    000000018004c3b8     libucrt:closeall.obj
 0004:000023c4       $pdata$?fin$0@?0???$?RV<lambda_b521505b218e5242e90febf6bfebc422>@@AEAV<lambda_6978c1fb23f02e42e1d9e99668cc68aa>@@V<lambda_314360699dd331753a4119843814e9a7>@@@?$__crt_seh_guarded_call@H@@QEAAH$$QEAV<lambda_b521505b218e5242e90febf6bfebc422>@@AEAV<lambda_6978c1fb23f02e42e1d9e99668cc68aa>@@$$QEAV<lambda_314360699dd331753a4119843814e9a7>@@@Z@4HA 000000018004c3c4     libucrt:commit.obj
 0004:000023c4       $pdata$?fin$0@?0???$?RV<lambda_bfedae4ebbf01fab1bb6dcc6a9e276e0>@@AEAV<lambda_2fe9b910cf3cbf4a0ab98a02ba45b3ec>@@V<lambda_237c231691f317818eb88cc1d5d642d6>@@@?$__crt_seh_guarded_call@H@@QEAAH$$QEAV<lambda_bfedae4ebbf01fab1bb6dcc6a9e276e0>@@AEAV<lambda_2fe9b910cf3cbf4a0ab98a02ba45b3ec>@@$$QEAV<lambda_237c231691f317818eb88cc1d5d642d6>@@@Z@4HA 000000018004c3c4     libucrt:close.obj
 0004:000023d0       $pdata$?fin$0@?0???$common_lseek@_J@@YA_JH_JH@Z@4HA 000000018004c3d0     libucrt:lseek.obj
 0004:000023d0       $pdata$_write$fin$0        000000018004c3d0     libucrt:write.obj
 0004:000023dc       $pdata$fflush$fin$0        000000018004c3dc     libucrt:fflush.obj
 0004:000023dc       $pdata$fclose$fin$0        000000018004c3dc     libucrt:fclose.obj
 0004:000023e8       $pdata$common_control87$filt$0 000000018004c3e8     libucrt:ieee.obj
 0004:000023e8       $pdata$_ctrlfp$filt$0      000000018004c3e8     libucrt:fpctrl.obj
 0004:000023f4       $pdata$_IsNonwritableInCurrentImage$filt$0 000000018004c3f4     LIBCMT:pesect.obj
 0004:00002400       $pdata$_CallSETranslator$filt$0 000000018004c400     libvcruntime:trnsctrl.obj
 0004:0000240c       $pdata$__CxxCallCatchBlock$filt$0 000000018004c40c     libvcruntime:frame.obj
 0004:00002418       $pdata$__CxxCallCatchBlock$fin$1 000000018004c418     libvcruntime:frame.obj
 0004:00002424       $pdata$__DestructExceptionObject$filt$0 000000018004c424     libvcruntime:frame.obj
 0004:00002430       $pdata$__FrameUnwindToState$filt$0 000000018004c430     libvcruntime:frame.obj
 0004:0000243c       $pdata$__FrameUnwindToState$fin$1 000000018004c43c     libvcruntime:frame.obj
 0005:00000000       __guard_fids__             000000018004d000     libucrt:initialization.obj
 0005:00000060       __guard_fids___acrt_initialize_ptd 000000018004d060     libucrt:per_thread_data.obj
 0005:00000064       __guard_fids___acrt_show_wide_message_box 000000018004d064     libucrt:crtmbox.obj
 0005:00000068       __guard_fids_??$expand_argument_wildcards@D@@YAHQEAD0AEAV?$argument_list@D@?A0xca0879c4@@@Z 000000018004d068     libucrt:argv_wildcards.obj
 0005:0000006c       __guard_fids__             000000018004d06c     libucrt:stdio_initializer.obj
 0005:00000070       __guard_fids__             000000018004d070     libucrt:stdio_initializer.obj
 0005:00000074       __guard_fids__             000000018004d074     libucrt:locale_initializer.obj
 0005:00000078       __guard_fids__             000000018004d078     libucrt:multibyte_initializer.obj
 0005:0000007c       __guard_fids__             000000018004d07c     libucrt:fma3_initializer.obj
 0005:00000080       __guard_fids__             000000018004d080     libucrt:console_output_initializer.obj
 0005:00000084       __guard_fids__             000000018004d084     libcpmt:xthrow.obj
 0005:0000008c       __guard_fids__             000000018004d08c     libcpmt:xthrow.obj
 0005:00000094       __guard_fids__             000000018004d094     libcpmt:xthrow.obj
 0005:0000009c       __guard_fids__             000000018004d09c     libcpmt:xthrow.obj
 0005:000000a4       __guard_fids__             000000018004d0a4     libcpmt:xthrow.obj
 0005:000000ac       __guard_fids__             000000018004d0ac     LIBCMT:std_type_info_static.obj
 0005:000000b0       __guard_fids_?dllmain_crt_process_attach@@YAHQEAUHINSTANCE__@@QEAX@Z 000000018004d0b0     LIBCMT:dll_dllmain.obj
 0005:000000b8       __guard_fids_?dllmain_dispatch@@YAHQEAUHINSTANCE__@@KQEAX@Z 000000018004d0b8     LIBCMT:dll_dllmain.obj
 0005:000000bc       __guard_fids__             000000018004d0bc     LIBCMT:throw_bad_alloc.obj
 0005:000000c4       __guard_fids__             000000018004d0c4     LIBCMT:guard_support.obj
 0005:000000c8       __guard_fids___vcrt_initialize_ptd 000000018004d0c8     libvcruntime:per_thread_data.obj
 0005:000000cc       __guard_fids__UnwindNestedFrames 000000018004d0cc     libvcruntime:trnsctrl.obj
 0005:000000d0       __guard_fids__             000000018004d0d0     libvcruntime:frame.obj
 0005:000000d4       __guard_fids__             000000018004d0d4     libvcruntime:frame.obj
 0006:00000060       $R000000                   000000018004e060     * linker generated manifest res *

 Exports

  ordinal    name

        1    _register_libRVO_
